---
triple:          'arm64-apple-darwin'
binary-path:     '/Users/pwintsch/Projects/VeryBasic/obj/verybasic'
relocations:
  - { offsetInCU: 0x5BCC, offset: 0x5BCC, size: 0x8, addend: 0x0, symName: __ZNSt3__16copy_nB7v160006IPKcmPcEENS_9enable_ifIXsr33__is_cpp17_random_access_iteratorIT_EE5valueET1_E4typeES5_T0_S6_, symObjAddr: 0x9388, symBinAddr: 0x10000AF08, symSize: 0x44 }
  - { offsetInCU: 0x77F8, offset: 0x77F8, size: 0x8, addend: 0x0, symName: __ZNSt3__17advanceB7v160006IP11CommandNodemmvEEvRT_T0_, symObjAddr: 0xBFD0, symBinAddr: 0x10000DB50, symSize: 0x50 }
  - { offsetInCU: 0xA58C, offset: 0xA58C, size: 0x8, addend: 0x0, symName: __ZNSt3__1neB7v160006IP11CommandNodeEEbRKNS_11__wrap_iterIT_EES7_, symObjAddr: 0x2410, symBinAddr: 0x100003F90, symSize: 0x34 }
  - { offsetInCU: 0xA5CF, offset: 0xA5CF, size: 0x8, addend: 0x0, symName: __ZNSt3__1plB7v160006IcNS_11char_traitsIcEENS_9allocatorIcEEEENS_12basic_stringIT_T0_T1_EERKS9_SB_, symObjAddr: 0x2520, symBinAddr: 0x1000040A0, symSize: 0x134 }
  - { offsetInCU: 0xA670, offset: 0xA670, size: 0x8, addend: 0x0, symName: __ZNSt3__1plB7v160006IcNS_11char_traitsIcEENS_9allocatorIcEEEENS_12basic_stringIT_T0_T1_EERKS9_PKS6_, symObjAddr: 0x26B4, symBinAddr: 0x100004234, symSize: 0x11C }
  - { offsetInCU: 0xA711, offset: 0xA711, size: 0x8, addend: 0x0, symName: __ZNSt3__1plB7v160006IcNS_11char_traitsIcEENS_9allocatorIcEEEENS_12basic_stringIT_T0_T1_EEOS9_PKS6_, symObjAddr: 0x32C0, symBinAddr: 0x100004E40, symSize: 0x40 }
  - { offsetInCU: 0xA769, offset: 0xA769, size: 0x8, addend: 0x0, symName: __ZNSt3__1plB7v160006IcNS_11char_traitsIcEENS_9allocatorIcEEEENS_12basic_stringIT_T0_T1_EEOS9_RKS9_, symObjAddr: 0x3300, symBinAddr: 0x100004E80, symSize: 0x40 }
  - { offsetInCU: 0xA7C1, offset: 0xA7C1, size: 0x8, addend: 0x0, symName: __ZNSt3__1plB7v160006IcNS_11char_traitsIcEENS_9allocatorIcEEEENS_12basic_stringIT_T0_T1_EEOS9_SA_, symObjAddr: 0x3340, symBinAddr: 0x100004EC0, symSize: 0x40 }
  - { offsetInCU: 0xA819, offset: 0xA819, size: 0x8, addend: 0x0, symName: __ZNSt3__1plB7v160006IcNS_11char_traitsIcEENS_9allocatorIcEEEENS_12basic_stringIT_T0_T1_EERKS9_OS9_, symObjAddr: 0x3380, symBinAddr: 0x100004F00, symSize: 0x44 }
  - { offsetInCU: 0xA871, offset: 0xA871, size: 0x8, addend: 0x0, symName: __ZNSt3__1plB7v160006IcNS_11char_traitsIcEENS_9allocatorIcEEEENS_12basic_stringIT_T0_T1_EEPKS6_OS9_, symObjAddr: 0x5120, symBinAddr: 0x100006CA0, symSize: 0x44 }
  - { offsetInCU: 0xA8C9, offset: 0xA8C9, size: 0x8, addend: 0x0, symName: __ZNSt3__1eqB7v160006IP11CommandNodeEEbRKNS_11__wrap_iterIT_EES7_, symObjAddr: 0x5164, symBinAddr: 0x100006CE4, symSize: 0x48 }
  - { offsetInCU: 0xA90C, offset: 0xA90C, size: 0x8, addend: 0x0, symName: __ZNSt3__125__debug_db_invalidate_allB7v160006INS_6vectorI11CommandNodeNS_9allocatorIS2_EEEEEEvPT_, symObjAddr: 0x531C, symBinAddr: 0x100006E9C, symSize: 0x10 }
  - { offsetInCU: 0xA93D, offset: 0xA93D, size: 0x8, addend: 0x0, symName: __ZNSt3__112__to_addressB7v160006I11CommandNodeEEPT_S3_, symObjAddr: 0x5418, symBinAddr: 0x100006F98, symSize: 0x14 }
  - { offsetInCU: 0xA972, offset: 0xA972, size: 0x8, addend: 0x0, symName: __ZNSt3__122__make_exception_guardB7v160006INS_6vectorI5TokenNS_9allocatorIS2_EEE16__destroy_vectorEEENS_28__exception_guard_exceptionsIT_EES8_, symObjAddr: 0x5794, symBinAddr: 0x100007314, symSize: 0x40 }
  - { offsetInCU: 0xA9A7, offset: 0xA9A7, size: 0x8, addend: 0x0, symName: __ZNSt3__119__debug_db_insert_cB7v160006INS_6vectorI5TokenNS_9allocatorIS2_EEEEEEvPT_, symObjAddr: 0x5808, symBinAddr: 0x100007388, symSize: 0x10 }
  - { offsetInCU: 0xA9D8, offset: 0xA9D8, size: 0x8, addend: 0x0, symName: __ZNSt3__18distanceB7v160006INS_11__wrap_iterIP5TokenEEEENS_15iterator_traitsIT_E15difference_typeES6_S6_, symObjAddr: 0x5818, symBinAddr: 0x100007398, symSize: 0x3C }
  - { offsetInCU: 0xAA1B, offset: 0xAA1B, size: 0x8, addend: 0x0, symName: __ZNSt3__110__distanceB7v160006INS_11__wrap_iterIP5TokenEEEENS_15iterator_traitsIT_E15difference_typeES6_S6_NS_26random_access_iterator_tagE, symObjAddr: 0x5B24, symBinAddr: 0x1000076A4, symSize: 0x30 }
  - { offsetInCU: 0xAA68, offset: 0xAA68, size: 0x8, addend: 0x0, symName: __ZNSt3__1miB7v160006IP5TokenS2_EEDTmicldtfp_4baseEcldtfp0_4baseEERKNS_11__wrap_iterIT_EERKNS4_IT0_EE, symObjAddr: 0x5B54, symBinAddr: 0x1000076D4, symSize: 0x48 }
  - { offsetInCU: 0xAAB4, offset: 0xAAB4, size: 0x8, addend: 0x0, symName: __ZNSt3__119__allocate_at_leastB7v160006INS_9allocatorI5TokenEEEENS_19__allocation_resultINS_16allocator_traitsIT_E7pointerEEERS6_m, symObjAddr: 0x5C30, symBinAddr: 0x1000077B0, symSize: 0x40 }
  - { offsetInCU: 0xAAF7, offset: 0xAAF7, size: 0x8, addend: 0x0, symName: __ZNSt3__13minB7v160006ImEERKT_S3_S3_, symObjAddr: 0x5D6C, symBinAddr: 0x1000078EC, symSize: 0x2C }
  - { offsetInCU: 0xAD3B, offset: 0xAD3B, size: 0x8, addend: 0x0, symName: __ZNSt3__13minB7v160006ImNS_6__lessImmEEEERKT_S5_S5_T0_, symObjAddr: 0x5DF8, symBinAddr: 0x100007978, symSize: 0x54 }
  - { offsetInCU: 0xADD0, offset: 0xADD0, size: 0x8, addend: 0x0, symName: __ZNSt3__120__throw_length_errorB7v160006EPKc, symObjAddr: 0x5ED4, symBinAddr: 0x100007A54, symSize: 0x64 }
  - { offsetInCU: 0xADF8, offset: 0xADF8, size: 0x8, addend: 0x0, symName: __ZNSt3__117__libcpp_allocateB7v160006Emm, symObjAddr: 0x6044, symBinAddr: 0x100007BC4, symSize: 0x28 }
  - { offsetInCU: 0xAE35, offset: 0xAE35, size: 0x8, addend: 0x0, symName: __ZNSt3__121__libcpp_operator_newB7v160006IJmEEEPvDpT_, symObjAddr: 0x606C, symBinAddr: 0x100007BEC, symSize: 0x24 }
  - { offsetInCU: 0xAE6E, offset: 0xAE6E, size: 0x8, addend: 0x0, symName: __ZNSt3__112__to_addressB7v160006I5TokenEEPT_S3_, symObjAddr: 0x6188, symBinAddr: 0x100007D08, symSize: 0x14 }
  - { offsetInCU: 0xAEA3, offset: 0xAEA3, size: 0x8, addend: 0x0, symName: __ZNSt3__130__uninitialized_allocator_copyB7v160006INS_9allocatorI5TokenEENS_11__wrap_iterIPS2_EES6_S5_EET2_RT_T0_T1_S7_, symObjAddr: 0x6238, symBinAddr: 0x100007DB8, symSize: 0xF8 }
  - { offsetInCU: 0xAF41, offset: 0xAF41, size: 0x8, addend: 0x0, symName: __ZNSt3__122__make_exception_guardB7v160006INS_29_AllocatorDestroyRangeReverseINS_9allocatorI5TokenEEPS3_EEEENS_28__exception_guard_exceptionsIT_EES8_, symObjAddr: 0x63A0, symBinAddr: 0x100007F20, symSize: 0x4C }
  - { offsetInCU: 0xAF77, offset: 0xAF77, size: 0x8, addend: 0x0, symName: __ZNSt3__1neB7v160006IP5TokenEEbRKNS_11__wrap_iterIT_EES7_, symObjAddr: 0x6430, symBinAddr: 0x100007FB0, symSize: 0x34 }
  - { offsetInCU: 0xAFBA, offset: 0xAFBA, size: 0x8, addend: 0x0, symName: __ZNSt3__1eqB7v160006IP5TokenEEbRKNS_11__wrap_iterIT_EES7_, symObjAddr: 0x65B4, symBinAddr: 0x100008134, symSize: 0x48 }
  - { offsetInCU: 0xAFFD, offset: 0xAFFD, size: 0x8, addend: 0x0, symName: __ZNSt3__119__allocator_destroyB7v160006INS_9allocatorI5TokenEENS_16reverse_iteratorIPS2_EES6_EEvRT_T0_T1_, symObjAddr: 0x6760, symBinAddr: 0x1000082E0, symSize: 0x70 }
  - { offsetInCU: 0xB060, offset: 0xB060, size: 0x8, addend: 0x0, symName: __ZNSt3__1neB7v160006IP5TokenS2_EEbRKNS_16reverse_iteratorIT_EERKNS3_IT0_EE, symObjAddr: 0x6804, symBinAddr: 0x100008384, symSize: 0x48 }
  - { offsetInCU: 0xB0AC, offset: 0xB0AC, size: 0x8, addend: 0x0, symName: __ZNSt3__112__to_addressB7v160006INS_16reverse_iteratorIP5TokenEEvEENS_5decayIDTclsr19__to_address_helperIT_EE6__callclsr3stdE7declvalIRKS6_EEEEE4typeES8_, symObjAddr: 0x6878, symBinAddr: 0x1000083F8, symSize: 0x24 }
  - { offsetInCU: 0xB10B, offset: 0xB10B, size: 0x8, addend: 0x0, symName: __ZNSt3__118__debug_db_erase_cB7v160006INS_6vectorI5TokenNS_9allocatorIS2_EEEEEEvPT_, symObjAddr: 0x6BC8, symBinAddr: 0x100008748, symSize: 0x10 }
  - { offsetInCU: 0xB13C, offset: 0xB13C, size: 0x8, addend: 0x0, symName: __ZNSt3__119__libcpp_deallocateB7v160006EPvmm, symObjAddr: 0x6D00, symBinAddr: 0x100008880, symSize: 0x30 }
  - { offsetInCU: 0xB184, offset: 0xB184, size: 0x8, addend: 0x0, symName: __ZNSt3__127__do_deallocate_handle_sizeB7v160006IJEEEvPvmDpT_, symObjAddr: 0x6D30, symBinAddr: 0x1000088B0, symSize: 0x28 }
  - { offsetInCU: 0xB1C2, offset: 0xB1C2, size: 0x8, addend: 0x0, symName: __ZNSt3__124__libcpp_operator_deleteB7v160006IJPvEEEvDpT_, symObjAddr: 0x6D58, symBinAddr: 0x1000088D8, symSize: 0x24 }
  - { offsetInCU: 0xB1F7, offset: 0xB1F7, size: 0x8, addend: 0x0, symName: __ZNSt3__13maxB7v160006ImEERKT_S3_S3_, symObjAddr: 0x7434, symBinAddr: 0x100008FB4, symSize: 0x2C }
  - { offsetInCU: 0xB23A, offset: 0xB23A, size: 0x8, addend: 0x0, symName: __ZNSt3__13maxB7v160006ImNS_6__lessImmEEEERKT_S5_S5_T0_, symObjAddr: 0x7504, symBinAddr: 0x100009084, symSize: 0x54 }
  - { offsetInCU: 0xB294, offset: 0xB294, size: 0x8, addend: 0x0, symName: __ZNSt3__119__allocate_at_leastB7v160006INS_9allocatorI11CommandNodeEEEENS_19__allocation_resultINS_16allocator_traitsIT_E7pointerEEERS6_m, symObjAddr: 0x7674, symBinAddr: 0x1000091F4, symSize: 0x40 }
  - { offsetInCU: 0xB2D7, offset: 0xB2D7, size: 0x8, addend: 0x0, symName: __ZNSt3__142__uninitialized_allocator_move_if_noexceptB7v160006INS_9allocatorI11CommandNodeEENS_16reverse_iteratorIPS2_EES6_S6_EET2_RT_T0_T1_S7_, symObjAddr: 0x791C, symBinAddr: 0x10000949C, symSize: 0x12C }
  - { offsetInCU: 0xB377, offset: 0xB377, size: 0x8, addend: 0x0, symName: __ZNSt3__14swapB7v160006IP11CommandNodeEENS_9enable_ifIXaasr21is_move_constructibleIT_EE5valuesr18is_move_assignableIS4_EE5valueEvE4typeERS4_S7_, symObjAddr: 0x7A94, symBinAddr: 0x100009614, symSize: 0x3C }
  - { offsetInCU: 0xB3C8, offset: 0xB3C8, size: 0x8, addend: 0x0, symName: __ZNSt3__122__make_exception_guardB7v160006INS_29_AllocatorDestroyRangeReverseINS_9allocatorI11CommandNodeEENS_16reverse_iteratorIPS3_EEEEEENS_28__exception_guard_exceptionsIT_EESA_, symObjAddr: 0x7B98, symBinAddr: 0x100009718, symSize: 0x4C }
  - { offsetInCU: 0xB3FE, offset: 0xB3FE, size: 0x8, addend: 0x0, symName: __ZNSt3__1neB7v160006IP11CommandNodeS2_EEbRKNS_16reverse_iteratorIT_EERKNS3_IT0_EE, symObjAddr: 0x7C28, symBinAddr: 0x1000097A8, symSize: 0x48 }
  - { offsetInCU: 0xB44A, offset: 0xB44A, size: 0x8, addend: 0x0, symName: __ZNSt3__112__to_addressB7v160006INS_16reverse_iteratorIP11CommandNodeEEvEENS_5decayIDTclsr19__to_address_helperIT_EE6__callclsr3stdE7declvalIRKS6_EEEEE4typeES8_, symObjAddr: 0x7C70, symBinAddr: 0x1000097F0, symSize: 0x24 }
  - { offsetInCU: 0xB4A9, offset: 0xB4A9, size: 0x8, addend: 0x0, symName: __ZNSt3__119__allocator_destroyB7v160006INS_9allocatorI11CommandNodeEENS_16reverse_iteratorINS4_IPS2_EEEES7_EEvRT_T0_T1_, symObjAddr: 0x7F20, symBinAddr: 0x100009AA0, symSize: 0x70 }
  - { offsetInCU: 0xB50E, offset: 0xB50E, size: 0x8, addend: 0x0, symName: __ZNSt3__1neB7v160006INS_16reverse_iteratorIP11CommandNodeEES4_EEbRKNS1_IT_EERKNS1_IT0_EE, symObjAddr: 0x7FCC, symBinAddr: 0x100009B4C, symSize: 0x60 }
  - { offsetInCU: 0xB55A, offset: 0xB55A, size: 0x8, addend: 0x0, symName: __ZNSt3__112__to_addressB7v160006INS_16reverse_iteratorINS1_IP11CommandNodeEEEEvEENS_5decayIDTclsr19__to_address_helperIT_EE6__callclsr3stdE7declvalIRKS7_EEEEE4typeES9_, symObjAddr: 0x802C, symBinAddr: 0x100009BAC, symSize: 0x24 }
  - { offsetInCU: 0xB5B9, offset: 0xB5B9, size: 0x8, addend: 0x0, symName: __ZNSt3__119__debug_db_insert_cB7v160006INS_12basic_stringIcNS_11char_traitsIcEENS_9allocatorIcEEEEEEvPT_, symObjAddr: 0x849C, symBinAddr: 0x10000A01C, symSize: 0x10 }
  - { offsetInCU: 0xB5EA, offset: 0xB5EA, size: 0x8, addend: 0x0, symName: __ZNSt3__119__debug_db_insert_cB7v160006INS_6vectorI11CommandNodeNS_9allocatorIS2_EEEEEEvPT_, symObjAddr: 0x8674, symBinAddr: 0x10000A1F4, symSize: 0x10 }
  - { offsetInCU: 0xB61B, offset: 0xB61B, size: 0x8, addend: 0x0, symName: __ZNSt3__118__debug_db_erase_cB7v160006INS_6vectorI11CommandNodeNS_9allocatorIS2_EEEEEEvPT_, symObjAddr: 0x8864, symBinAddr: 0x10000A3E4, symSize: 0x10 }
  - { offsetInCU: 0xB64C, offset: 0xB64C, size: 0x8, addend: 0x0, symName: __ZNSt3__118__constexpr_strlenB7v160006EPKc, symObjAddr: 0x8A10, symBinAddr: 0x10000A590, symSize: 0x24 }
  - { offsetInCU: 0xB678, offset: 0xB678, size: 0x8, addend: 0x0, symName: __ZNSt3__112__to_addressB7v160006IcEEPT_S2_, symObjAddr: 0x8AF8, symBinAddr: 0x10000A678, symSize: 0x14 }
  - { offsetInCU: 0xB8E2, offset: 0xB8E2, size: 0x8, addend: 0x0, symName: __ZNSt3__14copyB7v160006IPKcPcEET0_T_S5_S4_, symObjAddr: 0x93CC, symBinAddr: 0x10000AF4C, symSize: 0x40 }
  - { offsetInCU: 0xB93C, offset: 0xB93C, size: 0x8, addend: 0x0, symName: __ZNSt3__16__copyB7v160006INS_17_ClassicAlgPolicyEPKcS3_PcEENS_4pairIT0_T2_EES6_T1_S7_, symObjAddr: 0x940C, symBinAddr: 0x10000AF8C, symSize: 0x44 }
  - { offsetInCU: 0xB9A8, offset: 0xB9A8, size: 0x8, addend: 0x0, symName: __ZNSt3__123__dispatch_copy_or_moveB7v160006INS_17_ClassicAlgPolicyENS_11__copy_loopIS1_EENS_14__copy_trivialEPKcS6_PcEENS_4pairIT2_T4_EES9_T3_SA_, symObjAddr: 0x9450, symBinAddr: 0x10000AFD0, symSize: 0x44 }
  - { offsetInCU: 0xBA26, offset: 0xBA26, size: 0x8, addend: 0x0, symName: __ZNSt3__121__unwrap_and_dispatchB7v160006INS_10__overloadINS_11__copy_loopINS_17_ClassicAlgPolicyEEENS_14__copy_trivialEEEPKcS8_PcLi0EEENS_4pairIT0_T2_EESB_T1_SC_, symObjAddr: 0x9494, symBinAddr: 0x10000B014, symSize: 0xB4 }
  - { offsetInCU: 0xBAB4, offset: 0xBAB4, size: 0x8, addend: 0x0, symName: __ZNSt3__114__unwrap_rangeB7v160006IPKcS2_EENS_4pairIT0_S4_EET_S6_, symObjAddr: 0x9548, symBinAddr: 0x10000B0C8, symSize: 0x60 }
  - { offsetInCU: 0xBC49, offset: 0xBC49, size: 0x8, addend: 0x0, symName: __ZNSt3__113__unwrap_iterB7v160006IPcNS_18__unwrap_iter_implIS1_Lb1EEELi0EEEDTclsrT0_8__unwrapclsr3stdE7declvalIT_EEEES5_, symObjAddr: 0x95F0, symBinAddr: 0x10000B170, symSize: 0x24 }
  - { offsetInCU: 0xBC8D, offset: 0xBC8D, size: 0x8, addend: 0x0, symName: __ZNSt3__19make_pairB7v160006IPKcPcEENS_4pairINS_18__unwrap_ref_decayIT_E4typeENS5_IT0_E4typeEEEOS6_OS9_, symObjAddr: 0x9614, symBinAddr: 0x10000B194, symSize: 0x38 }
  - { offsetInCU: 0xBCDC, offset: 0xBCDC, size: 0x8, addend: 0x0, symName: __ZNSt3__114__rewrap_rangeB7v160006IPKcS2_EET_S3_T0_, symObjAddr: 0x964C, symBinAddr: 0x10000B1CC, symSize: 0x2C }
  - { offsetInCU: 0xBD28, offset: 0xBD28, size: 0x8, addend: 0x0, symName: __ZNSt3__113__rewrap_iterB7v160006IPcS1_NS_18__unwrap_iter_implIS1_Lb1EEEEET_S4_T0_, symObjAddr: 0x9678, symBinAddr: 0x10000B1F8, symSize: 0x3C }
  - { offsetInCU: 0xBD7D, offset: 0xBD7D, size: 0x8, addend: 0x0, symName: __ZNSt3__19make_pairB7v160006IPKcS2_EENS_4pairINS_18__unwrap_ref_decayIT_E4typeENS4_IT0_E4typeEEEOS5_OS8_, symObjAddr: 0x96B4, symBinAddr: 0x10000B234, symSize: 0x38 }
  - { offsetInCU: 0xBDCC, offset: 0xBDCC, size: 0x8, addend: 0x0, symName: __ZNSt3__113__unwrap_iterB7v160006IPKcNS_18__unwrap_iter_implIS2_Lb1EEELi0EEEDTclsrT0_8__unwrapclsr3stdE7declvalIT_EEEES6_, symObjAddr: 0x96EC, symBinAddr: 0x10000B26C, symSize: 0x24 }
  - { offsetInCU: 0xBF37, offset: 0xBF37, size: 0x8, addend: 0x0, symName: __ZNSt3__112__to_addressB7v160006IKcEEPT_S3_, symObjAddr: 0x97A4, symBinAddr: 0x10000B324, symSize: 0x14 }
  - { offsetInCU: 0xBF6C, offset: 0xBF6C, size: 0x8, addend: 0x0, symName: __ZNSt3__119__copy_trivial_implB7v160006IKccEENS_4pairIPT_PT0_EES4_S4_S6_, symObjAddr: 0x97B8, symBinAddr: 0x10000B338, symSize: 0x7C }
  - { offsetInCU: 0xBFD4, offset: 0xBFD4, size: 0x8, addend: 0x0, symName: __ZNSt3__19make_pairB7v160006IRPKcPcEENS_4pairINS_18__unwrap_ref_decayIT_E4typeENS6_IT0_E4typeEEEOS7_OSA_, symObjAddr: 0x9834, symBinAddr: 0x10000B3B4, symSize: 0x38 }
  - { offsetInCU: 0xC076, offset: 0xC076, size: 0x8, addend: 0x0, symName: __ZNSt3__113__rewrap_iterB7v160006IPKcS2_NS_18__unwrap_iter_implIS2_Lb1EEEEET_S5_T0_, symObjAddr: 0x9970, symBinAddr: 0x10000B4F0, symSize: 0x3C }
  - { offsetInCU: 0xC0FE, offset: 0xC0FE, size: 0x8, addend: 0x0, symName: __ZNSt3__16fill_nB7v160006IPcmcEET_S2_T0_RKT1_, symObjAddr: 0x9AF4, symBinAddr: 0x10000B674, symSize: 0x44 }
  - { offsetInCU: 0xC161, offset: 0xC161, size: 0x8, addend: 0x0, symName: __ZNSt3__18__fill_nB7v160006IPcmcEET_S2_T0_RKT1_, symObjAddr: 0x9B38, symBinAddr: 0x10000B6B8, symSize: 0x64 }
  - { offsetInCU: 0xC1C4, offset: 0xC1C4, size: 0x8, addend: 0x0, symName: __ZNSt3__121__convert_to_integralB7v160006Em, symObjAddr: 0x9B9C, symBinAddr: 0x10000B71C, symSize: 0x14 }
  - { offsetInCU: 0xC1F0, offset: 0xC1F0, size: 0x8, addend: 0x0, symName: __ZNSt3__119__debug_db_insert_cB7v160006INS_6vectorI9tVarValueNS_9allocatorIS2_EEEEEEvPT_, symObjAddr: 0x9E38, symBinAddr: 0x10000B9B8, symSize: 0x10 }
  - { offsetInCU: 0xC221, offset: 0xC221, size: 0x8, addend: 0x0, symName: __ZNSt3__118__debug_db_erase_cB7v160006INS_6vectorI9tVarValueNS_9allocatorIS2_EEEEEEvPT_, symObjAddr: 0xA118, symBinAddr: 0x10000BC98, symSize: 0x10 }
  - { offsetInCU: 0xC252, offset: 0xC252, size: 0x8, addend: 0x0, symName: __ZNSt3__112__to_addressB7v160006I9tVarValueEEPT_S3_, symObjAddr: 0xA234, symBinAddr: 0x10000BDB4, symSize: 0x14 }
  - { offsetInCU: 0xC287, offset: 0xC287, size: 0x8, addend: 0x0, symName: __ZNSt3__119__allocate_at_leastB7v160006INS_9allocatorI9tVarValueEEEENS_19__allocation_resultINS_16allocator_traitsIT_E7pointerEEERS6_m, symObjAddr: 0xABFC, symBinAddr: 0x10000C77C, symSize: 0x40 }
  - { offsetInCU: 0xC2CA, offset: 0xC2CA, size: 0x8, addend: 0x0, symName: __ZNSt3__142__uninitialized_allocator_move_if_noexceptB7v160006INS_9allocatorI9tVarValueEENS_16reverse_iteratorIPS2_EES6_S6_EET2_RT_T0_T1_S7_, symObjAddr: 0xADB4, symBinAddr: 0x10000C934, symSize: 0x12C }
  - { offsetInCU: 0xC36A, offset: 0xC36A, size: 0x8, addend: 0x0, symName: __ZNSt3__14swapB7v160006IP9tVarValueEENS_9enable_ifIXaasr21is_move_constructibleIT_EE5valuesr18is_move_assignableIS4_EE5valueEvE4typeERS4_S7_, symObjAddr: 0xAF2C, symBinAddr: 0x10000CAAC, symSize: 0x3C }
  - { offsetInCU: 0xC3BB, offset: 0xC3BB, size: 0x8, addend: 0x0, symName: __ZNSt3__125__debug_db_invalidate_allB7v160006INS_6vectorI9tVarValueNS_9allocatorIS2_EEEEEEvPT_, symObjAddr: 0xB030, symBinAddr: 0x10000CBB0, symSize: 0x10 }
  - { offsetInCU: 0xC3EC, offset: 0xC3EC, size: 0x8, addend: 0x0, symName: __ZNSt3__122__make_exception_guardB7v160006INS_29_AllocatorDestroyRangeReverseINS_9allocatorI9tVarValueEENS_16reverse_iteratorIPS3_EEEEEENS_28__exception_guard_exceptionsIT_EESA_, symObjAddr: 0xB040, symBinAddr: 0x10000CBC0, symSize: 0x4C }
  - { offsetInCU: 0xC422, offset: 0xC422, size: 0x8, addend: 0x0, symName: __ZNSt3__1neB7v160006IP9tVarValueS2_EEbRKNS_16reverse_iteratorIT_EERKNS3_IT0_EE, symObjAddr: 0xB0D0, symBinAddr: 0x10000CC50, symSize: 0x48 }
  - { offsetInCU: 0xC46E, offset: 0xC46E, size: 0x8, addend: 0x0, symName: __ZNSt3__112__to_addressB7v160006INS_16reverse_iteratorIP9tVarValueEEvEENS_5decayIDTclsr19__to_address_helperIT_EE6__callclsr3stdE7declvalIRKS6_EEEEE4typeES8_, symObjAddr: 0xB14C, symBinAddr: 0x10000CCCC, symSize: 0x24 }
  - { offsetInCU: 0xC4A4, offset: 0xC4A4, size: 0x8, addend: 0x0, symName: __ZNSt3__115__debug_db_swapB7v160006INS_12basic_stringIcNS_11char_traitsIcEENS_9allocatorIcEEEEEEvPT_S8_, symObjAddr: 0xB408, symBinAddr: 0x10000CF88, symSize: 0x14 }
  - { offsetInCU: 0xC50C, offset: 0xC50C, size: 0x8, addend: 0x0, symName: __ZNSt3__119__allocator_destroyB7v160006INS_9allocatorI9tVarValueEENS_16reverse_iteratorINS4_IPS2_EEEES7_EEvRT_T0_T1_, symObjAddr: 0xB57C, symBinAddr: 0x10000D0FC, symSize: 0x70 }
  - { offsetInCU: 0xC571, offset: 0xC571, size: 0x8, addend: 0x0, symName: __ZNSt3__1neB7v160006INS_16reverse_iteratorIP9tVarValueEES4_EEbRKNS1_IT_EERKNS1_IT0_EE, symObjAddr: 0xB628, symBinAddr: 0x10000D1A8, symSize: 0x60 }
  - { offsetInCU: 0xC5BD, offset: 0xC5BD, size: 0x8, addend: 0x0, symName: __ZNSt3__112__to_addressB7v160006INS_16reverse_iteratorINS1_IP9tVarValueEEEEvEENS_5decayIDTclsr19__to_address_helperIT_EE6__callclsr3stdE7declvalIRKS7_EEEEE4typeES9_, symObjAddr: 0xB688, symBinAddr: 0x10000D208, symSize: 0x24 }
  - { offsetInCU: 0xC640, offset: 0xC640, size: 0x8, addend: 0x0, symName: __ZNSt3__118__constexpr_memcmpB7v160006IcEEiPKT_S3_m, symObjAddr: 0xBD4C, symBinAddr: 0x10000D8CC, symSize: 0x34 }
  - { offsetInCU: 0xC691, offset: 0xC691, size: 0x8, addend: 0x0, symName: __ZNSt3__18distanceB7v160006IP11CommandNodeEENS_15iterator_traitsIT_E15difference_typeES4_S4_, symObjAddr: 0xBFA4, symBinAddr: 0x10000DB24, symSize: 0x2C }
  - { offsetInCU: 0xC6D4, offset: 0xC6D4, size: 0x8, addend: 0x0, symName: __ZNSt3__14copyB7v160006IP11CommandNodeS2_EET0_T_S4_S3_, symObjAddr: 0xC020, symBinAddr: 0x10000DBA0, symSize: 0x40 }
  - { offsetInCU: 0xC72E, offset: 0xC72E, size: 0x8, addend: 0x0, symName: __ZNSt3__110__distanceB7v160006IP11CommandNodeEENS_15iterator_traitsIT_E15difference_typeES4_S4_NS_26random_access_iterator_tagE, symObjAddr: 0xC22C, symBinAddr: 0x10000DDAC, symSize: 0x28 }
  - { offsetInCU: 0xC77B, offset: 0xC77B, size: 0x8, addend: 0x0, symName: __ZNSt3__19__advanceB7v160006IP11CommandNodeEEvRT_NS_15iterator_traitsIS3_E15difference_typeENS_26random_access_iterator_tagE, symObjAddr: 0xC254, symBinAddr: 0x10000DDD4, symSize: 0x30 }
  - { offsetInCU: 0xC7C4, offset: 0xC7C4, size: 0x8, addend: 0x0, symName: __ZNSt3__16__copyB7v160006INS_17_ClassicAlgPolicyEP11CommandNodeS3_S3_EENS_4pairIT0_T2_EES5_T1_S6_, symObjAddr: 0xC284, symBinAddr: 0x10000DE04, symSize: 0x44 }
  - { offsetInCU: 0xC830, offset: 0xC830, size: 0x8, addend: 0x0, symName: __ZNSt3__123__dispatch_copy_or_moveB7v160006INS_17_ClassicAlgPolicyENS_11__copy_loopIS1_EENS_14__copy_trivialEP11CommandNodeS6_S6_EENS_4pairIT2_T4_EES8_T3_S9_, symObjAddr: 0xC2C8, symBinAddr: 0x10000DE48, symSize: 0x44 }
  - { offsetInCU: 0xC8AE, offset: 0xC8AE, size: 0x8, addend: 0x0, symName: __ZNSt3__121__unwrap_and_dispatchB7v160006INS_10__overloadINS_11__copy_loopINS_17_ClassicAlgPolicyEEENS_14__copy_trivialEEEP11CommandNodeS8_S8_Li0EEENS_4pairIT0_T2_EESA_T1_SB_, symObjAddr: 0xC30C, symBinAddr: 0x10000DE8C, symSize: 0xB4 }
  - { offsetInCU: 0xC93C, offset: 0xC93C, size: 0x8, addend: 0x0, symName: __ZNSt3__114__unwrap_rangeB7v160006IP11CommandNodeS2_EENS_4pairIT0_S4_EET_S6_, symObjAddr: 0xC3C0, symBinAddr: 0x10000DF40, symSize: 0x60 }
  - { offsetInCU: 0xCAB7, offset: 0xCAB7, size: 0x8, addend: 0x0, symName: __ZNSt3__113__unwrap_iterB7v160006IP11CommandNodeNS_18__unwrap_iter_implIS2_Lb1EEELi0EEEDTclsrT0_8__unwrapclsr3stdE7declvalIT_EEEES6_, symObjAddr: 0xC4A8, symBinAddr: 0x10000E028, symSize: 0x24 }
  - { offsetInCU: 0xCAFB, offset: 0xCAFB, size: 0x8, addend: 0x0, symName: __ZNSt3__19make_pairB7v160006IP11CommandNodeS2_EENS_4pairINS_18__unwrap_ref_decayIT_E4typeENS4_IT0_E4typeEEEOS5_OS8_, symObjAddr: 0xC4CC, symBinAddr: 0x10000E04C, symSize: 0x38 }
  - { offsetInCU: 0xCB4A, offset: 0xCB4A, size: 0x8, addend: 0x0, symName: __ZNSt3__114__rewrap_rangeB7v160006IP11CommandNodeS2_EET_S3_T0_, symObjAddr: 0xC504, symBinAddr: 0x10000E084, symSize: 0x2C }
  - { offsetInCU: 0xCB96, offset: 0xCB96, size: 0x8, addend: 0x0, symName: __ZNSt3__113__rewrap_iterB7v160006IP11CommandNodeS2_NS_18__unwrap_iter_implIS2_Lb1EEEEET_S5_T0_, symObjAddr: 0xC530, symBinAddr: 0x10000E0B0, symSize: 0x3C }
  - { offsetInCU: 0xCC3E, offset: 0xCC3E, size: 0x8, addend: 0x0, symName: __ZNSt3__130__uninitialized_allocator_copyB7v160006INS_9allocatorI11CommandNodeEEPS2_S4_S4_EET2_RT_T0_T1_S5_, symObjAddr: 0xC6B4, symBinAddr: 0x10000E234, symSize: 0xF4 }
  - { offsetInCU: 0xCCDC, offset: 0xCCDC, size: 0x8, addend: 0x0, symName: __ZNSt3__122__make_exception_guardB7v160006INS_29_AllocatorDestroyRangeReverseINS_9allocatorI11CommandNodeEEPS3_EEEENS_28__exception_guard_exceptionsIT_EES8_, symObjAddr: 0xC7A8, symBinAddr: 0x10000E328, symSize: 0x4C }
  - { offsetInCU: 0xCD12, offset: 0xCD12, size: 0x8, addend: 0x0, symName: __ZNSt3__119__allocator_destroyB7v160006INS_9allocatorI11CommandNodeEENS_16reverse_iteratorIPS2_EES6_EEvRT_T0_T1_, symObjAddr: 0xCA38, symBinAddr: 0x10000E5B8, symSize: 0x70 }
  - { offsetInCU: 0xCD75, offset: 0xCD75, size: 0x8, addend: 0x0, symName: __ZNSt3__130__uninitialized_allocator_copyB7v160006INS_9allocatorI5TokenEEPS2_S4_S4_EET2_RT_T0_T1_S5_, symObjAddr: 0xCD94, symBinAddr: 0x10000E914, symSize: 0xF4 }
  - { offsetInCU: 0xCE13, offset: 0xCE13, size: 0x8, addend: 0x0, symName: __ZNSt3__118__debug_db_erase_cB7v160006INS_6vectorI7tSyntaxNS_9allocatorIS2_EEEEEEvPT_, symObjAddr: 0xD074, symBinAddr: 0x10000EBF4, symSize: 0x10 }
  - { offsetInCU: 0xCE44, offset: 0xCE44, size: 0x8, addend: 0x0, symName: __ZNSt3__112__to_addressB7v160006I7tSyntaxEEPT_S3_, symObjAddr: 0xD190, symBinAddr: 0x10000ED10, symSize: 0x14 }
  - { offsetInCU: 0xCE79, offset: 0xCE79, size: 0x8, addend: 0x0, symName: __ZNSt3__118__debug_db_erase_cB7v160006INS_6vectorI12tSyntaxNode_NS_9allocatorIS2_EEEEEEvPT_, symObjAddr: 0xD4F8, symBinAddr: 0x10000F078, symSize: 0x10 }
  - { offsetInCU: 0xCEAA, offset: 0xCEAA, size: 0x8, addend: 0x0, symName: __ZNSt3__112__to_addressB7v160006I12tSyntaxNode_EEPT_S3_, symObjAddr: 0xD614, symBinAddr: 0x10000F194, symSize: 0x14 }
  - { offsetInCU: 0xCEDF, offset: 0xCEDF, size: 0x8, addend: 0x0, symName: __ZNSt3__122__make_exception_guardB7v160006INS_6vectorI11CommandNodeNS_9allocatorIS2_EEE16__destroy_vectorEEENS_28__exception_guard_exceptionsIT_EES8_, symObjAddr: 0xDA00, symBinAddr: 0x10000F580, symSize: 0x40 }
  - { offsetInCU: 0xD406, offset: 0xD406, size: 0x8, addend: 0x0, symName: __ZSt28__throw_bad_array_new_lengthB7v160006v, symObjAddr: 0x6010, symBinAddr: 0x100007B90, symSize: 0x34 }
  - { offsetInCU: 0xDBAC, offset: 0xDBAC, size: 0x8, addend: 0x0, symName: __ZNSt3__16vectorI11CommandNodeNS_9allocatorIS1_EEE26__swap_out_circular_bufferERNS_14__split_bufferIS1_RS3_EE, symObjAddr: 0x7274, symBinAddr: 0x100008DF4, symSize: 0x118 }
  - { offsetInCU: 0xDE30, offset: 0xDE30, size: 0x8, addend: 0x0, symName: __ZNSt3__16vectorI9tVarValueNS_9allocatorIS1_EEE26__swap_out_circular_bufferERNS_14__split_bufferIS1_RS3_EE, symObjAddr: 0xA884, symBinAddr: 0x10000C404, symSize: 0x118 }
  - { offsetInCU: 0x1026A, offset: 0x1026A, size: 0x8, addend: 0x0, symName: __Z24IsElementOKforExpressionii, symObjAddr: 0x0, symBinAddr: 0x100001B80, symSize: 0xE0 }
  - { offsetInCU: 0x102A4, offset: 0x102A4, size: 0x8, addend: 0x0, symName: __Z22IsTokenOKForExpressionRK5Token, symObjAddr: 0xE0, symBinAddr: 0x100001C60, symSize: 0x34 }
  - { offsetInCU: 0x102D0, offset: 0x102D0, size: 0x8, addend: 0x0, symName: __Z28IsCommandNodeOKForExpressionRK11CommandNode, symObjAddr: 0x114, symBinAddr: 0x100001C94, symSize: 0x34 }
  - { offsetInCU: 0x102FC, offset: 0x102FC, size: 0x8, addend: 0x0, symName: __Z28TokensToExpressionCollectionNSt3__16vectorI5TokenNS_9allocatorIS1_EEEERNS0_I11CommandNodeNS2_IS5_EEEE, symObjAddr: 0x148, symBinAddr: 0x100001CC8, symSize: 0x3E0 }
  - { offsetInCU: 0x103A9, offset: 0x103A9, size: 0x8, addend: 0x0, symName: __ZNSt3__16vectorI11CommandNodeNS_9allocatorIS1_EEE5clearB7v160006Ev, symObjAddr: 0x528, symBinAddr: 0x1000020A8, symSize: 0x54 }
  - { offsetInCU: 0x103DC, offset: 0x103DC, size: 0x8, addend: 0x0, symName: __ZNKSt3__16vectorI5TokenNS_9allocatorIS1_EEE4sizeB7v160006Ev, symObjAddr: 0x57C, symBinAddr: 0x1000020FC, symSize: 0x28 }
  - { offsetInCU: 0x10400, offset: 0x10400, size: 0x8, addend: 0x0, symName: __ZNSt3__16vectorI5TokenNS_9allocatorIS1_EEEixB7v160006Em, symObjAddr: 0x5A4, symBinAddr: 0x100002124, symSize: 0x24 }
  - { offsetInCU: 0x10435, offset: 0x10435, size: 0x8, addend: 0x0, symName: __ZN11CommandNodeC1Ev, symObjAddr: 0x5C8, symBinAddr: 0x100002148, symSize: 0x2C }
  - { offsetInCU: 0x10460, offset: 0x10460, size: 0x8, addend: 0x0, symName: __ZN11CommandNode32InitialiseAsExpressionWithTokensENSt3__16vectorI5TokenNS0_9allocatorIS2_EEEE, symObjAddr: 0x5F4, symBinAddr: 0x100002174, symSize: 0x6E8 }
  - { offsetInCU: 0x10580, offset: 0x10580, size: 0x8, addend: 0x0, symName: __ZNSt3__16vectorI5TokenNS_9allocatorIS1_EEE5beginB7v160006Ev, symObjAddr: 0xCDC, symBinAddr: 0x10000285C, symSize: 0x30 }
  - { offsetInCU: 0x105A6, offset: 0x105A6, size: 0x8, addend: 0x0, symName: __ZNKSt3__111__wrap_iterIP5TokenEplB7v160006El, symObjAddr: 0xD0C, symBinAddr: 0x10000288C, symSize: 0x3C }
  - { offsetInCU: 0x105E7, offset: 0x105E7, size: 0x8, addend: 0x0, symName: __ZNSt3__16vectorI5TokenNS_9allocatorIS1_EEEC1INS_11__wrap_iterIPS1_EELi0EEET_S9_, symObjAddr: 0xD48, symBinAddr: 0x1000028C8, symSize: 0x3C }
  - { offsetInCU: 0x1063E, offset: 0x1063E, size: 0x8, addend: 0x0, symName: __ZNSt3__16vectorI5TokenNS_9allocatorIS1_EEED1B7v160006Ev, symObjAddr: 0xD84, symBinAddr: 0x100002904, symSize: 0x2C }
  - { offsetInCU: 0x10666, offset: 0x10666, size: 0x8, addend: 0x0, symName: __ZNSt3__16vectorI11CommandNodeNS_9allocatorIS1_EEE9push_backB7v160006ERKS1_, symObjAddr: 0xDB0, symBinAddr: 0x100002930, symSize: 0x6C }
  - { offsetInCU: 0x1069B, offset: 0x1069B, size: 0x8, addend: 0x0, symName: __ZN11CommandNodeD1Ev, symObjAddr: 0xE1C, symBinAddr: 0x10000299C, symSize: 0x2C }
  - { offsetInCU: 0x106C5, offset: 0x106C5, size: 0x8, addend: 0x0, symName: __ZN11CommandNodeC2Ev, symObjAddr: 0xE48, symBinAddr: 0x1000029C8, symSize: 0x44 }
  - { offsetInCU: 0x106F0, offset: 0x106F0, size: 0x8, addend: 0x0, symName: __ZNSt3__112basic_stringIcNS_11char_traitsIcEENS_9allocatorIcEEEC1B7v160006Ev, symObjAddr: 0xE8C, symBinAddr: 0x100002A0C, symSize: 0x2C }
  - { offsetInCU: 0x10719, offset: 0x10719, size: 0x8, addend: 0x0, symName: __ZNSt3__16vectorI11CommandNodeNS_9allocatorIS1_EEEC1B7v160006Ev, symObjAddr: 0xEB8, symBinAddr: 0x100002A38, symSize: 0x2C }
  - { offsetInCU: 0x10741, offset: 0x10741, size: 0x8, addend: 0x0, symName: __ZN11CommandNodeD2Ev, symObjAddr: 0xEE4, symBinAddr: 0x100002A64, symSize: 0x3C }
  - { offsetInCU: 0x1076C, offset: 0x1076C, size: 0x8, addend: 0x0, symName: __ZNSt3__16vectorI11CommandNodeNS_9allocatorIS1_EEED1B7v160006Ev, symObjAddr: 0xF20, symBinAddr: 0x100002AA0, symSize: 0x2C }
  - { offsetInCU: 0x10795, offset: 0x10795, size: 0x8, addend: 0x0, symName: __ZN11CommandNode10PrecedenceEv, symObjAddr: 0xF4C, symBinAddr: 0x100002ACC, symSize: 0xC0 }
  - { offsetInCU: 0x107BC, offset: 0x107BC, size: 0x8, addend: 0x0, symName: __ZN11CommandNode8EvaluateERiRfRNSt3__112basic_stringIcNS2_11char_traitsIcEENS2_9allocatorIcEEEE, symObjAddr: 0x10E0, symBinAddr: 0x100002C60, symSize: 0x10EC }
  - { offsetInCU: 0x10A2F, offset: 0x10A2F, size: 0x8, addend: 0x0, symName: __ZNSt3__112basic_stringIcNS_11char_traitsIcEENS_9allocatorIcEEEaSB7v160006EPKc, symObjAddr: 0x2384, symBinAddr: 0x100003F04, symSize: 0x2C }
  - { offsetInCU: 0x10A62, offset: 0x10A62, size: 0x8, addend: 0x0, symName: __ZNSt3__16vectorI11CommandNodeNS_9allocatorIS1_EEE5beginB7v160006Ev, symObjAddr: 0x23B0, symBinAddr: 0x100003F30, symSize: 0x30 }
  - { offsetInCU: 0x10A88, offset: 0x10A88, size: 0x8, addend: 0x0, symName: __ZNSt3__16vectorI11CommandNodeNS_9allocatorIS1_EEE3endB7v160006Ev, symObjAddr: 0x23E0, symBinAddr: 0x100003F60, symSize: 0x30 }
  - { offsetInCU: 0x10AAE, offset: 0x10AAE, size: 0x8, addend: 0x0, symName: __ZNKSt3__111__wrap_iterIP11CommandNodeEdeB7v160006Ev, symObjAddr: 0x2444, symBinAddr: 0x100003FC4, symSize: 0x18 }
  - { offsetInCU: 0x10AD2, offset: 0x10AD2, size: 0x8, addend: 0x0, symName: __ZNKSt3__16vectorI11CommandNodeNS_9allocatorIS1_EEE4sizeB7v160006Ev, symObjAddr: 0x245C, symBinAddr: 0x100003FDC, symSize: 0x28 }
  - { offsetInCU: 0x10AF6, offset: 0x10AF6, size: 0x8, addend: 0x0, symName: __ZNSt3__16vectorI11CommandNodeNS_9allocatorIS1_EEE4backB7v160006Ev, symObjAddr: 0x2484, symBinAddr: 0x100004004, symSize: 0x1C }
  - { offsetInCU: 0x10B1A, offset: 0x10B1A, size: 0x8, addend: 0x0, symName: __ZNSt3__16vectorI11CommandNodeNS_9allocatorIS1_EEE8pop_backEv, symObjAddr: 0x24A0, symBinAddr: 0x100004020, symSize: 0x2C }
  - { offsetInCU: 0x10B40, offset: 0x10B40, size: 0x8, addend: 0x0, symName: __ZNSt3__111__wrap_iterIP11CommandNodeEppB7v160006Ev, symObjAddr: 0x24CC, symBinAddr: 0x10000404C, symSize: 0x20 }
  - { offsetInCU: 0x10B6A, offset: 0x10B6A, size: 0x8, addend: 0x0, symName: __ZNSt3__112basic_stringIcNS_11char_traitsIcEENS_9allocatorIcEEEC1B7v160006IDnEEPKc, symObjAddr: 0x24EC, symBinAddr: 0x10000406C, symSize: 0x34 }
  - { offsetInCU: 0x10BA6, offset: 0x10BA6, size: 0x8, addend: 0x0, symName: __ZNSt3__16vectorI11CommandNodeNS_9allocatorIS1_EEEixB7v160006Em, symObjAddr: 0x2654, symBinAddr: 0x1000041D4, symSize: 0x2C }
  - { offsetInCU: 0x10BDB, offset: 0x10BDB, size: 0x8, addend: 0x0, symName: __ZNSt3__112basic_stringIcNS_11char_traitsIcEENS_9allocatorIcEEEaSB7v160006EOS5_, symObjAddr: 0x2680, symBinAddr: 0x100004200, symSize: 0x34 }
  - { offsetInCU: 0x10C0E, offset: 0x10C0E, size: 0x8, addend: 0x0, symName: __ZNKSt3__112basic_stringIcNS_11char_traitsIcEENS_9allocatorIcEEE5c_strB7v160006Ev, symObjAddr: 0x27D0, symBinAddr: 0x100004350, symSize: 0x24 }
  - { offsetInCU: 0x10C33, offset: 0x10C33, size: 0x8, addend: 0x0, symName: __ZNSt3__16vectorI9tVarValueNS_9allocatorIS1_EEEC1B7v160006Ev, symObjAddr: 0x27F4, symBinAddr: 0x100004374, symSize: 0x2C }
  - { offsetInCU: 0x10C60, offset: 0x10C60, size: 0x8, addend: 0x0, symName: __ZN9tVarValueC1Ev, symObjAddr: 0x2820, symBinAddr: 0x1000043A0, symSize: 0x2C }
  - { offsetInCU: 0x10C8A, offset: 0x10C8A, size: 0x8, addend: 0x0, symName: __ZNSt3__16vectorI9tVarValueNS_9allocatorIS1_EEE9push_backB7v160006ERKS1_, symObjAddr: 0x284C, symBinAddr: 0x1000043CC, symSize: 0x6C }
  - { offsetInCU: 0x10CBF, offset: 0x10CBF, size: 0x8, addend: 0x0, symName: __ZNSt3__16vectorI9tVarValueNS_9allocatorIS1_EEE4backB7v160006Ev, symObjAddr: 0x28B8, symBinAddr: 0x100004438, symSize: 0x1C }
  - { offsetInCU: 0x10CE4, offset: 0x10CE4, size: 0x8, addend: 0x0, symName: __ZN9tVarValueaSERKS_, symObjAddr: 0x28D4, symBinAddr: 0x100004454, symSize: 0x54 }
  - { offsetInCU: 0x10D13, offset: 0x10D13, size: 0x8, addend: 0x0, symName: __ZNSt3__16vectorI9tVarValueNS_9allocatorIS1_EEE8pop_backEv, symObjAddr: 0x2928, symBinAddr: 0x1000044A8, symSize: 0x2C }
  - { offsetInCU: 0x10D39, offset: 0x10D39, size: 0x8, addend: 0x0, symName: __ZNKSt3__16vectorI9tVarValueNS_9allocatorIS1_EEE4sizeB7v160006Ev, symObjAddr: 0x2954, symBinAddr: 0x1000044D4, symSize: 0x28 }
  - { offsetInCU: 0x10D5D, offset: 0x10D5D, size: 0x8, addend: 0x0, symName: __Z3powB7v160006ff, symObjAddr: 0x297C, symBinAddr: 0x1000044FC, symSize: 0x2C }
  - { offsetInCU: 0x10D9A, offset: 0x10D9A, size: 0x8, addend: 0x0, symName: __ZN9tVarValueD1Ev, symObjAddr: 0x29A8, symBinAddr: 0x100004528, symSize: 0x2C }
  - { offsetInCU: 0x10DC4, offset: 0x10DC4, size: 0x8, addend: 0x0, symName: __ZNKSt3__112basic_stringIcNS_11char_traitsIcEENS_9allocatorIcEEE7compareB7v160006ERKS5_, symObjAddr: 0x29D4, symBinAddr: 0x100004554, symSize: 0x4C }
  - { offsetInCU: 0x10DF9, offset: 0x10DF9, size: 0x8, addend: 0x0, symName: __ZNSt3__16vectorI9tVarValueNS_9allocatorIS1_EEEixB7v160006Em, symObjAddr: 0x2A20, symBinAddr: 0x1000045A0, symSize: 0x2C }
  - { offsetInCU: 0x10E2F, offset: 0x10E2F, size: 0x8, addend: 0x0, symName: __ZNSt3__16vectorI9tVarValueNS_9allocatorIS1_EEED1B7v160006Ev, symObjAddr: 0x2A4C, symBinAddr: 0x1000045CC, symSize: 0x2C }
  - { offsetInCU: 0x10E58, offset: 0x10E58, size: 0x8, addend: 0x0, symName: __ZN11CommandNode25InitialiseFromCommandNodeERS_, symObjAddr: 0x2A78, symBinAddr: 0x1000045F8, symSize: 0x68 }
  - { offsetInCU: 0x10E8D, offset: 0x10E8D, size: 0x8, addend: 0x0, symName: __ZNSt3__16vectorI11CommandNodeNS_9allocatorIS1_EEEaSB7v160006ERKS4_, symObjAddr: 0x2AE0, symBinAddr: 0x100004660, symSize: 0x68 }
  - { offsetInCU: 0x10EC3, offset: 0x10EC3, size: 0x8, addend: 0x0, symName: __ZN11CommandNode15BasicInitialiseEiiNSt3__112basic_stringIcNS0_11char_traitsIcEENS0_9allocatorIcEEEE, symObjAddr: 0x2B48, symBinAddr: 0x1000046C8, symSize: 0x54 }
  - { offsetInCU: 0x10F18, offset: 0x10F18, size: 0x8, addend: 0x0, symName: __ZN11CommandNode19InitialiseFromTokenER5Token, symObjAddr: 0x2B9C, symBinAddr: 0x10000471C, symSize: 0x60 }
  - { offsetInCU: 0x10F4E, offset: 0x10F4E, size: 0x8, addend: 0x0, symName: __ZN11CommandNode23InitialiseWithArgumentsERK5TokenRNSt3__16vectorIS_NS3_9allocatorIS_EEEE, symObjAddr: 0x2BFC, symBinAddr: 0x10000477C, symSize: 0x68 }
  - { offsetInCU: 0x10F93, offset: 0x10F93, size: 0x8, addend: 0x0, symName: __ZN11CommandNode20InitialiseExpressionERNSt3__16vectorIS_NS0_9allocatorIS_EEEE, symObjAddr: 0x2C64, symBinAddr: 0x1000047E4, symSize: 0x60 }
  - { offsetInCU: 0x10FC9, offset: 0x10FC9, size: 0x8, addend: 0x0, symName: __ZN11CommandNode17GetDetailedStringEi, symObjAddr: 0x2CC4, symBinAddr: 0x100004844, symSize: 0x5FC }
  - { offsetInCU: 0x1104A, offset: 0x1104A, size: 0x8, addend: 0x0, symName: __ZN11CommandNode9GetStringEv, symObjAddr: 0x33C4, symBinAddr: 0x100004F44, symSize: 0x2A0 }
  - { offsetInCU: 0x110A0, offset: 0x110A0, size: 0x8, addend: 0x0, symName: __ZN11CommandNode9NodeCountEv, symObjAddr: 0x3664, symBinAddr: 0x1000051E4, symSize: 0x9C }
  - { offsetInCU: 0x110F4, offset: 0x110F4, size: 0x8, addend: 0x0, symName: __ZNSt3__16vectorI5TokenNS_9allocatorIS1_EEEC1ERKS4_, symObjAddr: 0x3700, symBinAddr: 0x100005280, symSize: 0x34 }
  - { offsetInCU: 0x11216, offset: 0x11216, size: 0x8, addend: 0x0, symName: __ZN7CommandD2Ev, symObjAddr: 0x3734, symBinAddr: 0x1000052B4, symSize: 0x3C }
  - { offsetInCU: 0x11242, offset: 0x11242, size: 0x8, addend: 0x0, symName: __ZN7CommandD1Ev, symObjAddr: 0x3770, symBinAddr: 0x1000052F0, symSize: 0x2C }
  - { offsetInCU: 0x1126E, offset: 0x1126E, size: 0x8, addend: 0x0, symName: __ZN7Command8LexerizeERNSt3__16vectorI5TokenNS0_9allocatorIS2_EEEERNS1_I11CommandNodeNS3_IS7_EEEE, symObjAddr: 0x379C, symBinAddr: 0x10000531C, symSize: 0x46C }
  - { offsetInCU: 0x11347, offset: 0x11347, size: 0x8, addend: 0x0, symName: __ZNKSt3__111__wrap_iterIP5TokenEmiB7v160006El, symObjAddr: 0x3C08, symBinAddr: 0x100005788, symSize: 0x3C }
  - { offsetInCU: 0x1137A, offset: 0x1137A, size: 0x8, addend: 0x0, symName: __ZN7Command14FindSyntaxRuleERNSt3__16vectorI11CommandNodeNS0_9allocatorIS2_EEEE, symObjAddr: 0x3C44, symBinAddr: 0x1000057C4, symSize: 0xA7C }
  - { offsetInCU: 0x114F7, offset: 0x114F7, size: 0x8, addend: 0x0, symName: __ZNKSt3__16vectorI7tSyntaxNS_9allocatorIS1_EEE4sizeB7v160006Ev, symObjAddr: 0x46C0, symBinAddr: 0x100006240, symSize: 0x28 }
  - { offsetInCU: 0x1151C, offset: 0x1151C, size: 0x8, addend: 0x0, symName: __ZNSt3__16vectorI11CommandNodeNS_9allocatorIS1_EEEC1ERKS4_, symObjAddr: 0x46E8, symBinAddr: 0x100006268, symSize: 0x34 }
  - { offsetInCU: 0x11554, offset: 0x11554, size: 0x8, addend: 0x0, symName: __ZNSt3__16vectorI7tSyntaxNS_9allocatorIS1_EEEixB7v160006Em, symObjAddr: 0x471C, symBinAddr: 0x10000629C, symSize: 0x24 }
  - { offsetInCU: 0x11589, offset: 0x11589, size: 0x8, addend: 0x0, symName: __ZNKSt3__16vectorI12tSyntaxNode_NS_9allocatorIS1_EEE4sizeB7v160006Ev, symObjAddr: 0x4740, symBinAddr: 0x1000062C0, symSize: 0x28 }
  - { offsetInCU: 0x115AD, offset: 0x115AD, size: 0x8, addend: 0x0, symName: __ZNSt3__16vectorI12tSyntaxNode_NS_9allocatorIS1_EEEixB7v160006Em, symObjAddr: 0x4768, symBinAddr: 0x1000062E8, symSize: 0x24 }
  - { offsetInCU: 0x115E3, offset: 0x115E3, size: 0x8, addend: 0x0, symName: __ZNSt3__16vectorI7tSyntaxNS_9allocatorIS1_EEED1B7v160006Ev, symObjAddr: 0x478C, symBinAddr: 0x10000630C, symSize: 0x2C }
  - { offsetInCU: 0x1160C, offset: 0x1160C, size: 0x8, addend: 0x0, symName: __ZN7Command10InitialiseERNSt3__16vectorI5TokenNS0_9allocatorIS2_EEEE, symObjAddr: 0x47B8, symBinAddr: 0x100006338, symSize: 0x108 }
  - { offsetInCU: 0x11660, offset: 0x11660, size: 0x8, addend: 0x0, symName: __ZN7Command9GetStringEv, symObjAddr: 0x48C0, symBinAddr: 0x100006440, symSize: 0x1B8 }
  - { offsetInCU: 0x116AC, offset: 0x116AC, size: 0x8, addend: 0x0, symName: __ZN7Command9NodeCountEv, symObjAddr: 0x4A78, symBinAddr: 0x1000065F8, symSize: 0x9C }
  - { offsetInCU: 0x11700, offset: 0x11700, size: 0x8, addend: 0x0, symName: __ZN7Command17GetDetailedStringEv, symObjAddr: 0x4B14, symBinAddr: 0x100006694, symSize: 0x60C }
  - { offsetInCU: 0x1174C, offset: 0x1174C, size: 0x8, addend: 0x0, symName: __ZNKSt3__111__wrap_iterIP11CommandNodeE4baseB7v160006Ev, symObjAddr: 0x51AC, symBinAddr: 0x100006D2C, symSize: 0x18 }
  - { offsetInCU: 0x11770, offset: 0x11770, size: 0x8, addend: 0x0, symName: __ZN9tVarValueC2Ev, symObjAddr: 0x51C4, symBinAddr: 0x100006D44, symSize: 0x30 }
  - { offsetInCU: 0x1179A, offset: 0x1179A, size: 0x8, addend: 0x0, symName: __ZN9tVarValueD2Ev, symObjAddr: 0x51F4, symBinAddr: 0x100006D74, symSize: 0x30 }
  - { offsetInCU: 0x117C4, offset: 0x117C4, size: 0x8, addend: 0x0, symName: __ZNSt3__16vectorI11CommandNodeNS_9allocatorIS1_EEE7__clearB7v160006Ev, symObjAddr: 0x5224, symBinAddr: 0x100006DA4, symSize: 0x28 }
  - { offsetInCU: 0x117E8, offset: 0x117E8, size: 0x8, addend: 0x0, symName: __ZNKSt3__16vectorI11CommandNodeNS_9allocatorIS1_EEE17__annotate_shrinkB7v160006Em, symObjAddr: 0x524C, symBinAddr: 0x100006DCC, symSize: 0xD0 }
  - { offsetInCU: 0x1181B, offset: 0x1181B, size: 0x8, addend: 0x0, symName: __ZNSt3__16vectorI11CommandNodeNS_9allocatorIS1_EEE22__base_destruct_at_endB7v160006EPS1_, symObjAddr: 0x5338, symBinAddr: 0x100006EB8, symSize: 0x8C }
  - { offsetInCU: 0x1185E, offset: 0x1185E, size: 0x8, addend: 0x0, symName: __ZNSt3__116allocator_traitsINS_9allocatorI11CommandNodeEEE7destroyB7v160006IS2_vEEvRS3_PT_, symObjAddr: 0x53C4, symBinAddr: 0x100006F44, symSize: 0x2C }
  - { offsetInCU: 0x1189A, offset: 0x1189A, size: 0x8, addend: 0x0, symName: __ZNSt3__16vectorI11CommandNodeNS_9allocatorIS1_EEE7__allocB7v160006Ev, symObjAddr: 0x53F0, symBinAddr: 0x100006F70, symSize: 0x28 }
  - { offsetInCU: 0x118BE, offset: 0x118BE, size: 0x8, addend: 0x0, symName: __ZNSt3__19allocatorI11CommandNodeE7destroyB7v160006EPS1_, symObjAddr: 0x542C, symBinAddr: 0x100006FAC, symSize: 0x28 }
  - { offsetInCU: 0x118F0, offset: 0x118F0, size: 0x8, addend: 0x0, symName: __ZNSt3__117__compressed_pairIP11CommandNodeNS_9allocatorIS1_EEE6secondB7v160006Ev, symObjAddr: 0x5454, symBinAddr: 0x100006FD4, symSize: 0x24 }
  - { offsetInCU: 0x11914, offset: 0x11914, size: 0x8, addend: 0x0, symName: __ZNSt3__122__compressed_pair_elemINS_9allocatorI11CommandNodeEELi1ELb1EE5__getB7v160006Ev, symObjAddr: 0x5478, symBinAddr: 0x100006FF8, symSize: 0x14 }
  - { offsetInCU: 0x11938, offset: 0x11938, size: 0x8, addend: 0x0, symName: __ZNKSt3__16vectorI11CommandNodeNS_9allocatorIS1_EEE31__annotate_contiguous_containerB7v160006EPKvS6_S6_S6_, symObjAddr: 0x548C, symBinAddr: 0x10000700C, symSize: 0x20 }
  - { offsetInCU: 0x1198C, offset: 0x1198C, size: 0x8, addend: 0x0, symName: __ZNKSt3__16vectorI11CommandNodeNS_9allocatorIS1_EEE4dataB7v160006Ev, symObjAddr: 0x54AC, symBinAddr: 0x10000702C, symSize: 0x28 }
  - { offsetInCU: 0x119B0, offset: 0x119B0, size: 0x8, addend: 0x0, symName: __ZNKSt3__16vectorI11CommandNodeNS_9allocatorIS1_EEE8capacityB7v160006Ev, symObjAddr: 0x54D4, symBinAddr: 0x100007054, symSize: 0x40 }
  - { offsetInCU: 0x119D4, offset: 0x119D4, size: 0x8, addend: 0x0, symName: __ZNKSt3__16vectorI11CommandNodeNS_9allocatorIS1_EEE9__end_capB7v160006Ev, symObjAddr: 0x5514, symBinAddr: 0x100007094, symSize: 0x28 }
  - { offsetInCU: 0x119F8, offset: 0x119F8, size: 0x8, addend: 0x0, symName: __ZNKSt3__117__compressed_pairIP11CommandNodeNS_9allocatorIS1_EEE5firstB7v160006Ev, symObjAddr: 0x553C, symBinAddr: 0x1000070BC, symSize: 0x24 }
  - { offsetInCU: 0x11A1C, offset: 0x11A1C, size: 0x8, addend: 0x0, symName: __ZNKSt3__122__compressed_pair_elemIP11CommandNodeLi0ELb0EE5__getB7v160006Ev, symObjAddr: 0x5560, symBinAddr: 0x1000070E0, symSize: 0x14 }
  - { offsetInCU: 0x11A40, offset: 0x11A40, size: 0x8, addend: 0x0, symName: __ZNSt3__16vectorI5TokenNS_9allocatorIS1_EEE11__make_iterB7v160006EPS1_, symObjAddr: 0x5574, symBinAddr: 0x1000070F4, symSize: 0x34 }
  - { offsetInCU: 0x11A74, offset: 0x11A74, size: 0x8, addend: 0x0, symName: __ZNSt3__111__wrap_iterIP5TokenEC1B7v160006EPKvS2_, symObjAddr: 0x55A8, symBinAddr: 0x100007128, symSize: 0x3C }
  - { offsetInCU: 0x11AB9, offset: 0x11AB9, size: 0x8, addend: 0x0, symName: __ZNSt3__111__wrap_iterIP5TokenEC2B7v160006EPKvS2_, symObjAddr: 0x55E4, symBinAddr: 0x100007164, symSize: 0x24 }
  - { offsetInCU: 0x11AFD, offset: 0x11AFD, size: 0x8, addend: 0x0, symName: __ZNSt3__111__wrap_iterIP5TokenEpLB7v160006El, symObjAddr: 0x5608, symBinAddr: 0x100007188, symSize: 0x28 }
  - { offsetInCU: 0x11B30, offset: 0x11B30, size: 0x8, addend: 0x0, symName: __ZNSt3__16vectorI5TokenNS_9allocatorIS1_EEEC2INS_11__wrap_iterIPS1_EELi0EEET_S9_, symObjAddr: 0x5630, symBinAddr: 0x1000071B0, symSize: 0x128 }
  - { offsetInCU: 0x11BB6, offset: 0x11BB6, size: 0x8, addend: 0x0, symName: __ZNSt3__117__compressed_pairIP5TokenNS_9allocatorIS1_EEEC1B7v160006IDnNS_18__default_init_tagEEEOT_OT0_, symObjAddr: 0x5758, symBinAddr: 0x1000072D8, symSize: 0x3C }
  - { offsetInCU: 0x11C0D, offset: 0x11C0D, size: 0x8, addend: 0x0, symName: __ZNSt3__16vectorI5TokenNS_9allocatorIS1_EEE16__destroy_vectorC1ERS4_, symObjAddr: 0x57D4, symBinAddr: 0x100007354, symSize: 0x34 }
  - { offsetInCU: 0x11C44, offset: 0x11C44, size: 0x8, addend: 0x0, symName: __ZNSt3__16vectorI5TokenNS_9allocatorIS1_EEE11__vallocateB7v160006Em, symObjAddr: 0x5854, symBinAddr: 0x1000073D4, symSize: 0xAC }
  - { offsetInCU: 0x11C86, offset: 0x11C86, size: 0x8, addend: 0x0, symName: __ZNSt3__16vectorI5TokenNS_9allocatorIS1_EEE18__construct_at_endINS_11__wrap_iterIPS1_EELi0EEEvT_S9_m, symObjAddr: 0x5900, symBinAddr: 0x100007480, symSize: 0x9C }
  - { offsetInCU: 0x11CF7, offset: 0x11CF7, size: 0x8, addend: 0x0, symName: __ZNSt3__128__exception_guard_exceptionsINS_6vectorI5TokenNS_9allocatorIS2_EEE16__destroy_vectorEE10__completeB7v160006Ev, symObjAddr: 0x599C, symBinAddr: 0x10000751C, symSize: 0x1C }
  - { offsetInCU: 0x11D1C, offset: 0x11D1C, size: 0x8, addend: 0x0, symName: __ZNSt3__128__exception_guard_exceptionsINS_6vectorI5TokenNS_9allocatorIS2_EEE16__destroy_vectorEED1B7v160006Ev, symObjAddr: 0x59B8, symBinAddr: 0x100007538, symSize: 0x2C }
  - { offsetInCU: 0x11D45, offset: 0x11D45, size: 0x8, addend: 0x0, symName: __ZNSt3__117__compressed_pairIP5TokenNS_9allocatorIS1_EEEC2B7v160006IDnNS_18__default_init_tagEEEOT_OT0_, symObjAddr: 0x59E4, symBinAddr: 0x100007564, symSize: 0x40 }
  - { offsetInCU: 0x11D9C, offset: 0x11D9C, size: 0x8, addend: 0x0, symName: __ZNSt3__122__compressed_pair_elemIP5TokenLi0ELb0EEC2B7v160006IDnvEEOT_, symObjAddr: 0x5A24, symBinAddr: 0x1000075A4, symSize: 0x1C }
  - { offsetInCU: 0x11DDD, offset: 0x11DDD, size: 0x8, addend: 0x0, symName: __ZNSt3__122__compressed_pair_elemINS_9allocatorI5TokenEELi1ELb1EEC2B7v160006ENS_18__default_init_tagE, symObjAddr: 0x5A40, symBinAddr: 0x1000075C0, symSize: 0x2C }
  - { offsetInCU: 0x11E10, offset: 0x11E10, size: 0x8, addend: 0x0, symName: __ZNSt3__19allocatorI5TokenEC2B7v160006Ev, symObjAddr: 0x5A6C, symBinAddr: 0x1000075EC, symSize: 0x2C }
  - { offsetInCU: 0x11E39, offset: 0x11E39, size: 0x8, addend: 0x0, symName: __ZNSt3__116__non_trivial_ifILb1ENS_9allocatorI5TokenEEEC2B7v160006Ev, symObjAddr: 0x5A98, symBinAddr: 0x100007618, symSize: 0x14 }
  - { offsetInCU: 0x11E62, offset: 0x11E62, size: 0x8, addend: 0x0, symName: __ZNSt3__128__exception_guard_exceptionsINS_6vectorI5TokenNS_9allocatorIS2_EEE16__destroy_vectorEEC1B7v160006ES6_, symObjAddr: 0x5AAC, symBinAddr: 0x10000762C, symSize: 0x34 }
  - { offsetInCU: 0x11E99, offset: 0x11E99, size: 0x8, addend: 0x0, symName: __ZNSt3__128__exception_guard_exceptionsINS_6vectorI5TokenNS_9allocatorIS2_EEE16__destroy_vectorEEC2B7v160006ES6_, symObjAddr: 0x5AE0, symBinAddr: 0x100007660, symSize: 0x24 }
  - { offsetInCU: 0x11ED0, offset: 0x11ED0, size: 0x8, addend: 0x0, symName: __ZNSt3__16vectorI5TokenNS_9allocatorIS1_EEE16__destroy_vectorC2ERS4_, symObjAddr: 0x5B04, symBinAddr: 0x100007684, symSize: 0x20 }
  - { offsetInCU: 0x11F07, offset: 0x11F07, size: 0x8, addend: 0x0, symName: __ZNKSt3__111__wrap_iterIP5TokenE4baseB7v160006Ev, symObjAddr: 0x5B9C, symBinAddr: 0x10000771C, symSize: 0x18 }
  - { offsetInCU: 0x11F2B, offset: 0x11F2B, size: 0x8, addend: 0x0, symName: __ZNKSt3__16vectorI5TokenNS_9allocatorIS1_EEE8max_sizeEv, symObjAddr: 0x5BB4, symBinAddr: 0x100007734, symSize: 0x60 }
  - { offsetInCU: 0x11F51, offset: 0x11F51, size: 0x8, addend: 0x0, symName: __ZNKSt3__16vectorI5TokenNS_9allocatorIS1_EEE20__throw_length_errorB7v160006Ev, symObjAddr: 0x5C14, symBinAddr: 0x100007794, symSize: 0x1C }
  - { offsetInCU: 0x11F75, offset: 0x11F75, size: 0x8, addend: 0x0, symName: __ZNSt3__16vectorI5TokenNS_9allocatorIS1_EEE7__allocB7v160006Ev, symObjAddr: 0x5C70, symBinAddr: 0x1000077F0, symSize: 0x28 }
  - { offsetInCU: 0x11F99, offset: 0x11F99, size: 0x8, addend: 0x0, symName: __ZNSt3__16vectorI5TokenNS_9allocatorIS1_EEE9__end_capB7v160006Ev, symObjAddr: 0x5C98, symBinAddr: 0x100007818, symSize: 0x28 }
  - { offsetInCU: 0x11FBD, offset: 0x11FBD, size: 0x8, addend: 0x0, symName: __ZNKSt3__16vectorI5TokenNS_9allocatorIS1_EEE14__annotate_newB7v160006Em, symObjAddr: 0x5CC0, symBinAddr: 0x100007840, symSize: 0xAC }
  - { offsetInCU: 0x11FFB, offset: 0x11FFB, size: 0x8, addend: 0x0, symName: __ZNSt3__116allocator_traitsINS_9allocatorI5TokenEEE8max_sizeB7v160006IS3_vEEmRKS3_, symObjAddr: 0x5D98, symBinAddr: 0x100007918, symSize: 0x24 }
  - { offsetInCU: 0x12028, offset: 0x12028, size: 0x8, addend: 0x0, symName: __ZNKSt3__16vectorI5TokenNS_9allocatorIS1_EEE7__allocB7v160006Ev, symObjAddr: 0x5DBC, symBinAddr: 0x10000793C, symSize: 0x28 }
  - { offsetInCU: 0x1204D, offset: 0x1204D, size: 0x8, addend: 0x0, symName: __ZNSt3__114numeric_limitsIlE3maxB7v160006Ev, symObjAddr: 0x5DE4, symBinAddr: 0x100007964, symSize: 0x14 }
  - { offsetInCU: 0x12074, offset: 0x12074, size: 0x8, addend: 0x0, symName: __ZNKSt3__16__lessImmEclB7v160006ERKmS3_, symObjAddr: 0x5E4C, symBinAddr: 0x1000079CC, symSize: 0x34 }
  - { offsetInCU: 0x120B4, offset: 0x120B4, size: 0x8, addend: 0x0, symName: __ZNKSt3__19allocatorI5TokenE8max_sizeB7v160006Ev, symObjAddr: 0x5E80, symBinAddr: 0x100007A00, symSize: 0x14 }
  - { offsetInCU: 0x120D8, offset: 0x120D8, size: 0x8, addend: 0x0, symName: __ZNKSt3__117__compressed_pairIP5TokenNS_9allocatorIS1_EEE6secondB7v160006Ev, symObjAddr: 0x5E94, symBinAddr: 0x100007A14, symSize: 0x24 }
  - { offsetInCU: 0x120FC, offset: 0x120FC, size: 0x8, addend: 0x0, symName: __ZNKSt3__122__compressed_pair_elemINS_9allocatorI5TokenEELi1ELb1EE5__getB7v160006Ev, symObjAddr: 0x5EB8, symBinAddr: 0x100007A38, symSize: 0x14 }
  - { offsetInCU: 0x12121, offset: 0x12121, size: 0x8, addend: 0x0, symName: __ZNSt3__123__libcpp_numeric_limitsIlLb1EE3maxB7v160006Ev, symObjAddr: 0x5ECC, symBinAddr: 0x100007A4C, symSize: 0x8 }
  - { offsetInCU: 0x12135, offset: 0x12135, size: 0x8, addend: 0x0, symName: __ZNSt12length_errorC1B7v160006EPKc, symObjAddr: 0x5F38, symBinAddr: 0x100007AB8, symSize: 0x34 }
  - { offsetInCU: 0x1216C, offset: 0x1216C, size: 0x8, addend: 0x0, symName: __ZNSt12length_errorC2B7v160006EPKc, symObjAddr: 0x5F6C, symBinAddr: 0x100007AEC, symSize: 0x4C }
  - { offsetInCU: 0x121A2, offset: 0x121A2, size: 0x8, addend: 0x0, symName: __ZNSt3__19allocatorI5TokenE8allocateB7v160006Em, symObjAddr: 0x5FB8, symBinAddr: 0x100007B38, symSize: 0x58 }
  - { offsetInCU: 0x121D4, offset: 0x121D4, size: 0x8, addend: 0x0, symName: __ZNSt3__117__compressed_pairIP5TokenNS_9allocatorIS1_EEE6secondB7v160006Ev, symObjAddr: 0x6090, symBinAddr: 0x100007C10, symSize: 0x24 }
  - { offsetInCU: 0x121F8, offset: 0x121F8, size: 0x8, addend: 0x0, symName: __ZNSt3__122__compressed_pair_elemINS_9allocatorI5TokenEELi1ELb1EE5__getB7v160006Ev, symObjAddr: 0x60B4, symBinAddr: 0x100007C34, symSize: 0x14 }
  - { offsetInCU: 0x1221C, offset: 0x1221C, size: 0x8, addend: 0x0, symName: __ZNSt3__117__compressed_pairIP5TokenNS_9allocatorIS1_EEE5firstB7v160006Ev, symObjAddr: 0x60C8, symBinAddr: 0x100007C48, symSize: 0x24 }
  - { offsetInCU: 0x12240, offset: 0x12240, size: 0x8, addend: 0x0, symName: __ZNSt3__122__compressed_pair_elemIP5TokenLi0ELb0EE5__getB7v160006Ev, symObjAddr: 0x60EC, symBinAddr: 0x100007C6C, symSize: 0x14 }
  - { offsetInCU: 0x12264, offset: 0x12264, size: 0x8, addend: 0x0, symName: __ZNKSt3__16vectorI5TokenNS_9allocatorIS1_EEE31__annotate_contiguous_containerB7v160006EPKvS6_S6_S6_, symObjAddr: 0x6100, symBinAddr: 0x100007C80, symSize: 0x20 }
  - { offsetInCU: 0x122B8, offset: 0x122B8, size: 0x8, addend: 0x0, symName: __ZNKSt3__16vectorI5TokenNS_9allocatorIS1_EEE4dataB7v160006Ev, symObjAddr: 0x6120, symBinAddr: 0x100007CA0, symSize: 0x28 }
  - { offsetInCU: 0x122DC, offset: 0x122DC, size: 0x8, addend: 0x0, symName: __ZNKSt3__16vectorI5TokenNS_9allocatorIS1_EEE8capacityB7v160006Ev, symObjAddr: 0x6148, symBinAddr: 0x100007CC8, symSize: 0x40 }
  - { offsetInCU: 0x12300, offset: 0x12300, size: 0x8, addend: 0x0, symName: __ZNKSt3__16vectorI5TokenNS_9allocatorIS1_EEE9__end_capB7v160006Ev, symObjAddr: 0x619C, symBinAddr: 0x100007D1C, symSize: 0x28 }
  - { offsetInCU: 0x12324, offset: 0x12324, size: 0x8, addend: 0x0, symName: __ZNKSt3__117__compressed_pairIP5TokenNS_9allocatorIS1_EEE5firstB7v160006Ev, symObjAddr: 0x61C4, symBinAddr: 0x100007D44, symSize: 0x24 }
  - { offsetInCU: 0x12348, offset: 0x12348, size: 0x8, addend: 0x0, symName: __ZNKSt3__122__compressed_pair_elemIP5TokenLi0ELb0EE5__getB7v160006Ev, symObjAddr: 0x61E8, symBinAddr: 0x100007D68, symSize: 0x14 }
  - { offsetInCU: 0x12386, offset: 0x12386, size: 0x8, addend: 0x0, symName: __ZNSt3__16vectorI5TokenNS_9allocatorIS1_EEE21_ConstructTransactionC1B7v160006ERS4_m, symObjAddr: 0x61FC, symBinAddr: 0x100007D7C, symSize: 0x3C }
  - { offsetInCU: 0x123CD, offset: 0x123CD, size: 0x8, addend: 0x0, symName: __ZNSt3__16vectorI5TokenNS_9allocatorIS1_EEE21_ConstructTransactionD1B7v160006Ev, symObjAddr: 0x6330, symBinAddr: 0x100007EB0, symSize: 0x2C }
  - { offsetInCU: 0x123F6, offset: 0x123F6, size: 0x8, addend: 0x0, symName: __ZNSt3__16vectorI5TokenNS_9allocatorIS1_EEE21_ConstructTransactionC2B7v160006ERS4_m, symObjAddr: 0x635C, symBinAddr: 0x100007EDC, symSize: 0x44 }
  - { offsetInCU: 0x1243D, offset: 0x1243D, size: 0x8, addend: 0x0, symName: __ZNSt3__129_AllocatorDestroyRangeReverseINS_9allocatorI5TokenEEPS2_EC1B7v160006ERS3_RS4_S7_, symObjAddr: 0x63EC, symBinAddr: 0x100007F6C, symSize: 0x44 }
  - { offsetInCU: 0x12493, offset: 0x12493, size: 0x8, addend: 0x0, symName: __ZNSt3__116allocator_traitsINS_9allocatorI5TokenEEE9constructB7v160006IS2_JRS2_EvEEvRS3_PT_DpOT0_, symObjAddr: 0x6464, symBinAddr: 0x100007FE4, symSize: 0x34 }
  - { offsetInCU: 0x124E9, offset: 0x124E9, size: 0x8, addend: 0x0, symName: __ZNKSt3__111__wrap_iterIP5TokenEdeB7v160006Ev, symObjAddr: 0x6498, symBinAddr: 0x100008018, symSize: 0x18 }
  - { offsetInCU: 0x1250D, offset: 0x1250D, size: 0x8, addend: 0x0, symName: __ZNSt3__111__wrap_iterIP5TokenEppB7v160006Ev, symObjAddr: 0x64B0, symBinAddr: 0x100008030, symSize: 0x20 }
  - { offsetInCU: 0x12531, offset: 0x12531, size: 0x8, addend: 0x0, symName: __ZNSt3__128__exception_guard_exceptionsINS_29_AllocatorDestroyRangeReverseINS_9allocatorI5TokenEEPS3_EEE10__completeB7v160006Ev, symObjAddr: 0x64D0, symBinAddr: 0x100008050, symSize: 0x1C }
  - { offsetInCU: 0x12556, offset: 0x12556, size: 0x8, addend: 0x0, symName: __ZNSt3__128__exception_guard_exceptionsINS_29_AllocatorDestroyRangeReverseINS_9allocatorI5TokenEEPS3_EEED1B7v160006Ev, symObjAddr: 0x64EC, symBinAddr: 0x10000806C, symSize: 0x2C }
  - { offsetInCU: 0x1257F, offset: 0x1257F, size: 0x8, addend: 0x0, symName: __ZNSt3__128__exception_guard_exceptionsINS_29_AllocatorDestroyRangeReverseINS_9allocatorI5TokenEEPS3_EEEC1B7v160006ES6_, symObjAddr: 0x6518, symBinAddr: 0x100008098, symSize: 0x34 }
  - { offsetInCU: 0x125B7, offset: 0x125B7, size: 0x8, addend: 0x0, symName: __ZNSt3__128__exception_guard_exceptionsINS_29_AllocatorDestroyRangeReverseINS_9allocatorI5TokenEEPS3_EEEC2B7v160006ES6_, symObjAddr: 0x654C, symBinAddr: 0x1000080CC, symSize: 0x30 }
  - { offsetInCU: 0x125EF, offset: 0x125EF, size: 0x8, addend: 0x0, symName: __ZNSt3__129_AllocatorDestroyRangeReverseINS_9allocatorI5TokenEEPS2_EC2B7v160006ERS3_RS4_S7_, symObjAddr: 0x657C, symBinAddr: 0x1000080FC, symSize: 0x38 }
  - { offsetInCU: 0x12644, offset: 0x12644, size: 0x8, addend: 0x0, symName: __ZNSt3__19allocatorI5TokenE9constructB7v160006IS1_JRS1_EEEvPT_DpOT0_, symObjAddr: 0x65FC, symBinAddr: 0x10000817C, symSize: 0x30 }
  - { offsetInCU: 0x12698, offset: 0x12698, size: 0x8, addend: 0x0, symName: __ZN5TokenC1ERKS_, symObjAddr: 0x662C, symBinAddr: 0x1000081AC, symSize: 0x34 }
  - { offsetInCU: 0x126CB, offset: 0x126CB, size: 0x8, addend: 0x0, symName: __ZN5TokenC2ERKS_, symObjAddr: 0x6660, symBinAddr: 0x1000081E0, symSize: 0x48 }
  - { offsetInCU: 0x126FF, offset: 0x126FF, size: 0x8, addend: 0x0, symName: __ZNSt3__128__exception_guard_exceptionsINS_29_AllocatorDestroyRangeReverseINS_9allocatorI5TokenEEPS3_EEED2B7v160006Ev, symObjAddr: 0x66A8, symBinAddr: 0x100008228, symSize: 0x50 }
  - { offsetInCU: 0x12727, offset: 0x12727, size: 0x8, addend: 0x0, symName: __ZNKSt3__129_AllocatorDestroyRangeReverseINS_9allocatorI5TokenEEPS2_EclB7v160006Ev, symObjAddr: 0x66F8, symBinAddr: 0x100008278, symSize: 0x68 }
  - { offsetInCU: 0x1274C, offset: 0x1274C, size: 0x8, addend: 0x0, symName: __ZNSt3__116reverse_iteratorIP5TokenEC1B7v160006ES2_, symObjAddr: 0x67D0, symBinAddr: 0x100008350, symSize: 0x34 }
  - { offsetInCU: 0x12783, offset: 0x12783, size: 0x8, addend: 0x0, symName: __ZNSt3__116allocator_traitsINS_9allocatorI5TokenEEE7destroyB7v160006IS2_vEEvRS3_PT_, symObjAddr: 0x684C, symBinAddr: 0x1000083CC, symSize: 0x2C }
  - { offsetInCU: 0x127BF, offset: 0x127BF, size: 0x8, addend: 0x0, symName: __ZNSt3__116reverse_iteratorIP5TokenEppB7v160006Ev, symObjAddr: 0x689C, symBinAddr: 0x10000841C, symSize: 0x20 }
  - { offsetInCU: 0x127E3, offset: 0x127E3, size: 0x8, addend: 0x0, symName: __ZNKSt3__116reverse_iteratorIP5TokenE4baseB7v160006Ev, symObjAddr: 0x68BC, symBinAddr: 0x10000843C, symSize: 0x18 }
  - { offsetInCU: 0x12807, offset: 0x12807, size: 0x8, addend: 0x0, symName: __ZNSt3__19allocatorI5TokenE7destroyB7v160006EPS1_, symObjAddr: 0x68D4, symBinAddr: 0x100008454, symSize: 0x28 }
  - { offsetInCU: 0x12839, offset: 0x12839, size: 0x8, addend: 0x0, symName: __ZN5TokenD1Ev, symObjAddr: 0x68FC, symBinAddr: 0x10000847C, symSize: 0x2C }
  - { offsetInCU: 0x12863, offset: 0x12863, size: 0x8, addend: 0x0, symName: __ZN5TokenD2Ev, symObjAddr: 0x6928, symBinAddr: 0x1000084A8, symSize: 0x30 }
  - { offsetInCU: 0x12893, offset: 0x12893, size: 0x8, addend: 0x0, symName: __ZNSt3__119__to_address_helperINS_16reverse_iteratorIP5TokenEEvE6__callB7v160006ERKS4_, symObjAddr: 0x6958, symBinAddr: 0x1000084D8, symSize: 0x38 }
  - { offsetInCU: 0x128B5, offset: 0x128B5, size: 0x8, addend: 0x0, symName: __ZNKSt3__116reverse_iteratorIP5TokenEptB7v160006Ev, symObjAddr: 0x6990, symBinAddr: 0x100008510, symSize: 0x24 }
  - { offsetInCU: 0x128D9, offset: 0x128D9, size: 0x8, addend: 0x0, symName: __ZNKSt3__116reverse_iteratorIP5TokenEdeB7v160006Ev, symObjAddr: 0x69B4, symBinAddr: 0x100008534, symSize: 0x28 }
  - { offsetInCU: 0x1290C, offset: 0x1290C, size: 0x8, addend: 0x0, symName: __ZNSt3__116reverse_iteratorIP5TokenEC2B7v160006ES2_, symObjAddr: 0x69DC, symBinAddr: 0x10000855C, symSize: 0x28 }
  - { offsetInCU: 0x12943, offset: 0x12943, size: 0x8, addend: 0x0, symName: __ZNSt3__16vectorI5TokenNS_9allocatorIS1_EEE21_ConstructTransactionD2B7v160006Ev, symObjAddr: 0x6A04, symBinAddr: 0x100008584, symSize: 0x20 }
  - { offsetInCU: 0x1296C, offset: 0x1296C, size: 0x8, addend: 0x0, symName: __ZNSt3__128__exception_guard_exceptionsINS_6vectorI5TokenNS_9allocatorIS2_EEE16__destroy_vectorEED2B7v160006Ev, symObjAddr: 0x6A24, symBinAddr: 0x1000085A4, symSize: 0x50 }
  - { offsetInCU: 0x12994, offset: 0x12994, size: 0x8, addend: 0x0, symName: __ZNSt3__16vectorI5TokenNS_9allocatorIS1_EEE16__destroy_vectorclB7v160006Ev, symObjAddr: 0x6A74, symBinAddr: 0x1000085F4, symSize: 0x9C }
  - { offsetInCU: 0x129B8, offset: 0x129B8, size: 0x8, addend: 0x0, symName: __ZNKSt3__16vectorI5TokenNS_9allocatorIS1_EEE17__annotate_deleteB7v160006Ev, symObjAddr: 0x6B10, symBinAddr: 0x100008690, symSize: 0xB8 }
  - { offsetInCU: 0x129DC, offset: 0x129DC, size: 0x8, addend: 0x0, symName: __ZNSt3__16vectorI5TokenNS_9allocatorIS1_EEE7__clearB7v160006Ev, symObjAddr: 0x6BD8, symBinAddr: 0x100008758, symSize: 0x28 }
  - { offsetInCU: 0x12A01, offset: 0x12A01, size: 0x8, addend: 0x0, symName: __ZNSt3__116allocator_traitsINS_9allocatorI5TokenEEE10deallocateB7v160006ERS3_PS2_m, symObjAddr: 0x6C00, symBinAddr: 0x100008780, symSize: 0x34 }
  - { offsetInCU: 0x12A42, offset: 0x12A42, size: 0x8, addend: 0x0, symName: __ZNSt3__16vectorI5TokenNS_9allocatorIS1_EEE22__base_destruct_at_endB7v160006EPS1_, symObjAddr: 0x6C34, symBinAddr: 0x1000087B4, symSize: 0x8C }
  - { offsetInCU: 0x12A84, offset: 0x12A84, size: 0x8, addend: 0x0, symName: __ZNSt3__19allocatorI5TokenE10deallocateB7v160006EPS1_m, symObjAddr: 0x6CC0, symBinAddr: 0x100008840, symSize: 0x40 }
  - { offsetInCU: 0x12AC5, offset: 0x12AC5, size: 0x8, addend: 0x0, symName: __ZNSt3__16vectorI5TokenNS_9allocatorIS1_EEED2B7v160006Ev, symObjAddr: 0x6D7C, symBinAddr: 0x1000088FC, symSize: 0x44 }
  - { offsetInCU: 0x12AED, offset: 0x12AED, size: 0x8, addend: 0x0, symName: __ZNSt3__16vectorI11CommandNodeNS_9allocatorIS1_EEE9__end_capB7v160006Ev, symObjAddr: 0x6DC0, symBinAddr: 0x100008940, symSize: 0x28 }
  - { offsetInCU: 0x12B11, offset: 0x12B11, size: 0x8, addend: 0x0, symName: __ZNSt3__16vectorI11CommandNodeNS_9allocatorIS1_EEE22__construct_one_at_endB7v160006IJRKS1_EEEvDpOT_, symObjAddr: 0x6DE8, symBinAddr: 0x100008968, symSize: 0x90 }
  - { offsetInCU: 0x12B5E, offset: 0x12B5E, size: 0x8, addend: 0x0, symName: __ZNSt3__16vectorI11CommandNodeNS_9allocatorIS1_EEE21__push_back_slow_pathIRKS1_EEvOT_, symObjAddr: 0x6E78, symBinAddr: 0x1000089F8, symSize: 0xD8 }
  - { offsetInCU: 0x12BBA, offset: 0x12BBA, size: 0x8, addend: 0x0, symName: __ZNSt3__117__compressed_pairIP11CommandNodeNS_9allocatorIS1_EEE5firstB7v160006Ev, symObjAddr: 0x6F50, symBinAddr: 0x100008AD0, symSize: 0x24 }
  - { offsetInCU: 0x12BDE, offset: 0x12BDE, size: 0x8, addend: 0x0, symName: __ZNSt3__122__compressed_pair_elemIP11CommandNodeLi0ELb0EE5__getB7v160006Ev, symObjAddr: 0x6F74, symBinAddr: 0x100008AF4, symSize: 0x14 }
  - { offsetInCU: 0x12C1C, offset: 0x12C1C, size: 0x8, addend: 0x0, symName: __ZNSt3__16vectorI11CommandNodeNS_9allocatorIS1_EEE21_ConstructTransactionC1B7v160006ERS4_m, symObjAddr: 0x6F88, symBinAddr: 0x100008B08, symSize: 0x3C }
  - { offsetInCU: 0x12C63, offset: 0x12C63, size: 0x8, addend: 0x0, symName: __ZNSt3__116allocator_traitsINS_9allocatorI11CommandNodeEEE9constructB7v160006IS2_JRKS2_EvEEvRS3_PT_DpOT0_, symObjAddr: 0x6FC4, symBinAddr: 0x100008B44, symSize: 0x34 }
  - { offsetInCU: 0x12CBA, offset: 0x12CBA, size: 0x8, addend: 0x0, symName: __ZNSt3__16vectorI11CommandNodeNS_9allocatorIS1_EEE21_ConstructTransactionD1B7v160006Ev, symObjAddr: 0x6FF8, symBinAddr: 0x100008B78, symSize: 0x2C }
  - { offsetInCU: 0x12CE3, offset: 0x12CE3, size: 0x8, addend: 0x0, symName: __ZNSt3__16vectorI11CommandNodeNS_9allocatorIS1_EEE21_ConstructTransactionC2B7v160006ERS4_m, symObjAddr: 0x7024, symBinAddr: 0x100008BA4, symSize: 0x4C }
  - { offsetInCU: 0x12D29, offset: 0x12D29, size: 0x8, addend: 0x0, symName: __ZNSt3__19allocatorI11CommandNodeE9constructB7v160006IS1_JRKS1_EEEvPT_DpOT0_, symObjAddr: 0x7070, symBinAddr: 0x100008BF0, symSize: 0x30 }
  - { offsetInCU: 0x12D7D, offset: 0x12D7D, size: 0x8, addend: 0x0, symName: __ZN11CommandNodeC1ERKS_, symObjAddr: 0x70A0, symBinAddr: 0x100008C20, symSize: 0x34 }
  - { offsetInCU: 0x12DB0, offset: 0x12DB0, size: 0x8, addend: 0x0, symName: __ZN11CommandNodeC2ERKS_, symObjAddr: 0x70D4, symBinAddr: 0x100008C54, symSize: 0x88 }
  - { offsetInCU: 0x12DE4, offset: 0x12DE4, size: 0x8, addend: 0x0, symName: __ZNSt3__16vectorI11CommandNodeNS_9allocatorIS1_EEE21_ConstructTransactionD2B7v160006Ev, symObjAddr: 0x715C, symBinAddr: 0x100008CDC, symSize: 0x20 }
  - { offsetInCU: 0x12E0C, offset: 0x12E0C, size: 0x8, addend: 0x0, symName: __ZNKSt3__16vectorI11CommandNodeNS_9allocatorIS1_EEE11__recommendB7v160006Em, symObjAddr: 0x717C, symBinAddr: 0x100008CFC, symSize: 0xB4 }
  - { offsetInCU: 0x12E60, offset: 0x12E60, size: 0x8, addend: 0x0, symName: __ZNSt3__114__split_bufferI11CommandNodeRNS_9allocatorIS1_EEEC1EmmS4_, symObjAddr: 0x7230, symBinAddr: 0x100008DB0, symSize: 0x44 }
  - { offsetInCU: 0x12EB4, offset: 0x12EB4, size: 0x8, addend: 0x0, symName: __ZNSt3__114__split_bufferI11CommandNodeRNS_9allocatorIS1_EEED1Ev, symObjAddr: 0x738C, symBinAddr: 0x100008F0C, symSize: 0x2C }
  - { offsetInCU: 0x12EDD, offset: 0x12EDD, size: 0x8, addend: 0x0, symName: __ZNKSt3__16vectorI11CommandNodeNS_9allocatorIS1_EEE8max_sizeEv, symObjAddr: 0x73B8, symBinAddr: 0x100008F38, symSize: 0x60 }
  - { offsetInCU: 0x12F03, offset: 0x12F03, size: 0x8, addend: 0x0, symName: __ZNKSt3__16vectorI11CommandNodeNS_9allocatorIS1_EEE20__throw_length_errorB7v160006Ev, symObjAddr: 0x7418, symBinAddr: 0x100008F98, symSize: 0x1C }
  - { offsetInCU: 0x12F32, offset: 0x12F32, size: 0x8, addend: 0x0, symName: __ZNSt3__116allocator_traitsINS_9allocatorI11CommandNodeEEE8max_sizeB7v160006IS3_vEEmRKS3_, symObjAddr: 0x7460, symBinAddr: 0x100008FE0, symSize: 0x24 }
  - { offsetInCU: 0x12F5F, offset: 0x12F5F, size: 0x8, addend: 0x0, symName: __ZNKSt3__16vectorI11CommandNodeNS_9allocatorIS1_EEE7__allocB7v160006Ev, symObjAddr: 0x7484, symBinAddr: 0x100009004, symSize: 0x28 }
  - { offsetInCU: 0x12F83, offset: 0x12F83, size: 0x8, addend: 0x0, symName: __ZNKSt3__19allocatorI11CommandNodeE8max_sizeB7v160006Ev, symObjAddr: 0x74AC, symBinAddr: 0x10000902C, symSize: 0x20 }
  - { offsetInCU: 0x12FA7, offset: 0x12FA7, size: 0x8, addend: 0x0, symName: __ZNKSt3__117__compressed_pairIP11CommandNodeNS_9allocatorIS1_EEE6secondB7v160006Ev, symObjAddr: 0x74CC, symBinAddr: 0x10000904C, symSize: 0x24 }
  - { offsetInCU: 0x12FCB, offset: 0x12FCB, size: 0x8, addend: 0x0, symName: __ZNKSt3__122__compressed_pair_elemINS_9allocatorI11CommandNodeEELi1ELb1EE5__getB7v160006Ev, symObjAddr: 0x74F0, symBinAddr: 0x100009070, symSize: 0x14 }
  - { offsetInCU: 0x12FF0, offset: 0x12FF0, size: 0x8, addend: 0x0, symName: __ZNSt3__114__split_bufferI11CommandNodeRNS_9allocatorIS1_EEEC2EmmS4_, symObjAddr: 0x7558, symBinAddr: 0x1000090D8, symSize: 0xE0 }
  - { offsetInCU: 0x13062, offset: 0x13062, size: 0x8, addend: 0x0, symName: __ZNSt3__117__compressed_pairIP11CommandNodeRNS_9allocatorIS1_EEEC1B7v160006IDnS5_EEOT_OT0_, symObjAddr: 0x7638, symBinAddr: 0x1000091B8, symSize: 0x3C }
  - { offsetInCU: 0x130B8, offset: 0x130B8, size: 0x8, addend: 0x0, symName: __ZNSt3__114__split_bufferI11CommandNodeRNS_9allocatorIS1_EEE7__allocB7v160006Ev, symObjAddr: 0x76B4, symBinAddr: 0x100009234, symSize: 0x28 }
  - { offsetInCU: 0x130DC, offset: 0x130DC, size: 0x8, addend: 0x0, symName: __ZNSt3__114__split_bufferI11CommandNodeRNS_9allocatorIS1_EEE9__end_capB7v160006Ev, symObjAddr: 0x76DC, symBinAddr: 0x10000925C, symSize: 0x28 }
  - { offsetInCU: 0x13101, offset: 0x13101, size: 0x8, addend: 0x0, symName: __ZNSt3__117__compressed_pairIP11CommandNodeRNS_9allocatorIS1_EEEC2B7v160006IDnS5_EEOT_OT0_, symObjAddr: 0x7704, symBinAddr: 0x100009284, symSize: 0x48 }
  - { offsetInCU: 0x13158, offset: 0x13158, size: 0x8, addend: 0x0, symName: __ZNSt3__122__compressed_pair_elemIP11CommandNodeLi0ELb0EEC2B7v160006IDnvEEOT_, symObjAddr: 0x774C, symBinAddr: 0x1000092CC, symSize: 0x1C }
  - { offsetInCU: 0x13199, offset: 0x13199, size: 0x8, addend: 0x0, symName: __ZNSt3__122__compressed_pair_elemIRNS_9allocatorI11CommandNodeEELi1ELb0EEC2B7v160006IS4_vEEOT_, symObjAddr: 0x7768, symBinAddr: 0x1000092E8, symSize: 0x20 }
  - { offsetInCU: 0x131D9, offset: 0x131D9, size: 0x8, addend: 0x0, symName: __ZNSt3__19allocatorI11CommandNodeE8allocateB7v160006Em, symObjAddr: 0x7788, symBinAddr: 0x100009308, symSize: 0x5C }
  - { offsetInCU: 0x1320B, offset: 0x1320B, size: 0x8, addend: 0x0, symName: __ZNSt3__117__compressed_pairIP11CommandNodeRNS_9allocatorIS1_EEE6secondB7v160006Ev, symObjAddr: 0x77E4, symBinAddr: 0x100009364, symSize: 0x28 }
  - { offsetInCU: 0x1322F, offset: 0x1322F, size: 0x8, addend: 0x0, symName: __ZNSt3__122__compressed_pair_elemIRNS_9allocatorI11CommandNodeEELi1ELb0EE5__getB7v160006Ev, symObjAddr: 0x780C, symBinAddr: 0x10000938C, symSize: 0x18 }
  - { offsetInCU: 0x13253, offset: 0x13253, size: 0x8, addend: 0x0, symName: __ZNSt3__117__compressed_pairIP11CommandNodeRNS_9allocatorIS1_EEE5firstB7v160006Ev, symObjAddr: 0x7824, symBinAddr: 0x1000093A4, symSize: 0x24 }
  - { offsetInCU: 0x13277, offset: 0x13277, size: 0x8, addend: 0x0, symName: __ZNKSt3__16vectorI11CommandNodeNS_9allocatorIS1_EEE17__annotate_deleteB7v160006Ev, symObjAddr: 0x7848, symBinAddr: 0x1000093C8, symSize: 0xD4 }
  - { offsetInCU: 0x1329C, offset: 0x1329C, size: 0x8, addend: 0x0, symName: __ZNSt3__116reverse_iteratorIP11CommandNodeEC1B7v160006ES2_, symObjAddr: 0x7A48, symBinAddr: 0x1000095C8, symSize: 0x34 }
  - { offsetInCU: 0x132D2, offset: 0x132D2, size: 0x8, addend: 0x0, symName: __ZNKSt3__116reverse_iteratorIP11CommandNodeE4baseB7v160006Ev, symObjAddr: 0x7A7C, symBinAddr: 0x1000095FC, symSize: 0x18 }
  - { offsetInCU: 0x132F6, offset: 0x132F6, size: 0x8, addend: 0x0, symName: __ZNKSt3__16vectorI11CommandNodeNS_9allocatorIS1_EEE14__annotate_newB7v160006Em, symObjAddr: 0x7AD0, symBinAddr: 0x100009650, symSize: 0xC8 }
  - { offsetInCU: 0x1332A, offset: 0x1332A, size: 0x8, addend: 0x0, symName: __ZNSt3__129_AllocatorDestroyRangeReverseINS_9allocatorI11CommandNodeEENS_16reverse_iteratorIPS2_EEEC1B7v160006ERS3_RS6_S9_, symObjAddr: 0x7BE4, symBinAddr: 0x100009764, symSize: 0x44 }
  - { offsetInCU: 0x1337F, offset: 0x1337F, size: 0x8, addend: 0x0, symName: __ZNKSt3__116reverse_iteratorIP11CommandNodeEdeB7v160006Ev, symObjAddr: 0x7C94, symBinAddr: 0x100009814, symSize: 0x28 }
  - { offsetInCU: 0x133B1, offset: 0x133B1, size: 0x8, addend: 0x0, symName: __ZNSt3__116reverse_iteratorIP11CommandNodeEppB7v160006Ev, symObjAddr: 0x7CBC, symBinAddr: 0x10000983C, symSize: 0x20 }
  - { offsetInCU: 0x133D5, offset: 0x133D5, size: 0x8, addend: 0x0, symName: __ZNSt3__128__exception_guard_exceptionsINS_29_AllocatorDestroyRangeReverseINS_9allocatorI11CommandNodeEENS_16reverse_iteratorIPS3_EEEEE10__completeB7v160006Ev, symObjAddr: 0x7CDC, symBinAddr: 0x10000985C, symSize: 0x1C }
  - { offsetInCU: 0x133FA, offset: 0x133FA, size: 0x8, addend: 0x0, symName: __ZNSt3__128__exception_guard_exceptionsINS_29_AllocatorDestroyRangeReverseINS_9allocatorI11CommandNodeEENS_16reverse_iteratorIPS3_EEEEED1B7v160006Ev, symObjAddr: 0x7CF8, symBinAddr: 0x100009878, symSize: 0x2C }
  - { offsetInCU: 0x13423, offset: 0x13423, size: 0x8, addend: 0x0, symName: __ZNSt3__128__exception_guard_exceptionsINS_29_AllocatorDestroyRangeReverseINS_9allocatorI11CommandNodeEENS_16reverse_iteratorIPS3_EEEEEC1B7v160006ES8_, symObjAddr: 0x7D24, symBinAddr: 0x1000098A4, symSize: 0x34 }
  - { offsetInCU: 0x1345B, offset: 0x1345B, size: 0x8, addend: 0x0, symName: __ZNSt3__128__exception_guard_exceptionsINS_29_AllocatorDestroyRangeReverseINS_9allocatorI11CommandNodeEENS_16reverse_iteratorIPS3_EEEEEC2B7v160006ES8_, symObjAddr: 0x7D58, symBinAddr: 0x1000098D8, symSize: 0x30 }
  - { offsetInCU: 0x13493, offset: 0x13493, size: 0x8, addend: 0x0, symName: __ZNSt3__129_AllocatorDestroyRangeReverseINS_9allocatorI11CommandNodeEENS_16reverse_iteratorIPS2_EEEC2B7v160006ERS3_RS6_S9_, symObjAddr: 0x7D88, symBinAddr: 0x100009908, symSize: 0x38 }
  - { offsetInCU: 0x134EE, offset: 0x134EE, size: 0x8, addend: 0x0, symName: __ZNSt3__119__to_address_helperINS_16reverse_iteratorIP11CommandNodeEEvE6__callB7v160006ERKS4_, symObjAddr: 0x7DC0, symBinAddr: 0x100009940, symSize: 0x38 }
  - { offsetInCU: 0x13510, offset: 0x13510, size: 0x8, addend: 0x0, symName: __ZNKSt3__116reverse_iteratorIP11CommandNodeEptB7v160006Ev, symObjAddr: 0x7DF8, symBinAddr: 0x100009978, symSize: 0x24 }
  - { offsetInCU: 0x13535, offset: 0x13535, size: 0x8, addend: 0x0, symName: __ZNSt3__128__exception_guard_exceptionsINS_29_AllocatorDestroyRangeReverseINS_9allocatorI11CommandNodeEENS_16reverse_iteratorIPS3_EEEEED2B7v160006Ev, symObjAddr: 0x7E1C, symBinAddr: 0x10000999C, symSize: 0x50 }
  - { offsetInCU: 0x1355D, offset: 0x1355D, size: 0x8, addend: 0x0, symName: __ZNKSt3__129_AllocatorDestroyRangeReverseINS_9allocatorI11CommandNodeEENS_16reverse_iteratorIPS2_EEEclB7v160006Ev, symObjAddr: 0x7E6C, symBinAddr: 0x1000099EC, symSize: 0xB4 }
  - { offsetInCU: 0x13583, offset: 0x13583, size: 0x8, addend: 0x0, symName: __ZNSt3__116reverse_iteratorINS0_IP11CommandNodeEEEC1B7v160006ES3_, symObjAddr: 0x7F90, symBinAddr: 0x100009B10, symSize: 0x3C }
  - { offsetInCU: 0x135B9, offset: 0x135B9, size: 0x8, addend: 0x0, symName: __ZNSt3__116reverse_iteratorINS0_IP11CommandNodeEEEppB7v160006Ev, symObjAddr: 0x8050, symBinAddr: 0x100009BD0, symSize: 0x30 }
  - { offsetInCU: 0x135DD, offset: 0x135DD, size: 0x8, addend: 0x0, symName: __ZNKSt3__116reverse_iteratorINS0_IP11CommandNodeEEE4baseB7v160006Ev, symObjAddr: 0x8080, symBinAddr: 0x100009C00, symSize: 0x24 }
  - { offsetInCU: 0x13607, offset: 0x13607, size: 0x8, addend: 0x0, symName: __ZNSt3__119__to_address_helperINS_16reverse_iteratorINS1_IP11CommandNodeEEEEvE6__callB7v160006ERKS5_, symObjAddr: 0x80A4, symBinAddr: 0x100009C24, symSize: 0x38 }
  - { offsetInCU: 0x13629, offset: 0x13629, size: 0x8, addend: 0x0, symName: __ZNKSt3__116reverse_iteratorINS0_IP11CommandNodeEEEptB7v160006Ev, symObjAddr: 0x80DC, symBinAddr: 0x100009C5C, symSize: 0x24 }
  - { offsetInCU: 0x1364D, offset: 0x1364D, size: 0x8, addend: 0x0, symName: __ZNKSt3__116reverse_iteratorINS0_IP11CommandNodeEEEdeB7v160006Ev, symObjAddr: 0x8100, symBinAddr: 0x100009C80, symSize: 0x34 }
  - { offsetInCU: 0x1367F, offset: 0x1367F, size: 0x8, addend: 0x0, symName: __ZNSt3__116reverse_iteratorIP11CommandNodeEmmB7v160006Ev, symObjAddr: 0x8134, symBinAddr: 0x100009CB4, symSize: 0x20 }
  - { offsetInCU: 0x136A4, offset: 0x136A4, size: 0x8, addend: 0x0, symName: __ZNSt3__116reverse_iteratorINS0_IP11CommandNodeEEEC2B7v160006ES3_, symObjAddr: 0x8154, symBinAddr: 0x100009CD4, symSize: 0x2C }
  - { offsetInCU: 0x136DB, offset: 0x136DB, size: 0x8, addend: 0x0, symName: __ZNSt3__116reverse_iteratorIP11CommandNodeEC2B7v160006ES2_, symObjAddr: 0x8180, symBinAddr: 0x100009D00, symSize: 0x28 }
  - { offsetInCU: 0x13712, offset: 0x13712, size: 0x8, addend: 0x0, symName: __ZNSt3__114__split_bufferI11CommandNodeRNS_9allocatorIS1_EEED2Ev, symObjAddr: 0x81A8, symBinAddr: 0x100009D28, symSize: 0x8C }
  - { offsetInCU: 0x1373B, offset: 0x1373B, size: 0x8, addend: 0x0, symName: __ZNSt3__114__split_bufferI11CommandNodeRNS_9allocatorIS1_EEE5clearB7v160006Ev, symObjAddr: 0x8234, symBinAddr: 0x100009DB4, symSize: 0x28 }
  - { offsetInCU: 0x13760, offset: 0x13760, size: 0x8, addend: 0x0, symName: __ZNSt3__116allocator_traitsINS_9allocatorI11CommandNodeEEE10deallocateB7v160006ERS3_PS2_m, symObjAddr: 0x825C, symBinAddr: 0x100009DDC, symSize: 0x34 }
  - { offsetInCU: 0x137A1, offset: 0x137A1, size: 0x8, addend: 0x0, symName: __ZNKSt3__114__split_bufferI11CommandNodeRNS_9allocatorIS1_EEE8capacityB7v160006Ev, symObjAddr: 0x8290, symBinAddr: 0x100009E10, symSize: 0x40 }
  - { offsetInCU: 0x137C5, offset: 0x137C5, size: 0x8, addend: 0x0, symName: __ZNSt3__114__split_bufferI11CommandNodeRNS_9allocatorIS1_EEE17__destruct_at_endB7v160006EPS1_, symObjAddr: 0x82D0, symBinAddr: 0x100009E50, symSize: 0x2C }
  - { offsetInCU: 0x137F7, offset: 0x137F7, size: 0x8, addend: 0x0, symName: __ZNSt3__114__split_bufferI11CommandNodeRNS_9allocatorIS1_EEE17__destruct_at_endB7v160006EPS1_NS_17integral_constantIbLb0EEE, symObjAddr: 0x82FC, symBinAddr: 0x100009E7C, symSize: 0x80 }
  - { offsetInCU: 0x13835, offset: 0x13835, size: 0x8, addend: 0x0, symName: __ZNSt3__19allocatorI11CommandNodeE10deallocateB7v160006EPS1_m, symObjAddr: 0x837C, symBinAddr: 0x100009EFC, symSize: 0x44 }
  - { offsetInCU: 0x13875, offset: 0x13875, size: 0x8, addend: 0x0, symName: __ZNKSt3__114__split_bufferI11CommandNodeRNS_9allocatorIS1_EEE9__end_capB7v160006Ev, symObjAddr: 0x83C0, symBinAddr: 0x100009F40, symSize: 0x28 }
  - { offsetInCU: 0x13899, offset: 0x13899, size: 0x8, addend: 0x0, symName: __ZNKSt3__117__compressed_pairIP11CommandNodeRNS_9allocatorIS1_EEE5firstB7v160006Ev, symObjAddr: 0x83E8, symBinAddr: 0x100009F68, symSize: 0x24 }
  - { offsetInCU: 0x138BE, offset: 0x138BE, size: 0x8, addend: 0x0, symName: __ZNSt3__112basic_stringIcNS_11char_traitsIcEENS_9allocatorIcEEEC2B7v160006Ev, symObjAddr: 0x840C, symBinAddr: 0x100009F8C, symSize: 0x54 }
  - { offsetInCU: 0x138E7, offset: 0x138E7, size: 0x8, addend: 0x0, symName: __ZNSt3__117__compressed_pairINS_12basic_stringIcNS_11char_traitsIcEENS_9allocatorIcEEE5__repES5_EC1B7v160006INS_18__default_init_tagESA_EEOT_OT0_, symObjAddr: 0x8460, symBinAddr: 0x100009FE0, symSize: 0x3C }
  - { offsetInCU: 0x1393D, offset: 0x1393D, size: 0x8, addend: 0x0, symName: __ZNSt3__112basic_stringIcNS_11char_traitsIcEENS_9allocatorIcEEE14__default_initB7v160006Ev, symObjAddr: 0x84AC, symBinAddr: 0x10000A02C, symSize: 0x40 }
  - { offsetInCU: 0x13962, offset: 0x13962, size: 0x8, addend: 0x0, symName: __ZNSt3__117__compressed_pairINS_12basic_stringIcNS_11char_traitsIcEENS_9allocatorIcEEE5__repES5_EC2B7v160006INS_18__default_init_tagESA_EEOT_OT0_, symObjAddr: 0x84EC, symBinAddr: 0x10000A06C, symSize: 0x3C }
  - { offsetInCU: 0x139B9, offset: 0x139B9, size: 0x8, addend: 0x0, symName: __ZNSt3__122__compressed_pair_elemINS_12basic_stringIcNS_11char_traitsIcEENS_9allocatorIcEEE5__repELi0ELb0EEC2B7v160006ENS_18__default_init_tagE, symObjAddr: 0x8528, symBinAddr: 0x10000A0A8, symSize: 0x14 }
  - { offsetInCU: 0x139EC, offset: 0x139EC, size: 0x8, addend: 0x0, symName: __ZNSt3__122__compressed_pair_elemINS_9allocatorIcEELi1ELb1EEC2B7v160006ENS_18__default_init_tagE, symObjAddr: 0x853C, symBinAddr: 0x10000A0BC, symSize: 0x2C }
  - { offsetInCU: 0x13A1F, offset: 0x13A1F, size: 0x8, addend: 0x0, symName: __ZNSt3__19allocatorIcEC2B7v160006Ev, symObjAddr: 0x8568, symBinAddr: 0x10000A0E8, symSize: 0x2C }
  - { offsetInCU: 0x13A48, offset: 0x13A48, size: 0x8, addend: 0x0, symName: __ZNSt3__116__non_trivial_ifILb1ENS_9allocatorIcEEEC2B7v160006Ev, symObjAddr: 0x8594, symBinAddr: 0x10000A114, symSize: 0x14 }
  - { offsetInCU: 0x13A70, offset: 0x13A70, size: 0x8, addend: 0x0, symName: __ZNSt3__117__compressed_pairINS_12basic_stringIcNS_11char_traitsIcEENS_9allocatorIcEEE5__repES5_E5firstB7v160006Ev, symObjAddr: 0x85A8, symBinAddr: 0x10000A128, symSize: 0x24 }
  - { offsetInCU: 0x13A94, offset: 0x13A94, size: 0x8, addend: 0x0, symName: __ZNSt3__122__compressed_pair_elemINS_12basic_stringIcNS_11char_traitsIcEENS_9allocatorIcEEE5__repELi0ELb0EE5__getB7v160006Ev, symObjAddr: 0x85CC, symBinAddr: 0x10000A14C, symSize: 0x14 }
  - { offsetInCU: 0x13AB9, offset: 0x13AB9, size: 0x8, addend: 0x0, symName: __ZNSt3__16vectorI11CommandNodeNS_9allocatorIS1_EEEC2B7v160006Ev, symObjAddr: 0x85E0, symBinAddr: 0x10000A160, symSize: 0x58 }
  - { offsetInCU: 0x13AE2, offset: 0x13AE2, size: 0x8, addend: 0x0, symName: __ZNSt3__117__compressed_pairIP11CommandNodeNS_9allocatorIS1_EEEC1B7v160006IDnNS_18__default_init_tagEEEOT_OT0_, symObjAddr: 0x8638, symBinAddr: 0x10000A1B8, symSize: 0x3C }
  - { offsetInCU: 0x13B39, offset: 0x13B39, size: 0x8, addend: 0x0, symName: __ZNSt3__117__compressed_pairIP11CommandNodeNS_9allocatorIS1_EEEC2B7v160006IDnNS_18__default_init_tagEEEOT_OT0_, symObjAddr: 0x8684, symBinAddr: 0x10000A204, symSize: 0x40 }
  - { offsetInCU: 0x13B90, offset: 0x13B90, size: 0x8, addend: 0x0, symName: __ZNSt3__122__compressed_pair_elemINS_9allocatorI11CommandNodeEELi1ELb1EEC2B7v160006ENS_18__default_init_tagE, symObjAddr: 0x86C4, symBinAddr: 0x10000A244, symSize: 0x2C }
  - { offsetInCU: 0x13BC3, offset: 0x13BC3, size: 0x8, addend: 0x0, symName: __ZNSt3__19allocatorI11CommandNodeEC2B7v160006Ev, symObjAddr: 0x86F0, symBinAddr: 0x10000A270, symSize: 0x2C }
  - { offsetInCU: 0x13BEC, offset: 0x13BEC, size: 0x8, addend: 0x0, symName: __ZNSt3__116__non_trivial_ifILb1ENS_9allocatorI11CommandNodeEEEC2B7v160006Ev, symObjAddr: 0x871C, symBinAddr: 0x10000A29C, symSize: 0x14 }
  - { offsetInCU: 0x13C15, offset: 0x13C15, size: 0x8, addend: 0x0, symName: __ZNSt3__16vectorI11CommandNodeNS_9allocatorIS1_EEED2B7v160006Ev, symObjAddr: 0x8730, symBinAddr: 0x10000A2B0, symSize: 0x44 }
  - { offsetInCU: 0x13C3E, offset: 0x13C3E, size: 0x8, addend: 0x0, symName: __ZNSt3__16vectorI11CommandNodeNS_9allocatorIS1_EEE16__destroy_vectorC1ERS4_, symObjAddr: 0x8774, symBinAddr: 0x10000A2F4, symSize: 0x34 }
  - { offsetInCU: 0x13C75, offset: 0x13C75, size: 0x8, addend: 0x0, symName: __ZNSt3__16vectorI11CommandNodeNS_9allocatorIS1_EEE16__destroy_vectorclB7v160006Ev, symObjAddr: 0x87A8, symBinAddr: 0x10000A328, symSize: 0x9C }
  - { offsetInCU: 0x13C9A, offset: 0x13C9A, size: 0x8, addend: 0x0, symName: __ZNSt3__16vectorI11CommandNodeNS_9allocatorIS1_EEE16__destroy_vectorC2ERS4_, symObjAddr: 0x8844, symBinAddr: 0x10000A3C4, symSize: 0x20 }
  - { offsetInCU: 0x13CD1, offset: 0x13CD1, size: 0x8, addend: 0x0, symName: __ZNSt3__16vectorI11CommandNodeNS_9allocatorIS1_EEE11__make_iterB7v160006EPS1_, symObjAddr: 0x8874, symBinAddr: 0x10000A3F4, symSize: 0x34 }
  - { offsetInCU: 0x13D05, offset: 0x13D05, size: 0x8, addend: 0x0, symName: __ZNSt3__111__wrap_iterIP11CommandNodeEC1B7v160006EPKvS2_, symObjAddr: 0x88A8, symBinAddr: 0x10000A428, symSize: 0x3C }
  - { offsetInCU: 0x13D4A, offset: 0x13D4A, size: 0x8, addend: 0x0, symName: __ZNSt3__111__wrap_iterIP11CommandNodeEC2B7v160006EPKvS2_, symObjAddr: 0x88E4, symBinAddr: 0x10000A464, symSize: 0x24 }
  - { offsetInCU: 0x13D8E, offset: 0x13D8E, size: 0x8, addend: 0x0, symName: __ZNSt3__16vectorI11CommandNodeNS_9allocatorIS1_EEE17__destruct_at_endB7v160006EPS1_, symObjAddr: 0x8908, symBinAddr: 0x10000A488, symSize: 0x60 }
  - { offsetInCU: 0x13DD0, offset: 0x13DD0, size: 0x8, addend: 0x0, symName: __ZNSt3__16vectorI11CommandNodeNS_9allocatorIS1_EEE27__invalidate_iterators_pastB7v160006EPS1_, symObjAddr: 0x8968, symBinAddr: 0x10000A4E8, symSize: 0x14 }
  - { offsetInCU: 0x13E06, offset: 0x13E06, size: 0x8, addend: 0x0, symName: __ZNSt3__112basic_stringIcNS_11char_traitsIcEENS_9allocatorIcEEEC2B7v160006IDnEEPKc, symObjAddr: 0x897C, symBinAddr: 0x10000A4FC, symSize: 0x60 }
  - { offsetInCU: 0x13E43, offset: 0x13E43, size: 0x8, addend: 0x0, symName: __ZNSt3__111char_traitsIcE6lengthEPKc, symObjAddr: 0x89DC, symBinAddr: 0x10000A55C, symSize: 0x34 }
  - { offsetInCU: 0x13E65, offset: 0x13E65, size: 0x8, addend: 0x0, symName: __ZNKSt3__112basic_stringIcNS_11char_traitsIcEENS_9allocatorIcEEE4sizeB7v160006Ev, symObjAddr: 0x8A34, symBinAddr: 0x10000A5B4, symSize: 0x54 }
  - { offsetInCU: 0x13E94, offset: 0x13E94, size: 0x8, addend: 0x0, symName: __ZNSt3__116allocator_traitsINS_9allocatorIcEEE37select_on_container_copy_constructionB7v160006IS2_vvEES2_RKS2_, symObjAddr: 0x8A88, symBinAddr: 0x10000A608, symSize: 0x10 }
  - { offsetInCU: 0x13EC2, offset: 0x13EC2, size: 0x8, addend: 0x0, symName: __ZNKSt3__112basic_stringIcNS_11char_traitsIcEENS_9allocatorIcEEE13get_allocatorB7v160006Ev, symObjAddr: 0x8A98, symBinAddr: 0x10000A618, symSize: 0x24 }
  - { offsetInCU: 0x13EE7, offset: 0x13EE7, size: 0x8, addend: 0x0, symName: __ZNSt3__112basic_stringIcNS_11char_traitsIcEENS_9allocatorIcEEEC1B7v160006ENS_24__uninitialized_size_tagEmRKS4_, symObjAddr: 0x8ABC, symBinAddr: 0x10000A63C, symSize: 0x3C }
  - { offsetInCU: 0x13F39, offset: 0x13F39, size: 0x8, addend: 0x0, symName: __ZNSt3__112basic_stringIcNS_11char_traitsIcEENS_9allocatorIcEEE13__get_pointerB7v160006Ev, symObjAddr: 0x8B0C, symBinAddr: 0x10000A68C, symSize: 0x54 }
  - { offsetInCU: 0x13F5E, offset: 0x13F5E, size: 0x8, addend: 0x0, symName: __ZNSt3__111char_traitsIcE4copyEPcPKcm, symObjAddr: 0x8B60, symBinAddr: 0x10000A6E0, symSize: 0x5C }
  - { offsetInCU: 0x13F9C, offset: 0x13F9C, size: 0x8, addend: 0x0, symName: __ZNKSt3__112basic_stringIcNS_11char_traitsIcEENS_9allocatorIcEEE4dataB7v160006Ev, symObjAddr: 0x8BBC, symBinAddr: 0x10000A73C, symSize: 0x28 }
  - { offsetInCU: 0x13FC1, offset: 0x13FC1, size: 0x8, addend: 0x0, symName: __ZNSt3__111char_traitsIcE6assignEPcmc, symObjAddr: 0x8BE4, symBinAddr: 0x10000A764, symSize: 0x44 }
  - { offsetInCU: 0x13FFF, offset: 0x13FFF, size: 0x8, addend: 0x0, symName: __ZNKSt3__112basic_stringIcNS_11char_traitsIcEENS_9allocatorIcEEE9__is_longB7v160006Ev, symObjAddr: 0x8C28, symBinAddr: 0x10000A7A8, symSize: 0x38 }
  - { offsetInCU: 0x14023, offset: 0x14023, size: 0x8, addend: 0x0, symName: __ZNKSt3__112basic_stringIcNS_11char_traitsIcEENS_9allocatorIcEEE15__get_long_sizeB7v160006Ev, symObjAddr: 0x8C60, symBinAddr: 0x10000A7E0, symSize: 0x28 }
  - { offsetInCU: 0x14047, offset: 0x14047, size: 0x8, addend: 0x0, symName: __ZNKSt3__112basic_stringIcNS_11char_traitsIcEENS_9allocatorIcEEE16__get_short_sizeB7v160006Ev, symObjAddr: 0x8C88, symBinAddr: 0x10000A808, symSize: 0x34 }
  - { offsetInCU: 0x1406B, offset: 0x1406B, size: 0x8, addend: 0x0, symName: __ZNKSt3__117__compressed_pairINS_12basic_stringIcNS_11char_traitsIcEENS_9allocatorIcEEE5__repES5_E5firstB7v160006Ev, symObjAddr: 0x8CBC, symBinAddr: 0x10000A83C, symSize: 0x24 }
  - { offsetInCU: 0x1408F, offset: 0x1408F, size: 0x8, addend: 0x0, symName: __ZNKSt3__122__compressed_pair_elemINS_12basic_stringIcNS_11char_traitsIcEENS_9allocatorIcEEE5__repELi0ELb0EE5__getB7v160006Ev, symObjAddr: 0x8CE0, symBinAddr: 0x10000A860, symSize: 0x14 }
  - { offsetInCU: 0x140B3, offset: 0x140B3, size: 0x8, addend: 0x0, symName: __ZNKSt3__112basic_stringIcNS_11char_traitsIcEENS_9allocatorIcEEE7__allocB7v160006Ev, symObjAddr: 0x8CF4, symBinAddr: 0x10000A874, symSize: 0x24 }
  - { offsetInCU: 0x140D7, offset: 0x140D7, size: 0x8, addend: 0x0, symName: __ZNKSt3__117__compressed_pairINS_12basic_stringIcNS_11char_traitsIcEENS_9allocatorIcEEE5__repES5_E6secondB7v160006Ev, symObjAddr: 0x8D18, symBinAddr: 0x10000A898, symSize: 0x24 }
  - { offsetInCU: 0x140FB, offset: 0x140FB, size: 0x8, addend: 0x0, symName: __ZNKSt3__122__compressed_pair_elemINS_9allocatorIcEELi1ELb1EE5__getB7v160006Ev, symObjAddr: 0x8D3C, symBinAddr: 0x10000A8BC, symSize: 0x14 }
  - { offsetInCU: 0x14120, offset: 0x14120, size: 0x8, addend: 0x0, symName: __ZNSt3__112basic_stringIcNS_11char_traitsIcEENS_9allocatorIcEEEC2B7v160006ENS_24__uninitialized_size_tagEmRKS4_, symObjAddr: 0x8D50, symBinAddr: 0x10000A8D0, symSize: 0x118 }
  - { offsetInCU: 0x141A0, offset: 0x141A0, size: 0x8, addend: 0x0, symName: __ZNSt3__117__compressed_pairINS_12basic_stringIcNS_11char_traitsIcEENS_9allocatorIcEEE5__repES5_EC1B7v160006INS_18__default_init_tagERKS5_EEOT_OT0_, symObjAddr: 0x8E68, symBinAddr: 0x10000A9E8, symSize: 0x3C }
  - { offsetInCU: 0x141F6, offset: 0x141F6, size: 0x8, addend: 0x0, symName: __ZNKSt3__112basic_stringIcNS_11char_traitsIcEENS_9allocatorIcEEE8max_sizeB7v160006Ev, symObjAddr: 0x8EA4, symBinAddr: 0x10000AA24, symSize: 0xAC }
  - { offsetInCU: 0x14247, offset: 0x14247, size: 0x8, addend: 0x0, symName: __ZNKSt3__112basic_stringIcNS_11char_traitsIcEENS_9allocatorIcEEE20__throw_length_errorB7v160006Ev, symObjAddr: 0x8F50, symBinAddr: 0x10000AAD0, symSize: 0x1C }
  - { offsetInCU: 0x1426C, offset: 0x1426C, size: 0x8, addend: 0x0, symName: __ZNSt3__112basic_stringIcNS_11char_traitsIcEENS_9allocatorIcEEE13__fits_in_ssoB7v160006Em, symObjAddr: 0x8F6C, symBinAddr: 0x10000AAEC, symSize: 0x20 }
  - { offsetInCU: 0x1428F, offset: 0x1428F, size: 0x8, addend: 0x0, symName: __ZNSt3__112basic_stringIcNS_11char_traitsIcEENS_9allocatorIcEEE16__set_short_sizeB7v160006Em, symObjAddr: 0x8F8C, symBinAddr: 0x10000AB0C, symSize: 0x78 }
  - { offsetInCU: 0x142C3, offset: 0x142C3, size: 0x8, addend: 0x0, symName: __ZNSt3__112basic_stringIcNS_11char_traitsIcEENS_9allocatorIcEEE11__recommendB7v160006Em, symObjAddr: 0x9004, symBinAddr: 0x10000AB84, symSize: 0x84 }
  - { offsetInCU: 0x142F6, offset: 0x142F6, size: 0x8, addend: 0x0, symName: __ZNSt3__116allocator_traitsINS_9allocatorIcEEE8allocateB7v160006ERS2_m, symObjAddr: 0x9088, symBinAddr: 0x10000AC08, symSize: 0x2C }
  - { offsetInCU: 0x14328, offset: 0x14328, size: 0x8, addend: 0x0, symName: __ZNSt3__112basic_stringIcNS_11char_traitsIcEENS_9allocatorIcEEE7__allocB7v160006Ev, symObjAddr: 0x90B4, symBinAddr: 0x10000AC34, symSize: 0x24 }
  - { offsetInCU: 0x1434D, offset: 0x1434D, size: 0x8, addend: 0x0, symName: __ZNSt3__112basic_stringIcNS_11char_traitsIcEENS_9allocatorIcEEE16__begin_lifetimeB7v160006EPcm, symObjAddr: 0x90D8, symBinAddr: 0x10000AC58, symSize: 0x14 }
  - { offsetInCU: 0x1437F, offset: 0x1437F, size: 0x8, addend: 0x0, symName: __ZNSt3__112basic_stringIcNS_11char_traitsIcEENS_9allocatorIcEEE14__set_long_capB7v160006Em, symObjAddr: 0x90EC, symBinAddr: 0x10000AC6C, symSize: 0x70 }
  - { offsetInCU: 0x143B2, offset: 0x143B2, size: 0x8, addend: 0x0, symName: __ZNSt3__112basic_stringIcNS_11char_traitsIcEENS_9allocatorIcEEE18__set_long_pointerB7v160006EPc, symObjAddr: 0x915C, symBinAddr: 0x10000ACDC, symSize: 0x38 }
  - { offsetInCU: 0x143E5, offset: 0x143E5, size: 0x8, addend: 0x0, symName: __ZNSt3__112basic_stringIcNS_11char_traitsIcEENS_9allocatorIcEEE15__set_long_sizeB7v160006Em, symObjAddr: 0x9194, symBinAddr: 0x10000AD14, symSize: 0x38 }
  - { offsetInCU: 0x14419, offset: 0x14419, size: 0x8, addend: 0x0, symName: __ZNSt3__117__compressed_pairINS_12basic_stringIcNS_11char_traitsIcEENS_9allocatorIcEEE5__repES5_EC2B7v160006INS_18__default_init_tagERKS5_EEOT_OT0_, symObjAddr: 0x91CC, symBinAddr: 0x10000AD4C, symSize: 0x40 }
  - { offsetInCU: 0x14470, offset: 0x14470, size: 0x8, addend: 0x0, symName: __ZNSt3__122__compressed_pair_elemINS_9allocatorIcEELi1ELb1EEC2B7v160006IRKS2_vEEOT_, symObjAddr: 0x920C, symBinAddr: 0x10000AD8C, symSize: 0x18 }
  - { offsetInCU: 0x144B1, offset: 0x144B1, size: 0x8, addend: 0x0, symName: __ZNSt3__116allocator_traitsINS_9allocatorIcEEE8max_sizeB7v160006IS2_vEEmRKS2_, symObjAddr: 0x9224, symBinAddr: 0x10000ADA4, symSize: 0x24 }
  - { offsetInCU: 0x144DF, offset: 0x144DF, size: 0x8, addend: 0x0, symName: __ZNSt3__114numeric_limitsImE3maxB7v160006Ev, symObjAddr: 0x9248, symBinAddr: 0x10000ADC8, symSize: 0x14 }
  - { offsetInCU: 0x144F2, offset: 0x144F2, size: 0x8, addend: 0x0, symName: __ZNKSt3__19allocatorIcE8max_sizeB7v160006Ev, symObjAddr: 0x925C, symBinAddr: 0x10000ADDC, symSize: 0x14 }
  - { offsetInCU: 0x14517, offset: 0x14517, size: 0x8, addend: 0x0, symName: __ZNSt3__123__libcpp_numeric_limitsImLb1EE3maxB7v160006Ev, symObjAddr: 0x9270, symBinAddr: 0x10000ADF0, symSize: 0x8 }
  - { offsetInCU: 0x1452B, offset: 0x1452B, size: 0x8, addend: 0x0, symName: __ZNSt3__112basic_stringIcNS_11char_traitsIcEENS_9allocatorIcEEE10__align_itB7v160006ILm16EEEmm, symObjAddr: 0x9278, symBinAddr: 0x10000ADF8, symSize: 0x1C }
  - { offsetInCU: 0x14558, offset: 0x14558, size: 0x8, addend: 0x0, symName: __ZNSt3__19allocatorIcE8allocateB7v160006Em, symObjAddr: 0x9294, symBinAddr: 0x10000AE14, symSize: 0x58 }
  - { offsetInCU: 0x1458A, offset: 0x1458A, size: 0x8, addend: 0x0, symName: __ZNSt3__117__compressed_pairINS_12basic_stringIcNS_11char_traitsIcEENS_9allocatorIcEEE5__repES5_E6secondB7v160006Ev, symObjAddr: 0x92EC, symBinAddr: 0x10000AE6C, symSize: 0x24 }
  - { offsetInCU: 0x145AE, offset: 0x145AE, size: 0x8, addend: 0x0, symName: __ZNSt3__122__compressed_pair_elemINS_9allocatorIcEELi1ELb1EE5__getB7v160006Ev, symObjAddr: 0x9310, symBinAddr: 0x10000AE90, symSize: 0x14 }
  - { offsetInCU: 0x145D2, offset: 0x145D2, size: 0x8, addend: 0x0, symName: __ZNSt3__112basic_stringIcNS_11char_traitsIcEENS_9allocatorIcEEE18__get_long_pointerB7v160006Ev, symObjAddr: 0x9324, symBinAddr: 0x10000AEA4, symSize: 0x28 }
  - { offsetInCU: 0x145F6, offset: 0x145F6, size: 0x8, addend: 0x0, symName: __ZNSt3__112basic_stringIcNS_11char_traitsIcEENS_9allocatorIcEEE19__get_short_pointerB7v160006Ev, symObjAddr: 0x934C, symBinAddr: 0x10000AECC, symSize: 0x28 }
  - { offsetInCU: 0x1461B, offset: 0x1461B, size: 0x8, addend: 0x0, symName: __ZNSt3__114pointer_traitsIPcE10pointer_toB7v160006ERc, symObjAddr: 0x9374, symBinAddr: 0x10000AEF4, symSize: 0x14 }
  - { offsetInCU: 0x14660, offset: 0x14660, size: 0x8, addend: 0x0, symName: __ZNKSt3__114__copy_trivialclB7v160006IKccLi0EEENS_4pairIPT_PT0_EES5_S5_S7_, symObjAddr: 0x95A8, symBinAddr: 0x10000B128, symSize: 0x48 }
  - { offsetInCU: 0x146E5, offset: 0x146E5, size: 0x8, addend: 0x0, symName: __ZNSt3__14pairIPKcS2_EC1B7v160006IS2_S2_LPv0EEEOT_OT0_, symObjAddr: 0x9710, symBinAddr: 0x10000B290, symSize: 0x3C }
  - { offsetInCU: 0x14742, offset: 0x14742, size: 0x8, addend: 0x0, symName: __ZNSt3__14pairIPKcS2_EC2B7v160006IS2_S2_LPv0EEEOT_OT0_, symObjAddr: 0x974C, symBinAddr: 0x10000B2CC, symSize: 0x34 }
  - { offsetInCU: 0x1479F, offset: 0x1479F, size: 0x8, addend: 0x0, symName: __ZNSt3__118__unwrap_iter_implIPKcLb1EE8__unwrapB7v160006ES2_, symObjAddr: 0x9780, symBinAddr: 0x10000B300, symSize: 0x24 }
  - { offsetInCU: 0x147CC, offset: 0x147CC, size: 0x8, addend: 0x0, symName: __ZNSt3__14pairIPKcPcEC1B7v160006IRS2_S3_LPv0EEEOT_OT0_, symObjAddr: 0x986C, symBinAddr: 0x10000B3EC, symSize: 0x3C }
  - { offsetInCU: 0x14829, offset: 0x14829, size: 0x8, addend: 0x0, symName: __ZNSt3__14pairIPKcPcEC2B7v160006IRS2_S3_LPv0EEEOT_OT0_, symObjAddr: 0x98A8, symBinAddr: 0x10000B428, symSize: 0x34 }
  - { offsetInCU: 0x14886, offset: 0x14886, size: 0x8, addend: 0x0, symName: __ZNSt3__118__unwrap_iter_implIPcLb1EE8__unwrapB7v160006ES1_, symObjAddr: 0x98DC, symBinAddr: 0x10000B45C, symSize: 0x24 }
  - { offsetInCU: 0x148A9, offset: 0x148A9, size: 0x8, addend: 0x0, symName: __ZNSt3__14pairIPKcPcEC1B7v160006IS2_S3_LPv0EEEOT_OT0_, symObjAddr: 0x9900, symBinAddr: 0x10000B480, symSize: 0x3C }
  - { offsetInCU: 0x14906, offset: 0x14906, size: 0x8, addend: 0x0, symName: __ZNSt3__14pairIPKcPcEC2B7v160006IS2_S3_LPv0EEEOT_OT0_, symObjAddr: 0x993C, symBinAddr: 0x10000B4BC, symSize: 0x34 }
  - { offsetInCU: 0x14963, offset: 0x14963, size: 0x8, addend: 0x0, symName: __ZNSt3__118__unwrap_iter_implIPKcLb1EE8__rewrapB7v160006ES2_S2_, symObjAddr: 0x99AC, symBinAddr: 0x10000B52C, symSize: 0x48 }
  - { offsetInCU: 0x14994, offset: 0x14994, size: 0x8, addend: 0x0, symName: __ZNSt3__118__unwrap_iter_implIPcLb1EE8__rewrapB7v160006ES1_S1_, symObjAddr: 0x99F4, symBinAddr: 0x10000B574, symSize: 0x48 }
  - { offsetInCU: 0x149C4, offset: 0x149C4, size: 0x8, addend: 0x0, symName: __ZNKSt3__112basic_stringIcNS_11char_traitsIcEENS_9allocatorIcEEE13__get_pointerB7v160006Ev, symObjAddr: 0x9A3C, symBinAddr: 0x10000B5BC, symSize: 0x54 }
  - { offsetInCU: 0x149E8, offset: 0x149E8, size: 0x8, addend: 0x0, symName: __ZNKSt3__112basic_stringIcNS_11char_traitsIcEENS_9allocatorIcEEE18__get_long_pointerB7v160006Ev, symObjAddr: 0x9A90, symBinAddr: 0x10000B610, symSize: 0x28 }
  - { offsetInCU: 0x14A0C, offset: 0x14A0C, size: 0x8, addend: 0x0, symName: __ZNKSt3__112basic_stringIcNS_11char_traitsIcEENS_9allocatorIcEEE19__get_short_pointerB7v160006Ev, symObjAddr: 0x9AB8, symBinAddr: 0x10000B638, symSize: 0x28 }
  - { offsetInCU: 0x14A31, offset: 0x14A31, size: 0x8, addend: 0x0, symName: __ZNSt3__114pointer_traitsIPKcE10pointer_toB7v160006ERS1_, symObjAddr: 0x9AE0, symBinAddr: 0x10000B660, symSize: 0x14 }
  - { offsetInCU: 0x14A53, offset: 0x14A53, size: 0x8, addend: 0x0, symName: __ZNSt3__112basic_stringIcNS_11char_traitsIcEENS_9allocatorIcEEE13__move_assignB7v160006ERS5_NS_17integral_constantIbLb1EEE, symObjAddr: 0x9BB0, symBinAddr: 0x10000B730, symSize: 0xC8 }
  - { offsetInCU: 0x14A95, offset: 0x14A95, size: 0x8, addend: 0x0, symName: __ZNSt3__116allocator_traitsINS_9allocatorIcEEE10deallocateB7v160006ERS2_Pcm, symObjAddr: 0x9C78, symBinAddr: 0x10000B7F8, symSize: 0x34 }
  - { offsetInCU: 0x14AD6, offset: 0x14AD6, size: 0x8, addend: 0x0, symName: __ZNKSt3__112basic_stringIcNS_11char_traitsIcEENS_9allocatorIcEEE14__get_long_capB7v160006Ev, symObjAddr: 0x9CAC, symBinAddr: 0x10000B82C, symSize: 0x30 }
  - { offsetInCU: 0x14AFA, offset: 0x14AFA, size: 0x8, addend: 0x0, symName: __ZNSt3__112basic_stringIcNS_11char_traitsIcEENS_9allocatorIcEEE19__move_assign_allocB7v160006ERS5_, symObjAddr: 0x9CDC, symBinAddr: 0x10000B85C, symSize: 0x2C }
  - { offsetInCU: 0x14B2E, offset: 0x14B2E, size: 0x8, addend: 0x0, symName: __ZNSt3__111char_traitsIcE6assignERcRKc, symObjAddr: 0x9D08, symBinAddr: 0x10000B888, symSize: 0x24 }
  - { offsetInCU: 0x14B5E, offset: 0x14B5E, size: 0x8, addend: 0x0, symName: __ZNSt3__19allocatorIcE10deallocateB7v160006EPcm, symObjAddr: 0x9D2C, symBinAddr: 0x10000B8AC, symSize: 0x40 }
  - { offsetInCU: 0x14B9E, offset: 0x14B9E, size: 0x8, addend: 0x0, symName: __ZNSt3__112basic_stringIcNS_11char_traitsIcEENS_9allocatorIcEEE19__move_assign_allocB7v160006ERS5_NS_17integral_constantIbLb1EEE, symObjAddr: 0x9D6C, symBinAddr: 0x10000B8EC, symSize: 0x38 }
  - { offsetInCU: 0x14BDE, offset: 0x14BDE, size: 0x8, addend: 0x0, symName: __ZNSt3__16vectorI9tVarValueNS_9allocatorIS1_EEEC2B7v160006Ev, symObjAddr: 0x9DA4, symBinAddr: 0x10000B924, symSize: 0x58 }
  - { offsetInCU: 0x14C07, offset: 0x14C07, size: 0x8, addend: 0x0, symName: __ZNSt3__117__compressed_pairIP9tVarValueNS_9allocatorIS1_EEEC1B7v160006IDnNS_18__default_init_tagEEEOT_OT0_, symObjAddr: 0x9DFC, symBinAddr: 0x10000B97C, symSize: 0x3C }
  - { offsetInCU: 0x14C5E, offset: 0x14C5E, size: 0x8, addend: 0x0, symName: __ZNSt3__117__compressed_pairIP9tVarValueNS_9allocatorIS1_EEEC2B7v160006IDnNS_18__default_init_tagEEEOT_OT0_, symObjAddr: 0x9E48, symBinAddr: 0x10000B9C8, symSize: 0x40 }
  - { offsetInCU: 0x14CB5, offset: 0x14CB5, size: 0x8, addend: 0x0, symName: __ZNSt3__122__compressed_pair_elemIP9tVarValueLi0ELb0EEC2B7v160006IDnvEEOT_, symObjAddr: 0x9E88, symBinAddr: 0x10000BA08, symSize: 0x1C }
  - { offsetInCU: 0x14CF6, offset: 0x14CF6, size: 0x8, addend: 0x0, symName: __ZNSt3__122__compressed_pair_elemINS_9allocatorI9tVarValueEELi1ELb1EEC2B7v160006ENS_18__default_init_tagE, symObjAddr: 0x9EA4, symBinAddr: 0x10000BA24, symSize: 0x2C }
  - { offsetInCU: 0x14D29, offset: 0x14D29, size: 0x8, addend: 0x0, symName: __ZNSt3__19allocatorI9tVarValueEC2B7v160006Ev, symObjAddr: 0x9ED0, symBinAddr: 0x10000BA50, symSize: 0x2C }
  - { offsetInCU: 0x14D52, offset: 0x14D52, size: 0x8, addend: 0x0, symName: __ZNSt3__116__non_trivial_ifILb1ENS_9allocatorI9tVarValueEEEC2B7v160006Ev, symObjAddr: 0x9EFC, symBinAddr: 0x10000BA7C, symSize: 0x14 }
  - { offsetInCU: 0x14D7B, offset: 0x14D7B, size: 0x8, addend: 0x0, symName: __ZNSt3__16vectorI9tVarValueNS_9allocatorIS1_EEED2B7v160006Ev, symObjAddr: 0x9F10, symBinAddr: 0x10000BA90, symSize: 0x44 }
  - { offsetInCU: 0x14DA4, offset: 0x14DA4, size: 0x8, addend: 0x0, symName: __ZNSt3__16vectorI9tVarValueNS_9allocatorIS1_EEE16__destroy_vectorC1ERS4_, symObjAddr: 0x9F54, symBinAddr: 0x10000BAD4, symSize: 0x34 }
  - { offsetInCU: 0x14DDB, offset: 0x14DDB, size: 0x8, addend: 0x0, symName: __ZNSt3__16vectorI9tVarValueNS_9allocatorIS1_EEE16__destroy_vectorclB7v160006Ev, symObjAddr: 0x9F88, symBinAddr: 0x10000BB08, symSize: 0x9C }
  - { offsetInCU: 0x14E00, offset: 0x14E00, size: 0x8, addend: 0x0, symName: __ZNSt3__16vectorI9tVarValueNS_9allocatorIS1_EEE16__destroy_vectorC2ERS4_, symObjAddr: 0xA024, symBinAddr: 0x10000BBA4, symSize: 0x20 }
  - { offsetInCU: 0x14E37, offset: 0x14E37, size: 0x8, addend: 0x0, symName: __ZNKSt3__16vectorI9tVarValueNS_9allocatorIS1_EEE17__annotate_deleteB7v160006Ev, symObjAddr: 0xA044, symBinAddr: 0x10000BBC4, symSize: 0xD4 }
  - { offsetInCU: 0x14E5B, offset: 0x14E5B, size: 0x8, addend: 0x0, symName: __ZNSt3__16vectorI9tVarValueNS_9allocatorIS1_EEE7__clearB7v160006Ev, symObjAddr: 0xA128, symBinAddr: 0x10000BCA8, symSize: 0x28 }
  - { offsetInCU: 0x14E80, offset: 0x14E80, size: 0x8, addend: 0x0, symName: __ZNSt3__116allocator_traitsINS_9allocatorI9tVarValueEEE10deallocateB7v160006ERS3_PS2_m, symObjAddr: 0xA150, symBinAddr: 0x10000BCD0, symSize: 0x34 }
  - { offsetInCU: 0x14EC1, offset: 0x14EC1, size: 0x8, addend: 0x0, symName: __ZNSt3__16vectorI9tVarValueNS_9allocatorIS1_EEE7__allocB7v160006Ev, symObjAddr: 0xA184, symBinAddr: 0x10000BD04, symSize: 0x28 }
  - { offsetInCU: 0x14EE5, offset: 0x14EE5, size: 0x8, addend: 0x0, symName: __ZNKSt3__16vectorI9tVarValueNS_9allocatorIS1_EEE8capacityB7v160006Ev, symObjAddr: 0xA1AC, symBinAddr: 0x10000BD2C, symSize: 0x40 }
  - { offsetInCU: 0x14F09, offset: 0x14F09, size: 0x8, addend: 0x0, symName: __ZNKSt3__16vectorI9tVarValueNS_9allocatorIS1_EEE31__annotate_contiguous_containerB7v160006EPKvS6_S6_S6_, symObjAddr: 0xA1EC, symBinAddr: 0x10000BD6C, symSize: 0x20 }
  - { offsetInCU: 0x14F5D, offset: 0x14F5D, size: 0x8, addend: 0x0, symName: __ZNKSt3__16vectorI9tVarValueNS_9allocatorIS1_EEE4dataB7v160006Ev, symObjAddr: 0xA20C, symBinAddr: 0x10000BD8C, symSize: 0x28 }
  - { offsetInCU: 0x14F81, offset: 0x14F81, size: 0x8, addend: 0x0, symName: __ZNSt3__16vectorI9tVarValueNS_9allocatorIS1_EEE22__base_destruct_at_endB7v160006EPS1_, symObjAddr: 0xA248, symBinAddr: 0x10000BDC8, symSize: 0x8C }
  - { offsetInCU: 0x14FC4, offset: 0x14FC4, size: 0x8, addend: 0x0, symName: __ZNSt3__116allocator_traitsINS_9allocatorI9tVarValueEEE7destroyB7v160006IS2_vEEvRS3_PT_, symObjAddr: 0xA2D4, symBinAddr: 0x10000BE54, symSize: 0x2C }
  - { offsetInCU: 0x15000, offset: 0x15000, size: 0x8, addend: 0x0, symName: __ZNSt3__19allocatorI9tVarValueE7destroyB7v160006EPS1_, symObjAddr: 0xA300, symBinAddr: 0x10000BE80, symSize: 0x28 }
  - { offsetInCU: 0x15032, offset: 0x15032, size: 0x8, addend: 0x0, symName: __ZNSt3__19allocatorI9tVarValueE10deallocateB7v160006EPS1_m, symObjAddr: 0xA328, symBinAddr: 0x10000BEA8, symSize: 0x44 }
  - { offsetInCU: 0x15072, offset: 0x15072, size: 0x8, addend: 0x0, symName: __ZNSt3__117__compressed_pairIP9tVarValueNS_9allocatorIS1_EEE6secondB7v160006Ev, symObjAddr: 0xA36C, symBinAddr: 0x10000BEEC, symSize: 0x24 }
  - { offsetInCU: 0x15096, offset: 0x15096, size: 0x8, addend: 0x0, symName: __ZNSt3__122__compressed_pair_elemINS_9allocatorI9tVarValueEELi1ELb1EE5__getB7v160006Ev, symObjAddr: 0xA390, symBinAddr: 0x10000BF10, symSize: 0x14 }
  - { offsetInCU: 0x150BA, offset: 0x150BA, size: 0x8, addend: 0x0, symName: __ZNKSt3__16vectorI9tVarValueNS_9allocatorIS1_EEE9__end_capB7v160006Ev, symObjAddr: 0xA3A4, symBinAddr: 0x10000BF24, symSize: 0x28 }
  - { offsetInCU: 0x150DE, offset: 0x150DE, size: 0x8, addend: 0x0, symName: __ZNKSt3__117__compressed_pairIP9tVarValueNS_9allocatorIS1_EEE5firstB7v160006Ev, symObjAddr: 0xA3CC, symBinAddr: 0x10000BF4C, symSize: 0x24 }
  - { offsetInCU: 0x15102, offset: 0x15102, size: 0x8, addend: 0x0, symName: __ZNKSt3__122__compressed_pair_elemIP9tVarValueLi0ELb0EE5__getB7v160006Ev, symObjAddr: 0xA3F0, symBinAddr: 0x10000BF70, symSize: 0x14 }
  - { offsetInCU: 0x15126, offset: 0x15126, size: 0x8, addend: 0x0, symName: __ZNSt3__16vectorI9tVarValueNS_9allocatorIS1_EEE9__end_capB7v160006Ev, symObjAddr: 0xA404, symBinAddr: 0x10000BF84, symSize: 0x28 }
  - { offsetInCU: 0x1514A, offset: 0x1514A, size: 0x8, addend: 0x0, symName: __ZNSt3__16vectorI9tVarValueNS_9allocatorIS1_EEE22__construct_one_at_endB7v160006IJRKS1_EEEvDpOT_, symObjAddr: 0xA42C, symBinAddr: 0x10000BFAC, symSize: 0x90 }
  - { offsetInCU: 0x15197, offset: 0x15197, size: 0x8, addend: 0x0, symName: __ZNSt3__16vectorI9tVarValueNS_9allocatorIS1_EEE21__push_back_slow_pathIRKS1_EEvOT_, symObjAddr: 0xA4BC, symBinAddr: 0x10000C03C, symSize: 0xD8 }
  - { offsetInCU: 0x151F3, offset: 0x151F3, size: 0x8, addend: 0x0, symName: __ZNSt3__117__compressed_pairIP9tVarValueNS_9allocatorIS1_EEE5firstB7v160006Ev, symObjAddr: 0xA594, symBinAddr: 0x10000C114, symSize: 0x24 }
  - { offsetInCU: 0x15217, offset: 0x15217, size: 0x8, addend: 0x0, symName: __ZNSt3__122__compressed_pair_elemIP9tVarValueLi0ELb0EE5__getB7v160006Ev, symObjAddr: 0xA5B8, symBinAddr: 0x10000C138, symSize: 0x14 }
  - { offsetInCU: 0x15255, offset: 0x15255, size: 0x8, addend: 0x0, symName: __ZNSt3__16vectorI9tVarValueNS_9allocatorIS1_EEE21_ConstructTransactionC1B7v160006ERS4_m, symObjAddr: 0xA5CC, symBinAddr: 0x10000C14C, symSize: 0x3C }
  - { offsetInCU: 0x1529C, offset: 0x1529C, size: 0x8, addend: 0x0, symName: __ZNSt3__116allocator_traitsINS_9allocatorI9tVarValueEEE9constructB7v160006IS2_JRKS2_EvEEvRS3_PT_DpOT0_, symObjAddr: 0xA608, symBinAddr: 0x10000C188, symSize: 0x34 }
  - { offsetInCU: 0x152F3, offset: 0x152F3, size: 0x8, addend: 0x0, symName: __ZNSt3__16vectorI9tVarValueNS_9allocatorIS1_EEE21_ConstructTransactionD1B7v160006Ev, symObjAddr: 0xA63C, symBinAddr: 0x10000C1BC, symSize: 0x2C }
  - { offsetInCU: 0x1531C, offset: 0x1531C, size: 0x8, addend: 0x0, symName: __ZNSt3__16vectorI9tVarValueNS_9allocatorIS1_EEE21_ConstructTransactionC2B7v160006ERS4_m, symObjAddr: 0xA668, symBinAddr: 0x10000C1E8, symSize: 0x4C }
  - { offsetInCU: 0x15362, offset: 0x15362, size: 0x8, addend: 0x0, symName: __ZNSt3__19allocatorI9tVarValueE9constructB7v160006IS1_JRKS1_EEEvPT_DpOT0_, symObjAddr: 0xA6B4, symBinAddr: 0x10000C234, symSize: 0x30 }
  - { offsetInCU: 0x153B6, offset: 0x153B6, size: 0x8, addend: 0x0, symName: __ZN9tVarValueC1ERKS_, symObjAddr: 0xA6E4, symBinAddr: 0x10000C264, symSize: 0x34 }
  - { offsetInCU: 0x153E9, offset: 0x153E9, size: 0x8, addend: 0x0, symName: __ZN9tVarValueC2ERKS_, symObjAddr: 0xA718, symBinAddr: 0x10000C298, symSize: 0x54 }
  - { offsetInCU: 0x1541D, offset: 0x1541D, size: 0x8, addend: 0x0, symName: __ZNSt3__16vectorI9tVarValueNS_9allocatorIS1_EEE21_ConstructTransactionD2B7v160006Ev, symObjAddr: 0xA76C, symBinAddr: 0x10000C2EC, symSize: 0x20 }
  - { offsetInCU: 0x15445, offset: 0x15445, size: 0x8, addend: 0x0, symName: __ZNKSt3__16vectorI9tVarValueNS_9allocatorIS1_EEE11__recommendB7v160006Em, symObjAddr: 0xA78C, symBinAddr: 0x10000C30C, symSize: 0xB4 }
  - { offsetInCU: 0x15499, offset: 0x15499, size: 0x8, addend: 0x0, symName: __ZNSt3__114__split_bufferI9tVarValueRNS_9allocatorIS1_EEEC1EmmS4_, symObjAddr: 0xA840, symBinAddr: 0x10000C3C0, symSize: 0x44 }
  - { offsetInCU: 0x154ED, offset: 0x154ED, size: 0x8, addend: 0x0, symName: __ZNSt3__114__split_bufferI9tVarValueRNS_9allocatorIS1_EEED1Ev, symObjAddr: 0xA99C, symBinAddr: 0x10000C51C, symSize: 0x2C }
  - { offsetInCU: 0x15516, offset: 0x15516, size: 0x8, addend: 0x0, symName: __ZNKSt3__16vectorI9tVarValueNS_9allocatorIS1_EEE8max_sizeEv, symObjAddr: 0xA9C8, symBinAddr: 0x10000C548, symSize: 0x60 }
  - { offsetInCU: 0x1553C, offset: 0x1553C, size: 0x8, addend: 0x0, symName: __ZNKSt3__16vectorI9tVarValueNS_9allocatorIS1_EEE20__throw_length_errorB7v160006Ev, symObjAddr: 0xAA28, symBinAddr: 0x10000C5A8, symSize: 0x1C }
  - { offsetInCU: 0x1556B, offset: 0x1556B, size: 0x8, addend: 0x0, symName: __ZNSt3__116allocator_traitsINS_9allocatorI9tVarValueEEE8max_sizeB7v160006IS3_vEEmRKS3_, symObjAddr: 0xAA44, symBinAddr: 0x10000C5C4, symSize: 0x24 }
  - { offsetInCU: 0x15598, offset: 0x15598, size: 0x8, addend: 0x0, symName: __ZNKSt3__16vectorI9tVarValueNS_9allocatorIS1_EEE7__allocB7v160006Ev, symObjAddr: 0xAA68, symBinAddr: 0x10000C5E8, symSize: 0x28 }
  - { offsetInCU: 0x155BC, offset: 0x155BC, size: 0x8, addend: 0x0, symName: __ZNKSt3__19allocatorI9tVarValueE8max_sizeB7v160006Ev, symObjAddr: 0xAA90, symBinAddr: 0x10000C610, symSize: 0x18 }
  - { offsetInCU: 0x155E0, offset: 0x155E0, size: 0x8, addend: 0x0, symName: __ZNKSt3__117__compressed_pairIP9tVarValueNS_9allocatorIS1_EEE6secondB7v160006Ev, symObjAddr: 0xAAA8, symBinAddr: 0x10000C628, symSize: 0x24 }
  - { offsetInCU: 0x15604, offset: 0x15604, size: 0x8, addend: 0x0, symName: __ZNKSt3__122__compressed_pair_elemINS_9allocatorI9tVarValueEELi1ELb1EE5__getB7v160006Ev, symObjAddr: 0xAACC, symBinAddr: 0x10000C64C, symSize: 0x14 }
  - { offsetInCU: 0x15629, offset: 0x15629, size: 0x8, addend: 0x0, symName: __ZNSt3__114__split_bufferI9tVarValueRNS_9allocatorIS1_EEEC2EmmS4_, symObjAddr: 0xAAE0, symBinAddr: 0x10000C660, symSize: 0xE0 }
  - { offsetInCU: 0x1569B, offset: 0x1569B, size: 0x8, addend: 0x0, symName: __ZNSt3__117__compressed_pairIP9tVarValueRNS_9allocatorIS1_EEEC1B7v160006IDnS5_EEOT_OT0_, symObjAddr: 0xABC0, symBinAddr: 0x10000C740, symSize: 0x3C }
  - { offsetInCU: 0x156F1, offset: 0x156F1, size: 0x8, addend: 0x0, symName: __ZNSt3__114__split_bufferI9tVarValueRNS_9allocatorIS1_EEE7__allocB7v160006Ev, symObjAddr: 0xAC3C, symBinAddr: 0x10000C7BC, symSize: 0x28 }
  - { offsetInCU: 0x15715, offset: 0x15715, size: 0x8, addend: 0x0, symName: __ZNSt3__114__split_bufferI9tVarValueRNS_9allocatorIS1_EEE9__end_capB7v160006Ev, symObjAddr: 0xAC64, symBinAddr: 0x10000C7E4, symSize: 0x28 }
  - { offsetInCU: 0x1573A, offset: 0x1573A, size: 0x8, addend: 0x0, symName: __ZNSt3__117__compressed_pairIP9tVarValueRNS_9allocatorIS1_EEEC2B7v160006IDnS5_EEOT_OT0_, symObjAddr: 0xAC8C, symBinAddr: 0x10000C80C, symSize: 0x48 }
  - { offsetInCU: 0x15791, offset: 0x15791, size: 0x8, addend: 0x0, symName: __ZNSt3__122__compressed_pair_elemIRNS_9allocatorI9tVarValueEELi1ELb0EEC2B7v160006IS4_vEEOT_, symObjAddr: 0xACD4, symBinAddr: 0x10000C854, symSize: 0x20 }
  - { offsetInCU: 0x157D1, offset: 0x157D1, size: 0x8, addend: 0x0, symName: __ZNSt3__19allocatorI9tVarValueE8allocateB7v160006Em, symObjAddr: 0xACF4, symBinAddr: 0x10000C874, symSize: 0x5C }
  - { offsetInCU: 0x15803, offset: 0x15803, size: 0x8, addend: 0x0, symName: __ZNSt3__117__compressed_pairIP9tVarValueRNS_9allocatorIS1_EEE6secondB7v160006Ev, symObjAddr: 0xAD50, symBinAddr: 0x10000C8D0, symSize: 0x28 }
  - { offsetInCU: 0x15827, offset: 0x15827, size: 0x8, addend: 0x0, symName: __ZNSt3__122__compressed_pair_elemIRNS_9allocatorI9tVarValueEELi1ELb0EE5__getB7v160006Ev, symObjAddr: 0xAD78, symBinAddr: 0x10000C8F8, symSize: 0x18 }
  - { offsetInCU: 0x1584B, offset: 0x1584B, size: 0x8, addend: 0x0, symName: __ZNSt3__117__compressed_pairIP9tVarValueRNS_9allocatorIS1_EEE5firstB7v160006Ev, symObjAddr: 0xAD90, symBinAddr: 0x10000C910, symSize: 0x24 }
  - { offsetInCU: 0x15870, offset: 0x15870, size: 0x8, addend: 0x0, symName: __ZNSt3__116reverse_iteratorIP9tVarValueEC1B7v160006ES2_, symObjAddr: 0xAEE0, symBinAddr: 0x10000CA60, symSize: 0x34 }
  - { offsetInCU: 0x158A6, offset: 0x158A6, size: 0x8, addend: 0x0, symName: __ZNKSt3__116reverse_iteratorIP9tVarValueE4baseB7v160006Ev, symObjAddr: 0xAF14, symBinAddr: 0x10000CA94, symSize: 0x18 }
  - { offsetInCU: 0x158CA, offset: 0x158CA, size: 0x8, addend: 0x0, symName: __ZNKSt3__16vectorI9tVarValueNS_9allocatorIS1_EEE14__annotate_newB7v160006Em, symObjAddr: 0xAF68, symBinAddr: 0x10000CAE8, symSize: 0xC8 }
  - { offsetInCU: 0x158FE, offset: 0x158FE, size: 0x8, addend: 0x0, symName: __ZNSt3__129_AllocatorDestroyRangeReverseINS_9allocatorI9tVarValueEENS_16reverse_iteratorIPS2_EEEC1B7v160006ERS3_RS6_S9_, symObjAddr: 0xB08C, symBinAddr: 0x10000CC0C, symSize: 0x44 }
  - { offsetInCU: 0x15959, offset: 0x15959, size: 0x8, addend: 0x0, symName: __ZNSt3__116allocator_traitsINS_9allocatorI9tVarValueEEE9constructB7v160006IS2_JS2_EvEEvRS3_PT_DpOT0_, symObjAddr: 0xB118, symBinAddr: 0x10000CC98, symSize: 0x34 }
  - { offsetInCU: 0x159AF, offset: 0x159AF, size: 0x8, addend: 0x0, symName: __ZNKSt3__116reverse_iteratorIP9tVarValueEdeB7v160006Ev, symObjAddr: 0xB170, symBinAddr: 0x10000CCF0, symSize: 0x28 }
  - { offsetInCU: 0x159E1, offset: 0x159E1, size: 0x8, addend: 0x0, symName: __ZNSt3__116reverse_iteratorIP9tVarValueEppB7v160006Ev, symObjAddr: 0xB198, symBinAddr: 0x10000CD18, symSize: 0x20 }
  - { offsetInCU: 0x15A05, offset: 0x15A05, size: 0x8, addend: 0x0, symName: __ZNSt3__128__exception_guard_exceptionsINS_29_AllocatorDestroyRangeReverseINS_9allocatorI9tVarValueEENS_16reverse_iteratorIPS3_EEEEE10__completeB7v160006Ev, symObjAddr: 0xB1B8, symBinAddr: 0x10000CD38, symSize: 0x1C }
  - { offsetInCU: 0x15A2A, offset: 0x15A2A, size: 0x8, addend: 0x0, symName: __ZNSt3__128__exception_guard_exceptionsINS_29_AllocatorDestroyRangeReverseINS_9allocatorI9tVarValueEENS_16reverse_iteratorIPS3_EEEEED1B7v160006Ev, symObjAddr: 0xB1D4, symBinAddr: 0x10000CD54, symSize: 0x2C }
  - { offsetInCU: 0x15A53, offset: 0x15A53, size: 0x8, addend: 0x0, symName: __ZNSt3__128__exception_guard_exceptionsINS_29_AllocatorDestroyRangeReverseINS_9allocatorI9tVarValueEENS_16reverse_iteratorIPS3_EEEEEC1B7v160006ES8_, symObjAddr: 0xB200, symBinAddr: 0x10000CD80, symSize: 0x34 }
  - { offsetInCU: 0x15A8B, offset: 0x15A8B, size: 0x8, addend: 0x0, symName: __ZNSt3__128__exception_guard_exceptionsINS_29_AllocatorDestroyRangeReverseINS_9allocatorI9tVarValueEENS_16reverse_iteratorIPS3_EEEEEC2B7v160006ES8_, symObjAddr: 0xB234, symBinAddr: 0x10000CDB4, symSize: 0x30 }
  - { offsetInCU: 0x15AC3, offset: 0x15AC3, size: 0x8, addend: 0x0, symName: __ZNSt3__129_AllocatorDestroyRangeReverseINS_9allocatorI9tVarValueEENS_16reverse_iteratorIPS2_EEEC2B7v160006ERS3_RS6_S9_, symObjAddr: 0xB264, symBinAddr: 0x10000CDE4, symSize: 0x38 }
  - { offsetInCU: 0x15B18, offset: 0x15B18, size: 0x8, addend: 0x0, symName: __ZNSt3__19allocatorI9tVarValueE9constructB7v160006IS1_JS1_EEEvPT_DpOT0_, symObjAddr: 0xB29C, symBinAddr: 0x10000CE1C, symSize: 0x30 }
  - { offsetInCU: 0x15B6C, offset: 0x15B6C, size: 0x8, addend: 0x0, symName: __ZN9tVarValueC1EOS_, symObjAddr: 0xB2CC, symBinAddr: 0x10000CE4C, symSize: 0x34 }
  - { offsetInCU: 0x15B9F, offset: 0x15B9F, size: 0x8, addend: 0x0, symName: __ZN9tVarValueC2EOS_, symObjAddr: 0xB300, symBinAddr: 0x10000CE80, symSize: 0x54 }
  - { offsetInCU: 0x15BD3, offset: 0x15BD3, size: 0x8, addend: 0x0, symName: __ZNSt3__112basic_stringIcNS_11char_traitsIcEENS_9allocatorIcEEEC1B7v160006EOS5_, symObjAddr: 0xB354, symBinAddr: 0x10000CED4, symSize: 0x34 }
  - { offsetInCU: 0x15C0B, offset: 0x15C0B, size: 0x8, addend: 0x0, symName: __ZNSt3__112basic_stringIcNS_11char_traitsIcEENS_9allocatorIcEEEC2B7v160006EOS5_, symObjAddr: 0xB388, symBinAddr: 0x10000CF08, symSize: 0x80 }
  - { offsetInCU: 0x15C48, offset: 0x15C48, size: 0x8, addend: 0x0, symName: __ZNSt3__119__to_address_helperINS_16reverse_iteratorIP9tVarValueEEvE6__callB7v160006ERKS4_, symObjAddr: 0xB41C, symBinAddr: 0x10000CF9C, symSize: 0x38 }
  - { offsetInCU: 0x15C6A, offset: 0x15C6A, size: 0x8, addend: 0x0, symName: __ZNKSt3__116reverse_iteratorIP9tVarValueEptB7v160006Ev, symObjAddr: 0xB454, symBinAddr: 0x10000CFD4, symSize: 0x24 }
  - { offsetInCU: 0x15C8F, offset: 0x15C8F, size: 0x8, addend: 0x0, symName: __ZNSt3__128__exception_guard_exceptionsINS_29_AllocatorDestroyRangeReverseINS_9allocatorI9tVarValueEENS_16reverse_iteratorIPS3_EEEEED2B7v160006Ev, symObjAddr: 0xB478, symBinAddr: 0x10000CFF8, symSize: 0x50 }
  - { offsetInCU: 0x15CB7, offset: 0x15CB7, size: 0x8, addend: 0x0, symName: __ZNKSt3__129_AllocatorDestroyRangeReverseINS_9allocatorI9tVarValueEENS_16reverse_iteratorIPS2_EEEclB7v160006Ev, symObjAddr: 0xB4C8, symBinAddr: 0x10000D048, symSize: 0xB4 }
  - { offsetInCU: 0x15CDD, offset: 0x15CDD, size: 0x8, addend: 0x0, symName: __ZNSt3__116reverse_iteratorINS0_IP9tVarValueEEEC1B7v160006ES3_, symObjAddr: 0xB5EC, symBinAddr: 0x10000D16C, symSize: 0x3C }
  - { offsetInCU: 0x15D13, offset: 0x15D13, size: 0x8, addend: 0x0, symName: __ZNSt3__116reverse_iteratorINS0_IP9tVarValueEEEppB7v160006Ev, symObjAddr: 0xB6AC, symBinAddr: 0x10000D22C, symSize: 0x30 }
  - { offsetInCU: 0x15D37, offset: 0x15D37, size: 0x8, addend: 0x0, symName: __ZNKSt3__116reverse_iteratorINS0_IP9tVarValueEEE4baseB7v160006Ev, symObjAddr: 0xB6DC, symBinAddr: 0x10000D25C, symSize: 0x24 }
  - { offsetInCU: 0x15D61, offset: 0x15D61, size: 0x8, addend: 0x0, symName: __ZNSt3__119__to_address_helperINS_16reverse_iteratorINS1_IP9tVarValueEEEEvE6__callB7v160006ERKS5_, symObjAddr: 0xB700, symBinAddr: 0x10000D280, symSize: 0x38 }
  - { offsetInCU: 0x15D83, offset: 0x15D83, size: 0x8, addend: 0x0, symName: __ZNKSt3__116reverse_iteratorINS0_IP9tVarValueEEEptB7v160006Ev, symObjAddr: 0xB738, symBinAddr: 0x10000D2B8, symSize: 0x24 }
  - { offsetInCU: 0x15DA7, offset: 0x15DA7, size: 0x8, addend: 0x0, symName: __ZNKSt3__116reverse_iteratorINS0_IP9tVarValueEEEdeB7v160006Ev, symObjAddr: 0xB75C, symBinAddr: 0x10000D2DC, symSize: 0x34 }
  - { offsetInCU: 0x15DD9, offset: 0x15DD9, size: 0x8, addend: 0x0, symName: __ZNSt3__116reverse_iteratorIP9tVarValueEmmB7v160006Ev, symObjAddr: 0xB790, symBinAddr: 0x10000D310, symSize: 0x20 }
  - { offsetInCU: 0x15DFE, offset: 0x15DFE, size: 0x8, addend: 0x0, symName: __ZNSt3__116reverse_iteratorINS0_IP9tVarValueEEEC2B7v160006ES3_, symObjAddr: 0xB7B0, symBinAddr: 0x10000D330, symSize: 0x2C }
  - { offsetInCU: 0x15E35, offset: 0x15E35, size: 0x8, addend: 0x0, symName: __ZNSt3__116reverse_iteratorIP9tVarValueEC2B7v160006ES2_, symObjAddr: 0xB7DC, symBinAddr: 0x10000D35C, symSize: 0x28 }
  - { offsetInCU: 0x15E6C, offset: 0x15E6C, size: 0x8, addend: 0x0, symName: __ZNSt3__114__split_bufferI9tVarValueRNS_9allocatorIS1_EEED2Ev, symObjAddr: 0xB804, symBinAddr: 0x10000D384, symSize: 0x8C }
  - { offsetInCU: 0x15E95, offset: 0x15E95, size: 0x8, addend: 0x0, symName: __ZNSt3__114__split_bufferI9tVarValueRNS_9allocatorIS1_EEE5clearB7v160006Ev, symObjAddr: 0xB890, symBinAddr: 0x10000D410, symSize: 0x28 }
  - { offsetInCU: 0x15EB9, offset: 0x15EB9, size: 0x8, addend: 0x0, symName: __ZNKSt3__114__split_bufferI9tVarValueRNS_9allocatorIS1_EEE8capacityB7v160006Ev, symObjAddr: 0xB8B8, symBinAddr: 0x10000D438, symSize: 0x40 }
  - { offsetInCU: 0x15EDD, offset: 0x15EDD, size: 0x8, addend: 0x0, symName: __ZNSt3__114__split_bufferI9tVarValueRNS_9allocatorIS1_EEE17__destruct_at_endB7v160006EPS1_, symObjAddr: 0xB8F8, symBinAddr: 0x10000D478, symSize: 0x2C }
  - { offsetInCU: 0x15F0F, offset: 0x15F0F, size: 0x8, addend: 0x0, symName: __ZNSt3__114__split_bufferI9tVarValueRNS_9allocatorIS1_EEE17__destruct_at_endB7v160006EPS1_NS_17integral_constantIbLb0EEE, symObjAddr: 0xB924, symBinAddr: 0x10000D4A4, symSize: 0x80 }
  - { offsetInCU: 0x15F4D, offset: 0x15F4D, size: 0x8, addend: 0x0, symName: __ZNKSt3__114__split_bufferI9tVarValueRNS_9allocatorIS1_EEE9__end_capB7v160006Ev, symObjAddr: 0xB9A4, symBinAddr: 0x10000D524, symSize: 0x28 }
  - { offsetInCU: 0x15F71, offset: 0x15F71, size: 0x8, addend: 0x0, symName: __ZNKSt3__117__compressed_pairIP9tVarValueRNS_9allocatorIS1_EEE5firstB7v160006Ev, symObjAddr: 0xB9CC, symBinAddr: 0x10000D54C, symSize: 0x24 }
  - { offsetInCU: 0x15F95, offset: 0x15F95, size: 0x8, addend: 0x0, symName: __ZNSt3__16vectorI9tVarValueNS_9allocatorIS1_EEE17__destruct_at_endB7v160006EPS1_, symObjAddr: 0xB9F0, symBinAddr: 0x10000D570, symSize: 0x60 }
  - { offsetInCU: 0x15FD7, offset: 0x15FD7, size: 0x8, addend: 0x0, symName: __ZNSt3__16vectorI9tVarValueNS_9allocatorIS1_EEE27__invalidate_iterators_pastB7v160006EPS1_, symObjAddr: 0xBA50, symBinAddr: 0x10000D5D0, symSize: 0x14 }
  - { offsetInCU: 0x1600C, offset: 0x1600C, size: 0x8, addend: 0x0, symName: __ZNKSt3__16vectorI9tVarValueNS_9allocatorIS1_EEE17__annotate_shrinkB7v160006Em, symObjAddr: 0xBA64, symBinAddr: 0x10000D5E4, symSize: 0xD0 }
  - { offsetInCU: 0x1603F, offset: 0x1603F, size: 0x8, addend: 0x0, symName: __ZNKSt3__112basic_stringIcNS_11char_traitsIcEENS_9allocatorIcEEE7compareINS_17basic_string_viewIcS2_EEEENS_9enable_ifIXsr33__can_be_converted_to_string_viewIcS2_T_EE5valueEiE4typeERKSA_, symObjAddr: 0xBB34, symBinAddr: 0x10000D6B4, symSize: 0x12C }
  - { offsetInCU: 0x160BA, offset: 0x160BA, size: 0x8, addend: 0x0, symName: __ZNKSt3__112basic_stringIcNS_11char_traitsIcEENS_9allocatorIcEEEcvNS_17basic_string_viewIcS2_EEB7v160006Ev, symObjAddr: 0xBC60, symBinAddr: 0x10000D7E0, symSize: 0x50 }
  - { offsetInCU: 0x160DE, offset: 0x160DE, size: 0x8, addend: 0x0, symName: __ZNKSt3__117basic_string_viewIcNS_11char_traitsIcEEE4sizeB7v160006Ev, symObjAddr: 0xBCB0, symBinAddr: 0x10000D830, symSize: 0x18 }
  - { offsetInCU: 0x16103, offset: 0x16103, size: 0x8, addend: 0x0, symName: __ZNSt3__111char_traitsIcE7compareEPKcS3_m, symObjAddr: 0xBCC8, symBinAddr: 0x10000D848, symSize: 0x6C }
  - { offsetInCU: 0x16141, offset: 0x16141, size: 0x8, addend: 0x0, symName: __ZNKSt3__117basic_string_viewIcNS_11char_traitsIcEEE4dataB7v160006Ev, symObjAddr: 0xBD34, symBinAddr: 0x10000D8B4, symSize: 0x18 }
  - { offsetInCU: 0x16166, offset: 0x16166, size: 0x8, addend: 0x0, symName: __ZNSt3__117basic_string_viewIcNS_11char_traitsIcEEEC1B7v160006EPKcm, symObjAddr: 0xBD80, symBinAddr: 0x10000D900, symSize: 0x3C }
  - { offsetInCU: 0x161AD, offset: 0x161AD, size: 0x8, addend: 0x0, symName: __ZNSt3__117basic_string_viewIcNS_11char_traitsIcEEEC2B7v160006EPKcm, symObjAddr: 0xBDBC, symBinAddr: 0x10000D93C, symSize: 0x2C }
  - { offsetInCU: 0x161F3, offset: 0x161F3, size: 0x8, addend: 0x0, symName: __ZNSt3__16vectorI11CommandNodeNS_9allocatorIS1_EEE19__copy_assign_allocB7v160006ERKS4_, symObjAddr: 0xBDE8, symBinAddr: 0x10000D968, symSize: 0x2C }
  - { offsetInCU: 0x16226, offset: 0x16226, size: 0x8, addend: 0x0, symName: __ZNSt3__16vectorI11CommandNodeNS_9allocatorIS1_EEE6assignIPS1_Li0EEEvT_S7_, symObjAddr: 0xBE14, symBinAddr: 0x10000D994, symSize: 0x17C }
  - { offsetInCU: 0x162C4, offset: 0x162C4, size: 0x8, addend: 0x0, symName: __ZNSt3__16vectorI11CommandNodeNS_9allocatorIS1_EEE19__copy_assign_allocB7v160006ERKS4_NS_17integral_constantIbLb0EEE, symObjAddr: 0xBF90, symBinAddr: 0x10000DB10, symSize: 0x14 }
  - { offsetInCU: 0x16300, offset: 0x16300, size: 0x8, addend: 0x0, symName: __ZNSt3__16vectorI11CommandNodeNS_9allocatorIS1_EEE18__construct_at_endIPS1_Li0EEEvT_S7_m, symObjAddr: 0xC060, symBinAddr: 0x10000DBE0, symSize: 0x8C }
  - { offsetInCU: 0x16371, offset: 0x16371, size: 0x8, addend: 0x0, symName: __ZNSt3__16vectorI11CommandNodeNS_9allocatorIS1_EEE13__vdeallocateEv, symObjAddr: 0xC0EC, symBinAddr: 0x10000DC6C, symSize: 0x8C }
  - { offsetInCU: 0x16397, offset: 0x16397, size: 0x8, addend: 0x0, symName: __ZNSt3__16vectorI11CommandNodeNS_9allocatorIS1_EEE11__vallocateB7v160006Em, symObjAddr: 0xC178, symBinAddr: 0x10000DCF8, symSize: 0xB4 }
  - { offsetInCU: 0x163FC, offset: 0x163FC, size: 0x8, addend: 0x0, symName: __ZNKSt3__111__copy_loopINS_17_ClassicAlgPolicyEEclB7v160006IP11CommandNodeS5_S5_EENS_4pairIT_T1_EES7_T0_S8_, symObjAddr: 0xC420, symBinAddr: 0x10000DFA0, symSize: 0x88 }
  - { offsetInCU: 0x16466, offset: 0x16466, size: 0x8, addend: 0x0, symName: __ZN11CommandNodeaSERKS_, symObjAddr: 0xC56C, symBinAddr: 0x10000E0EC, symSize: 0x5C }
  - { offsetInCU: 0x16496, offset: 0x16496, size: 0x8, addend: 0x0, symName: __ZNSt3__118__unwrap_iter_implIP11CommandNodeLb1EE8__unwrapB7v160006ES2_, symObjAddr: 0xC5C8, symBinAddr: 0x10000E148, symSize: 0x24 }
  - { offsetInCU: 0x164BE, offset: 0x164BE, size: 0x8, addend: 0x0, symName: __ZNSt3__14pairIP11CommandNodeS2_EC1B7v160006IS2_S2_LPv0EEEOT_OT0_, symObjAddr: 0xC5EC, symBinAddr: 0x10000E16C, symSize: 0x3C }
  - { offsetInCU: 0x1651B, offset: 0x1651B, size: 0x8, addend: 0x0, symName: __ZNSt3__14pairIP11CommandNodeS2_EC2B7v160006IS2_S2_LPv0EEEOT_OT0_, symObjAddr: 0xC628, symBinAddr: 0x10000E1A8, symSize: 0x34 }
  - { offsetInCU: 0x16578, offset: 0x16578, size: 0x8, addend: 0x0, symName: __ZNSt3__118__unwrap_iter_implIP11CommandNodeLb1EE8__rewrapB7v160006ES2_S2_, symObjAddr: 0xC65C, symBinAddr: 0x10000E1DC, symSize: 0x58 }
  - { offsetInCU: 0x165A9, offset: 0x165A9, size: 0x8, addend: 0x0, symName: __ZNSt3__129_AllocatorDestroyRangeReverseINS_9allocatorI11CommandNodeEEPS2_EC1B7v160006ERS3_RS4_S7_, symObjAddr: 0xC7F4, symBinAddr: 0x10000E374, symSize: 0x44 }
  - { offsetInCU: 0x165FF, offset: 0x165FF, size: 0x8, addend: 0x0, symName: __ZNSt3__116allocator_traitsINS_9allocatorI11CommandNodeEEE9constructB7v160006IS2_JRS2_EvEEvRS3_PT_DpOT0_, symObjAddr: 0xC838, symBinAddr: 0x10000E3B8, symSize: 0x34 }
  - { offsetInCU: 0x16655, offset: 0x16655, size: 0x8, addend: 0x0, symName: __ZNSt3__128__exception_guard_exceptionsINS_29_AllocatorDestroyRangeReverseINS_9allocatorI11CommandNodeEEPS3_EEE10__completeB7v160006Ev, symObjAddr: 0xC86C, symBinAddr: 0x10000E3EC, symSize: 0x1C }
  - { offsetInCU: 0x1667A, offset: 0x1667A, size: 0x8, addend: 0x0, symName: __ZNSt3__128__exception_guard_exceptionsINS_29_AllocatorDestroyRangeReverseINS_9allocatorI11CommandNodeEEPS3_EEED1B7v160006Ev, symObjAddr: 0xC888, symBinAddr: 0x10000E408, symSize: 0x2C }
  - { offsetInCU: 0x166A3, offset: 0x166A3, size: 0x8, addend: 0x0, symName: __ZNSt3__128__exception_guard_exceptionsINS_29_AllocatorDestroyRangeReverseINS_9allocatorI11CommandNodeEEPS3_EEEC1B7v160006ES6_, symObjAddr: 0xC8B4, symBinAddr: 0x10000E434, symSize: 0x34 }
  - { offsetInCU: 0x166DB, offset: 0x166DB, size: 0x8, addend: 0x0, symName: __ZNSt3__128__exception_guard_exceptionsINS_29_AllocatorDestroyRangeReverseINS_9allocatorI11CommandNodeEEPS3_EEEC2B7v160006ES6_, symObjAddr: 0xC8E8, symBinAddr: 0x10000E468, symSize: 0x30 }
  - { offsetInCU: 0x16713, offset: 0x16713, size: 0x8, addend: 0x0, symName: __ZNSt3__129_AllocatorDestroyRangeReverseINS_9allocatorI11CommandNodeEEPS2_EC2B7v160006ERS3_RS4_S7_, symObjAddr: 0xC918, symBinAddr: 0x10000E498, symSize: 0x38 }
  - { offsetInCU: 0x16768, offset: 0x16768, size: 0x8, addend: 0x0, symName: __ZNSt3__19allocatorI11CommandNodeE9constructB7v160006IS1_JRS1_EEEvPT_DpOT0_, symObjAddr: 0xC950, symBinAddr: 0x10000E4D0, symSize: 0x30 }
  - { offsetInCU: 0x167BD, offset: 0x167BD, size: 0x8, addend: 0x0, symName: __ZNSt3__128__exception_guard_exceptionsINS_29_AllocatorDestroyRangeReverseINS_9allocatorI11CommandNodeEEPS3_EEED2B7v160006Ev, symObjAddr: 0xC980, symBinAddr: 0x10000E500, symSize: 0x50 }
  - { offsetInCU: 0x167E5, offset: 0x167E5, size: 0x8, addend: 0x0, symName: __ZNKSt3__129_AllocatorDestroyRangeReverseINS_9allocatorI11CommandNodeEEPS2_EclB7v160006Ev, symObjAddr: 0xC9D0, symBinAddr: 0x10000E550, symSize: 0x68 }
  - { offsetInCU: 0x16809, offset: 0x16809, size: 0x8, addend: 0x0, symName: __ZNSt3__112basic_stringIcNS_11char_traitsIcEENS_9allocatorIcEEE6insertB7v160006EmRKS5_, symObjAddr: 0xCAA8, symBinAddr: 0x10000E628, symSize: 0x5C }
  - { offsetInCU: 0x1684B, offset: 0x1684B, size: 0x8, addend: 0x0, symName: __ZNSt3__112basic_stringIcNS_11char_traitsIcEENS_9allocatorIcEEE6appendB7v160006ERKS5_, symObjAddr: 0xCB04, symBinAddr: 0x10000E684, symSize: 0x4C }
  - { offsetInCU: 0x1687F, offset: 0x1687F, size: 0x8, addend: 0x0, symName: __ZNSt3__16vectorI5TokenNS_9allocatorIS1_EEEC2ERKS4_, symObjAddr: 0xCB50, symBinAddr: 0x10000E6D0, symSize: 0x110 }
  - { offsetInCU: 0x168DC, offset: 0x168DC, size: 0x8, addend: 0x0, symName: __ZNSt3__116allocator_traitsINS_9allocatorI5TokenEEE37select_on_container_copy_constructionB7v160006IS3_vvEES3_RKS3_, symObjAddr: 0xCC60, symBinAddr: 0x10000E7E0, symSize: 0x10 }
  - { offsetInCU: 0x16910, offset: 0x16910, size: 0x8, addend: 0x0, symName: __ZNSt3__117__compressed_pairIP5TokenNS_9allocatorIS1_EEEC1B7v160006IDnS4_EEOT_OT0_, symObjAddr: 0xCC70, symBinAddr: 0x10000E7F0, symSize: 0x3C }
  - { offsetInCU: 0x16966, offset: 0x16966, size: 0x8, addend: 0x0, symName: __ZNSt3__16vectorI5TokenNS_9allocatorIS1_EEE18__construct_at_endIPS1_Li0EEEvT_S7_m, symObjAddr: 0xCCAC, symBinAddr: 0x10000E82C, symSize: 0x8C }
  - { offsetInCU: 0x169D8, offset: 0x169D8, size: 0x8, addend: 0x0, symName: __ZNSt3__117__compressed_pairIP5TokenNS_9allocatorIS1_EEEC2B7v160006IDnS4_EEOT_OT0_, symObjAddr: 0xCD38, symBinAddr: 0x10000E8B8, symSize: 0x44 }
  - { offsetInCU: 0x16A2F, offset: 0x16A2F, size: 0x8, addend: 0x0, symName: __ZNSt3__122__compressed_pair_elemINS_9allocatorI5TokenEELi1ELb1EEC2B7v160006IS3_vEEOT_, symObjAddr: 0xCD7C, symBinAddr: 0x10000E8FC, symSize: 0x18 }
  - { offsetInCU: 0x16A70, offset: 0x16A70, size: 0x8, addend: 0x0, symName: __ZNSt3__16vectorI7tSyntaxNS_9allocatorIS1_EEED2B7v160006Ev, symObjAddr: 0xCE88, symBinAddr: 0x10000EA08, symSize: 0x44 }
  - { offsetInCU: 0x16A99, offset: 0x16A99, size: 0x8, addend: 0x0, symName: __ZNSt3__16vectorI7tSyntaxNS_9allocatorIS1_EEE16__destroy_vectorC1ERS4_, symObjAddr: 0xCECC, symBinAddr: 0x10000EA4C, symSize: 0x34 }
  - { offsetInCU: 0x16AD0, offset: 0x16AD0, size: 0x8, addend: 0x0, symName: __ZNSt3__16vectorI7tSyntaxNS_9allocatorIS1_EEE16__destroy_vectorclB7v160006Ev, symObjAddr: 0xCF00, symBinAddr: 0x10000EA80, symSize: 0x9C }
  - { offsetInCU: 0x16AF5, offset: 0x16AF5, size: 0x8, addend: 0x0, symName: __ZNSt3__16vectorI7tSyntaxNS_9allocatorIS1_EEE16__destroy_vectorC2ERS4_, symObjAddr: 0xCF9C, symBinAddr: 0x10000EB1C, symSize: 0x20 }
  - { offsetInCU: 0x16B2C, offset: 0x16B2C, size: 0x8, addend: 0x0, symName: __ZNKSt3__16vectorI7tSyntaxNS_9allocatorIS1_EEE17__annotate_deleteB7v160006Ev, symObjAddr: 0xCFBC, symBinAddr: 0x10000EB3C, symSize: 0xB8 }
  - { offsetInCU: 0x16B50, offset: 0x16B50, size: 0x8, addend: 0x0, symName: __ZNSt3__16vectorI7tSyntaxNS_9allocatorIS1_EEE7__clearB7v160006Ev, symObjAddr: 0xD084, symBinAddr: 0x10000EC04, symSize: 0x28 }
  - { offsetInCU: 0x16B75, offset: 0x16B75, size: 0x8, addend: 0x0, symName: __ZNSt3__116allocator_traitsINS_9allocatorI7tSyntaxEEE10deallocateB7v160006ERS3_PS2_m, symObjAddr: 0xD0AC, symBinAddr: 0x10000EC2C, symSize: 0x34 }
  - { offsetInCU: 0x16BB6, offset: 0x16BB6, size: 0x8, addend: 0x0, symName: __ZNSt3__16vectorI7tSyntaxNS_9allocatorIS1_EEE7__allocB7v160006Ev, symObjAddr: 0xD0E0, symBinAddr: 0x10000EC60, symSize: 0x28 }
  - { offsetInCU: 0x16BDA, offset: 0x16BDA, size: 0x8, addend: 0x0, symName: __ZNKSt3__16vectorI7tSyntaxNS_9allocatorIS1_EEE8capacityB7v160006Ev, symObjAddr: 0xD108, symBinAddr: 0x10000EC88, symSize: 0x40 }
  - { offsetInCU: 0x16BFE, offset: 0x16BFE, size: 0x8, addend: 0x0, symName: __ZNKSt3__16vectorI7tSyntaxNS_9allocatorIS1_EEE31__annotate_contiguous_containerB7v160006EPKvS6_S6_S6_, symObjAddr: 0xD148, symBinAddr: 0x10000ECC8, symSize: 0x20 }
  - { offsetInCU: 0x16C52, offset: 0x16C52, size: 0x8, addend: 0x0, symName: __ZNKSt3__16vectorI7tSyntaxNS_9allocatorIS1_EEE4dataB7v160006Ev, symObjAddr: 0xD168, symBinAddr: 0x10000ECE8, symSize: 0x28 }
  - { offsetInCU: 0x16C76, offset: 0x16C76, size: 0x8, addend: 0x0, symName: __ZNSt3__16vectorI7tSyntaxNS_9allocatorIS1_EEE22__base_destruct_at_endB7v160006EPS1_, symObjAddr: 0xD1A4, symBinAddr: 0x10000ED24, symSize: 0x8C }
  - { offsetInCU: 0x16CB9, offset: 0x16CB9, size: 0x8, addend: 0x0, symName: __ZNSt3__116allocator_traitsINS_9allocatorI7tSyntaxEEE7destroyB7v160006IS2_vEEvRS3_PT_, symObjAddr: 0xD230, symBinAddr: 0x10000EDB0, symSize: 0x2C }
  - { offsetInCU: 0x16CF5, offset: 0x16CF5, size: 0x8, addend: 0x0, symName: __ZNSt3__19allocatorI7tSyntaxE7destroyB7v160006EPS1_, symObjAddr: 0xD25C, symBinAddr: 0x10000EDDC, symSize: 0x28 }
  - { offsetInCU: 0x16D2C, offset: 0x16D2C, size: 0x8, addend: 0x0, symName: __ZN7tSyntaxD1Ev, symObjAddr: 0xD284, symBinAddr: 0x10000EE04, symSize: 0x2C }
  - { offsetInCU: 0x16D56, offset: 0x16D56, size: 0x8, addend: 0x0, symName: __ZN7tSyntaxD2Ev, symObjAddr: 0xD2B0, symBinAddr: 0x10000EE30, symSize: 0x30 }
  - { offsetInCU: 0x16D81, offset: 0x16D81, size: 0x8, addend: 0x0, symName: __ZNSt3__16vectorI12tSyntaxNode_NS_9allocatorIS1_EEED1B7v160006Ev, symObjAddr: 0xD2E0, symBinAddr: 0x10000EE60, symSize: 0x2C }
  - { offsetInCU: 0x16DAA, offset: 0x16DAA, size: 0x8, addend: 0x0, symName: __ZNSt3__16vectorI12tSyntaxNode_NS_9allocatorIS1_EEED2B7v160006Ev, symObjAddr: 0xD30C, symBinAddr: 0x10000EE8C, symSize: 0x44 }
  - { offsetInCU: 0x16DD3, offset: 0x16DD3, size: 0x8, addend: 0x0, symName: __ZNSt3__16vectorI12tSyntaxNode_NS_9allocatorIS1_EEE16__destroy_vectorC1ERS4_, symObjAddr: 0xD350, symBinAddr: 0x10000EED0, symSize: 0x34 }
  - { offsetInCU: 0x16E0A, offset: 0x16E0A, size: 0x8, addend: 0x0, symName: __ZNSt3__16vectorI12tSyntaxNode_NS_9allocatorIS1_EEE16__destroy_vectorclB7v160006Ev, symObjAddr: 0xD384, symBinAddr: 0x10000EF04, symSize: 0x9C }
  - { offsetInCU: 0x16E2F, offset: 0x16E2F, size: 0x8, addend: 0x0, symName: __ZNSt3__16vectorI12tSyntaxNode_NS_9allocatorIS1_EEE16__destroy_vectorC2ERS4_, symObjAddr: 0xD420, symBinAddr: 0x10000EFA0, symSize: 0x20 }
  - { offsetInCU: 0x16E66, offset: 0x16E66, size: 0x8, addend: 0x0, symName: __ZNKSt3__16vectorI12tSyntaxNode_NS_9allocatorIS1_EEE17__annotate_deleteB7v160006Ev, symObjAddr: 0xD440, symBinAddr: 0x10000EFC0, symSize: 0xB8 }
  - { offsetInCU: 0x16E8A, offset: 0x16E8A, size: 0x8, addend: 0x0, symName: __ZNSt3__16vectorI12tSyntaxNode_NS_9allocatorIS1_EEE7__clearB7v160006Ev, symObjAddr: 0xD508, symBinAddr: 0x10000F088, symSize: 0x28 }
  - { offsetInCU: 0x16EAF, offset: 0x16EAF, size: 0x8, addend: 0x0, symName: __ZNSt3__116allocator_traitsINS_9allocatorI12tSyntaxNode_EEE10deallocateB7v160006ERS3_PS2_m, symObjAddr: 0xD530, symBinAddr: 0x10000F0B0, symSize: 0x34 }
  - { offsetInCU: 0x16EF0, offset: 0x16EF0, size: 0x8, addend: 0x0, symName: __ZNSt3__16vectorI12tSyntaxNode_NS_9allocatorIS1_EEE7__allocB7v160006Ev, symObjAddr: 0xD564, symBinAddr: 0x10000F0E4, symSize: 0x28 }
  - { offsetInCU: 0x16F14, offset: 0x16F14, size: 0x8, addend: 0x0, symName: __ZNKSt3__16vectorI12tSyntaxNode_NS_9allocatorIS1_EEE8capacityB7v160006Ev, symObjAddr: 0xD58C, symBinAddr: 0x10000F10C, symSize: 0x40 }
  - { offsetInCU: 0x16F38, offset: 0x16F38, size: 0x8, addend: 0x0, symName: __ZNKSt3__16vectorI12tSyntaxNode_NS_9allocatorIS1_EEE31__annotate_contiguous_containerB7v160006EPKvS6_S6_S6_, symObjAddr: 0xD5CC, symBinAddr: 0x10000F14C, symSize: 0x20 }
  - { offsetInCU: 0x16F8C, offset: 0x16F8C, size: 0x8, addend: 0x0, symName: __ZNKSt3__16vectorI12tSyntaxNode_NS_9allocatorIS1_EEE4dataB7v160006Ev, symObjAddr: 0xD5EC, symBinAddr: 0x10000F16C, symSize: 0x28 }
  - { offsetInCU: 0x16FB0, offset: 0x16FB0, size: 0x8, addend: 0x0, symName: __ZNSt3__16vectorI12tSyntaxNode_NS_9allocatorIS1_EEE22__base_destruct_at_endB7v160006EPS1_, symObjAddr: 0xD628, symBinAddr: 0x10000F1A8, symSize: 0x8C }
  - { offsetInCU: 0x16FF3, offset: 0x16FF3, size: 0x8, addend: 0x0, symName: __ZNSt3__116allocator_traitsINS_9allocatorI12tSyntaxNode_EEE7destroyB7v160006IS2_vEEvRS3_PT_, symObjAddr: 0xD6B4, symBinAddr: 0x10000F234, symSize: 0x2C }
  - { offsetInCU: 0x1702F, offset: 0x1702F, size: 0x8, addend: 0x0, symName: __ZNSt3__19allocatorI12tSyntaxNode_E7destroyB7v160006EPS1_, symObjAddr: 0xD6E0, symBinAddr: 0x10000F260, symSize: 0x14 }
  - { offsetInCU: 0x17061, offset: 0x17061, size: 0x8, addend: 0x0, symName: __ZNSt3__19allocatorI12tSyntaxNode_E10deallocateB7v160006EPS1_m, symObjAddr: 0xD6F4, symBinAddr: 0x10000F274, symSize: 0x40 }
  - { offsetInCU: 0x170A1, offset: 0x170A1, size: 0x8, addend: 0x0, symName: __ZNSt3__117__compressed_pairIP12tSyntaxNode_NS_9allocatorIS1_EEE6secondB7v160006Ev, symObjAddr: 0xD734, symBinAddr: 0x10000F2B4, symSize: 0x24 }
  - { offsetInCU: 0x170C5, offset: 0x170C5, size: 0x8, addend: 0x0, symName: __ZNSt3__122__compressed_pair_elemINS_9allocatorI12tSyntaxNode_EELi1ELb1EE5__getB7v160006Ev, symObjAddr: 0xD758, symBinAddr: 0x10000F2D8, symSize: 0x14 }
  - { offsetInCU: 0x170E9, offset: 0x170E9, size: 0x8, addend: 0x0, symName: __ZNKSt3__16vectorI12tSyntaxNode_NS_9allocatorIS1_EEE9__end_capB7v160006Ev, symObjAddr: 0xD76C, symBinAddr: 0x10000F2EC, symSize: 0x28 }
  - { offsetInCU: 0x1710D, offset: 0x1710D, size: 0x8, addend: 0x0, symName: __ZNKSt3__117__compressed_pairIP12tSyntaxNode_NS_9allocatorIS1_EEE5firstB7v160006Ev, symObjAddr: 0xD794, symBinAddr: 0x10000F314, symSize: 0x24 }
  - { offsetInCU: 0x17131, offset: 0x17131, size: 0x8, addend: 0x0, symName: __ZNKSt3__122__compressed_pair_elemIP12tSyntaxNode_Li0ELb0EE5__getB7v160006Ev, symObjAddr: 0xD7B8, symBinAddr: 0x10000F338, symSize: 0x14 }
  - { offsetInCU: 0x17155, offset: 0x17155, size: 0x8, addend: 0x0, symName: __ZNSt3__19allocatorI7tSyntaxE10deallocateB7v160006EPS1_m, symObjAddr: 0xD7CC, symBinAddr: 0x10000F34C, symSize: 0x40 }
  - { offsetInCU: 0x17195, offset: 0x17195, size: 0x8, addend: 0x0, symName: __ZNSt3__117__compressed_pairIP7tSyntaxNS_9allocatorIS1_EEE6secondB7v160006Ev, symObjAddr: 0xD80C, symBinAddr: 0x10000F38C, symSize: 0x24 }
  - { offsetInCU: 0x171B9, offset: 0x171B9, size: 0x8, addend: 0x0, symName: __ZNSt3__122__compressed_pair_elemINS_9allocatorI7tSyntaxEELi1ELb1EE5__getB7v160006Ev, symObjAddr: 0xD830, symBinAddr: 0x10000F3B0, symSize: 0x14 }
  - { offsetInCU: 0x171DD, offset: 0x171DD, size: 0x8, addend: 0x0, symName: __ZNKSt3__16vectorI7tSyntaxNS_9allocatorIS1_EEE9__end_capB7v160006Ev, symObjAddr: 0xD844, symBinAddr: 0x10000F3C4, symSize: 0x28 }
  - { offsetInCU: 0x17201, offset: 0x17201, size: 0x8, addend: 0x0, symName: __ZNKSt3__117__compressed_pairIP7tSyntaxNS_9allocatorIS1_EEE5firstB7v160006Ev, symObjAddr: 0xD86C, symBinAddr: 0x10000F3EC, symSize: 0x24 }
  - { offsetInCU: 0x17225, offset: 0x17225, size: 0x8, addend: 0x0, symName: __ZNKSt3__122__compressed_pair_elemIP7tSyntaxLi0ELb0EE5__getB7v160006Ev, symObjAddr: 0xD890, symBinAddr: 0x10000F410, symSize: 0x14 }
  - { offsetInCU: 0x1724A, offset: 0x1724A, size: 0x8, addend: 0x0, symName: __ZNSt3__16vectorI11CommandNodeNS_9allocatorIS1_EEEC2ERKS4_, symObjAddr: 0xD8A4, symBinAddr: 0x10000F424, symSize: 0x110 }
  - { offsetInCU: 0x172A7, offset: 0x172A7, size: 0x8, addend: 0x0, symName: __ZNSt3__116allocator_traitsINS_9allocatorI11CommandNodeEEE37select_on_container_copy_constructionB7v160006IS3_vvEES3_RKS3_, symObjAddr: 0xD9B4, symBinAddr: 0x10000F534, symSize: 0x10 }
  - { offsetInCU: 0x172DB, offset: 0x172DB, size: 0x8, addend: 0x0, symName: __ZNSt3__117__compressed_pairIP11CommandNodeNS_9allocatorIS1_EEEC1B7v160006IDnS4_EEOT_OT0_, symObjAddr: 0xD9C4, symBinAddr: 0x10000F544, symSize: 0x3C }
  - { offsetInCU: 0x17331, offset: 0x17331, size: 0x8, addend: 0x0, symName: __ZNSt3__128__exception_guard_exceptionsINS_6vectorI11CommandNodeNS_9allocatorIS2_EEE16__destroy_vectorEE10__completeB7v160006Ev, symObjAddr: 0xDA40, symBinAddr: 0x10000F5C0, symSize: 0x1C }
  - { offsetInCU: 0x17356, offset: 0x17356, size: 0x8, addend: 0x0, symName: __ZNSt3__128__exception_guard_exceptionsINS_6vectorI11CommandNodeNS_9allocatorIS2_EEE16__destroy_vectorEED1B7v160006Ev, symObjAddr: 0xDA5C, symBinAddr: 0x10000F5DC, symSize: 0x2C }
  - { offsetInCU: 0x1737F, offset: 0x1737F, size: 0x8, addend: 0x0, symName: __ZNSt3__117__compressed_pairIP11CommandNodeNS_9allocatorIS1_EEEC2B7v160006IDnS4_EEOT_OT0_, symObjAddr: 0xDA88, symBinAddr: 0x10000F608, symSize: 0x44 }
  - { offsetInCU: 0x173D6, offset: 0x173D6, size: 0x8, addend: 0x0, symName: __ZNSt3__122__compressed_pair_elemINS_9allocatorI11CommandNodeEELi1ELb1EEC2B7v160006IS3_vEEOT_, symObjAddr: 0xDACC, symBinAddr: 0x10000F64C, symSize: 0x18 }
  - { offsetInCU: 0x17417, offset: 0x17417, size: 0x8, addend: 0x0, symName: __ZNSt3__128__exception_guard_exceptionsINS_6vectorI11CommandNodeNS_9allocatorIS2_EEE16__destroy_vectorEEC1B7v160006ES6_, symObjAddr: 0xDAE4, symBinAddr: 0x10000F664, symSize: 0x34 }
  - { offsetInCU: 0x1744E, offset: 0x1744E, size: 0x8, addend: 0x0, symName: __ZNSt3__128__exception_guard_exceptionsINS_6vectorI11CommandNodeNS_9allocatorIS2_EEE16__destroy_vectorEEC2B7v160006ES6_, symObjAddr: 0xDB18, symBinAddr: 0x10000F698, symSize: 0x24 }
  - { offsetInCU: 0x17485, offset: 0x17485, size: 0x8, addend: 0x0, symName: __ZNSt3__128__exception_guard_exceptionsINS_6vectorI11CommandNodeNS_9allocatorIS2_EEE16__destroy_vectorEED2B7v160006Ev, symObjAddr: 0xDB3C, symBinAddr: 0x10000F6BC, symSize: 0x50 }
  - { offsetInCU: 0x3F, offset: 0x176EB, size: 0x8, addend: 0x0, symName: _orig_termios, symObjAddr: 0x1BD38, symBinAddr: 0x1000344C8, symSize: 0x0 }
  - { offsetInCU: 0x100, offset: 0x177AC, size: 0x8, addend: 0x0, symName: _Terminal, symObjAddr: 0x1BD80, symBinAddr: 0x100034510, symSize: 0x0 }
  - { offsetInCU: 0x2D58, offset: 0x1A404, size: 0x8, addend: 0x0, symName: __ZNSt3__124__put_character_sequenceB7v160006IcNS_11char_traitsIcEEEERNS_13basic_ostreamIT_T0_EES7_PKS4_m, symObjAddr: 0x1F54, symBinAddr: 0x100011628, symSize: 0x1EC }
  - { offsetInCU: 0x46AE, offset: 0x1BD5A, size: 0x8, addend: 0x0, symName: __ZNSt3__1lsB7v160006IcNS_11char_traitsIcEENS_9allocatorIcEEEERNS_13basic_ostreamIT_T0_EES9_RKNS_12basic_stringIS6_S7_T1_EE, symObjAddr: 0x13F0, symBinAddr: 0x100010AFC, symSize: 0x4C }
  - { offsetInCU: 0x4706, offset: 0x1BDB2, size: 0x8, addend: 0x0, symName: __ZNSt3__14endlB7v160006IcNS_11char_traitsIcEEEERNS_13basic_ostreamIT_T0_EES7_, symObjAddr: 0x1468, symBinAddr: 0x100010B74, symSize: 0x58 }
  - { offsetInCU: 0x4746, offset: 0x1BDF2, size: 0x8, addend: 0x0, symName: __ZNSt3__116__pad_and_outputB7v160006IcNS_11char_traitsIcEEEENS_19ostreambuf_iteratorIT_T0_EES6_PKS4_S8_S8_RNS_8ios_baseES4_, symObjAddr: 0x21D8, symBinAddr: 0x100011830, symSize: 0x240 }
  - { offsetInCU: 0x4815, offset: 0x1BEC1, size: 0x8, addend: 0x0, symName: __ZNSt3__19use_facetB7v160006INS_5ctypeIcEEEERKT_RKNS_6localeE, symObjAddr: 0x2874, symBinAddr: 0x100011DC4, symSize: 0x2C }
  - { offsetInCU: 0x6CE2, offset: 0x1E38E, size: 0x8, addend: 0x0, symName: __ZN7ConsoleD1Ev, symObjAddr: 0x0, symBinAddr: 0x10000F70C, symSize: 0x2C }
  - { offsetInCU: 0x6D0E, offset: 0x1E3BA, size: 0x8, addend: 0x0, symName: __Z17GetCursorPositionPiS_, symObjAddr: 0x2C, symBinAddr: 0x10000F738, symSize: 0x1A4 }
  - { offsetInCU: 0x6D64, offset: 0x1E410, size: 0x8, addend: 0x0, symName: __Z13GetWindowSizePiS_, symObjAddr: 0x1D0, symBinAddr: 0x10000F8DC, symSize: 0xC8 }
  - { offsetInCU: 0x6DAC, offset: 0x1E458, size: 0x8, addend: 0x0, symName: __Z17SetCursorPositionii, symObjAddr: 0x298, symBinAddr: 0x10000F9A4, symSize: 0xAC }
  - { offsetInCU: 0x6DFE, offset: 0x1E4AA, size: 0x8, addend: 0x0, symName: __Z11ClearScreenv, symObjAddr: 0x344, symBinAddr: 0x10000FA50, symSize: 0x24 }
  - { offsetInCU: 0x6E18, offset: 0x1E4C4, size: 0x8, addend: 0x0, symName: __Z11ResetScreenv, symObjAddr: 0x368, symBinAddr: 0x10000FA74, symSize: 0x20 }
  - { offsetInCU: 0x6E32, offset: 0x1E4DE, size: 0x8, addend: 0x0, symName: __Z10HideCursorv, symObjAddr: 0x388, symBinAddr: 0x10000FA94, symSize: 0x24 }
  - { offsetInCU: 0x6E4C, offset: 0x1E4F8, size: 0x8, addend: 0x0, symName: __Z10ShowCursorv, symObjAddr: 0x3AC, symBinAddr: 0x10000FAB8, symSize: 0x24 }
  - { offsetInCU: 0x6E66, offset: 0x1E512, size: 0x8, addend: 0x0, symName: __Z3diePKc, symObjAddr: 0x3D0, symBinAddr: 0x10000FADC, symSize: 0x24 }
  - { offsetInCU: 0x6E8E, offset: 0x1E53A, size: 0x8, addend: 0x0, symName: __Z14DisableRawModev, symObjAddr: 0x3F4, symBinAddr: 0x10000FB00, symSize: 0x44 }
  - { offsetInCU: 0x6EA8, offset: 0x1E554, size: 0x8, addend: 0x0, symName: __Z13EnableRawModev, symObjAddr: 0x438, symBinAddr: 0x10000FB44, symSize: 0x114 }
  - { offsetInCU: 0x6ED0, offset: 0x1E57C, size: 0x8, addend: 0x0, symName: __Z12ReadKeyPressv, symObjAddr: 0x54C, symBinAddr: 0x10000FC58, symSize: 0x34C }
  - { offsetInCU: 0x6F27, offset: 0x1E5D3, size: 0x8, addend: 0x0, symName: __Z13CheckKeyPressv, symObjAddr: 0x8D8, symBinAddr: 0x10000FFE4, symSize: 0x8C }
  - { offsetInCU: 0x6F61, offset: 0x1E60D, size: 0x8, addend: 0x0, symName: __Z6GetStrPPciii, symObjAddr: 0x964, symBinAddr: 0x100010070, symSize: 0x8DC }
  - { offsetInCU: 0x710E, offset: 0x1E7BA, size: 0x8, addend: 0x0, symName: __Z7isasciii, symObjAddr: 0x1240, symBinAddr: 0x10001094C, symSize: 0x24 }
  - { offsetInCU: 0x713A, offset: 0x1E7E6, size: 0x8, addend: 0x0, symName: __ZN7Console10InitialiseEv, symObjAddr: 0x1264, symBinAddr: 0x100010970, symSize: 0xBC }
  - { offsetInCU: 0x717F, offset: 0x1E82B, size: 0x8, addend: 0x0, symName: __ZN7Console14WriteFStringLnEPKcz, symObjAddr: 0x1320, symBinAddr: 0x100010A2C, symSize: 0x94 }
  - { offsetInCU: 0x71D4, offset: 0x1E880, size: 0x8, addend: 0x0, symName: __ZN7Console5printERKNSt3__112basic_stringIcNS0_11char_traitsIcEENS0_9allocatorIcEEEE, symObjAddr: 0x13B4, symBinAddr: 0x100010AC0, symSize: 0x3C }
  - { offsetInCU: 0x720A, offset: 0x1E8B6, size: 0x8, addend: 0x0, symName: __ZNSt3__113basic_ostreamIcNS_11char_traitsIcEEElsB7v160006EPFRS3_S4_E, symObjAddr: 0x143C, symBinAddr: 0x100010B48, symSize: 0x2C }
  - { offsetInCU: 0x723C, offset: 0x1E8E8, size: 0x8, addend: 0x0, symName: __ZN7Console5ClearEv, symObjAddr: 0x14C0, symBinAddr: 0x100010BCC, symSize: 0x20 }
  - { offsetInCU: 0x7263, offset: 0x1E90F, size: 0x8, addend: 0x0, symName: __ZN7Console10get_heightEv, symObjAddr: 0x14E0, symBinAddr: 0x100010BEC, symSize: 0x18 }
  - { offsetInCU: 0x728B, offset: 0x1E937, size: 0x8, addend: 0x0, symName: __ZN7Console9get_widthEv, symObjAddr: 0x14F8, symBinAddr: 0x100010C04, symSize: 0x18 }
  - { offsetInCU: 0x72B3, offset: 0x1E95F, size: 0x8, addend: 0x0, symName: __ZN7Console4BeepEv, symObjAddr: 0x1510, symBinAddr: 0x100010C1C, symSize: 0x38 }
  - { offsetInCU: 0x72E9, offset: 0x1E995, size: 0x8, addend: 0x0, symName: __ZN7Console5PrintEPc, symObjAddr: 0x1548, symBinAddr: 0x100010C54, symSize: 0x40 }
  - { offsetInCU: 0x731F, offset: 0x1E9CB, size: 0x8, addend: 0x0, symName: __ZN7Console7PrintLnEPc, symObjAddr: 0x1588, symBinAddr: 0x100010C94, symSize: 0x58 }
  - { offsetInCU: 0x7355, offset: 0x1EA01, size: 0x8, addend: 0x0, symName: __ZN7Console12ReversePrintEPc, symObjAddr: 0x15E0, symBinAddr: 0x100010CEC, symSize: 0x6C }
  - { offsetInCU: 0x738B, offset: 0x1EA37, size: 0x8, addend: 0x0, symName: __ZN7Console9SetInkRedEv, symObjAddr: 0x164C, symBinAddr: 0x100010D58, symSize: 0x30 }
  - { offsetInCU: 0x73B2, offset: 0x1EA5E, size: 0x8, addend: 0x0, symName: __ZN7Console11SetInkGreenEv, symObjAddr: 0x167C, symBinAddr: 0x100010D88, symSize: 0x30 }
  - { offsetInCU: 0x73D9, offset: 0x1EA85, size: 0x8, addend: 0x0, symName: __ZN7Console9SetInkStdEv, symObjAddr: 0x16AC, symBinAddr: 0x100010DB8, symSize: 0x30 }
  - { offsetInCU: 0x7400, offset: 0x1EAAC, size: 0x8, addend: 0x0, symName: __ZN7Console12WriteFStringEPKcz, symObjAddr: 0x16DC, symBinAddr: 0x100010DE8, symSize: 0x94 }
  - { offsetInCU: 0x7455, offset: 0x1EB01, size: 0x8, addend: 0x0, symName: __ZN7Console5WriteEPKc, symObjAddr: 0x1770, symBinAddr: 0x100010E7C, symSize: 0x84 }
  - { offsetInCU: 0x749A, offset: 0x1EB46, size: 0x8, addend: 0x0, symName: __ZN7Console7WriteLnEPKc, symObjAddr: 0x17F4, symBinAddr: 0x100010F00, symSize: 0x180 }
  - { offsetInCU: 0x752C, offset: 0x1EBD8, size: 0x8, addend: 0x0, symName: __ZN7Console15GetConsoleInputERNSt3__112basic_stringIcNS0_11char_traitsIcEENS0_9allocatorIcEEEEi, symObjAddr: 0x1974, symBinAddr: 0x100011080, symSize: 0x3A4 }
  - { offsetInCU: 0x75F8, offset: 0x1ECA4, size: 0x8, addend: 0x0, symName: __ZN7Console17GetYNConfirmationEPKc, symObjAddr: 0x1D44, symBinAddr: 0x100011424, symSize: 0xE8 }
  - { offsetInCU: 0x764C, offset: 0x1ECF8, size: 0x8, addend: 0x0, symName: __ZN7Console19MoveCursorToNextTabEv, symObjAddr: 0x1E2C, symBinAddr: 0x10001150C, symSize: 0xE0 }
  - { offsetInCU: 0x7709, offset: 0x1EDB5, size: 0x8, addend: 0x0, symName: __ZN7ConsoleD2Ev, symObjAddr: 0x1F0C, symBinAddr: 0x1000115EC, symSize: 0x3C }
  - { offsetInCU: 0x7753, offset: 0x1EDFF, size: 0x8, addend: 0x0, symName: __ZNKSt3__113basic_ostreamIcNS_11char_traitsIcEEE6sentrycvbB7v160006Ev, symObjAddr: 0x21BC, symBinAddr: 0x100011814, symSize: 0x1C }
  - { offsetInCU: 0x7777, offset: 0x1EE23, size: 0x8, addend: 0x0, symName: __ZNSt3__119ostreambuf_iteratorIcNS_11char_traitsIcEEEC1B7v160006ERNS_13basic_ostreamIcS2_EE, symObjAddr: 0x2418, symBinAddr: 0x100011A70, symSize: 0x34 }
  - { offsetInCU: 0x77AF, offset: 0x1EE5B, size: 0x8, addend: 0x0, symName: __ZNKSt3__18ios_base5flagsB7v160006Ev, symObjAddr: 0x244C, symBinAddr: 0x100011AA4, symSize: 0x18 }
  - { offsetInCU: 0x77D5, offset: 0x1EE81, size: 0x8, addend: 0x0, symName: __ZNKSt3__19basic_iosIcNS_11char_traitsIcEEE4fillB7v160006Ev, symObjAddr: 0x2464, symBinAddr: 0x100011ABC, symSize: 0x64 }
  - { offsetInCU: 0x77FA, offset: 0x1EEA6, size: 0x8, addend: 0x0, symName: __ZNKSt3__119ostreambuf_iteratorIcNS_11char_traitsIcEEE6failedB7v160006Ev, symObjAddr: 0x24C8, symBinAddr: 0x100011B20, symSize: 0x24 }
  - { offsetInCU: 0x781E, offset: 0x1EECA, size: 0x8, addend: 0x0, symName: __ZNSt3__19basic_iosIcNS_11char_traitsIcEEE8setstateB7v160006Ej, symObjAddr: 0x24EC, symBinAddr: 0x100011B44, symSize: 0x2C }
  - { offsetInCU: 0x7852, offset: 0x1EEFE, size: 0x8, addend: 0x0, symName: __ZNKSt3__18ios_base5widthB7v160006Ev, symObjAddr: 0x2518, symBinAddr: 0x100011B70, symSize: 0x18 }
  - { offsetInCU: 0x7877, offset: 0x1EF23, size: 0x8, addend: 0x0, symName: __ZNSt3__115basic_streambufIcNS_11char_traitsIcEEE5sputnB7v160006EPKcl, symObjAddr: 0x2530, symBinAddr: 0x100011B88, symSize: 0x3C }
  - { offsetInCU: 0x78B7, offset: 0x1EF63, size: 0x8, addend: 0x0, symName: __ZNSt3__112basic_stringIcNS_11char_traitsIcEENS_9allocatorIcEEEC1B7v160006Emc, symObjAddr: 0x256C, symBinAddr: 0x100011BC4, symSize: 0x3C }
  - { offsetInCU: 0x78FF, offset: 0x1EFAB, size: 0x8, addend: 0x0, symName: __ZNSt3__18ios_base5widthB7v160006El, symObjAddr: 0x25A8, symBinAddr: 0x100011C00, symSize: 0x2C }
  - { offsetInCU: 0x7942, offset: 0x1EFEE, size: 0x8, addend: 0x0, symName: __ZNSt3__112basic_stringIcNS_11char_traitsIcEENS_9allocatorIcEEEC2B7v160006Emc, symObjAddr: 0x25D4, symBinAddr: 0x100011C2C, symSize: 0x54 }
  - { offsetInCU: 0x7989, offset: 0x1F035, size: 0x8, addend: 0x0, symName: __ZNSt3__119ostreambuf_iteratorIcNS_11char_traitsIcEEEC2B7v160006ERNS_13basic_ostreamIcS2_EE, symObjAddr: 0x2730, symBinAddr: 0x100011C80, symSize: 0x54 }
  - { offsetInCU: 0x79C1, offset: 0x1F06D, size: 0x8, addend: 0x0, symName: __ZNKSt3__19basic_iosIcNS_11char_traitsIcEEE5rdbufB7v160006Ev, symObjAddr: 0x2784, symBinAddr: 0x100011CD4, symSize: 0x24 }
  - { offsetInCU: 0x79E6, offset: 0x1F092, size: 0x8, addend: 0x0, symName: __ZNKSt3__18ios_base5rdbufB7v160006Ev, symObjAddr: 0x27A8, symBinAddr: 0x100011CF8, symSize: 0x18 }
  - { offsetInCU: 0x7A0B, offset: 0x1F0B7, size: 0x8, addend: 0x0, symName: __ZNSt3__111char_traitsIcE11eq_int_typeEii, symObjAddr: 0x27C0, symBinAddr: 0x100011D10, symSize: 0x28 }
  - { offsetInCU: 0x7A3C, offset: 0x1F0E8, size: 0x8, addend: 0x0, symName: __ZNSt3__111char_traitsIcE3eofEv, symObjAddr: 0x27E8, symBinAddr: 0x100011D38, symSize: 0x8 }
  - { offsetInCU: 0x7A50, offset: 0x1F0FC, size: 0x8, addend: 0x0, symName: __ZNKSt3__19basic_iosIcNS_11char_traitsIcEEE5widenB7v160006Ec, symObjAddr: 0x27F0, symBinAddr: 0x100011D40, symSize: 0x84 }
  - { offsetInCU: 0x7ABB, offset: 0x1F167, size: 0x8, addend: 0x0, symName: __ZNKSt3__15ctypeIcE5widenB7v160006Ec, symObjAddr: 0x28A0, symBinAddr: 0x100011DF0, symSize: 0x38 }
  - { offsetInCU: 0x7AEF, offset: 0x1F19B, size: 0x8, addend: 0x0, symName: __ZNSt3__18ios_base8setstateB7v160006Ej, symObjAddr: 0x28D8, symBinAddr: 0x100011E28, symSize: 0x34 }
  - { offsetInCU: 0x52, offset: 0x1F2D8, size: 0x8, addend: 0x0, symName: _errors, symObjAddr: 0xFE50, symBinAddr: 0x100034708, symSize: 0x0 }
  - { offsetInCU: 0x471E, offset: 0x239A4, size: 0x8, addend: 0x0, symName: __ZN5ErrorD1Ev, symObjAddr: 0x34, symBinAddr: 0x100011E9C, symSize: 0x2C }
  - { offsetInCU: 0x4748, offset: 0x239CE, size: 0x8, addend: 0x0, symName: __Z8ErrorMsgi, symObjAddr: 0x60, symBinAddr: 0x100011EC8, symSize: 0xB0 }
  - { offsetInCU: 0x4791, offset: 0x23A17, size: 0x8, addend: 0x0, symName: __ZN5ErrorD2Ev, symObjAddr: 0x110, symBinAddr: 0x100011F78, symSize: 0x30 }
  - { offsetInCU: 0x5F50, offset: 0x29996, size: 0x8, addend: 0x0, symName: __ZNSt3__112__to_addressB7v160006I7CommandEEPT_S3_, symObjAddr: 0x2BFC, symBinAddr: 0x100013230, symSize: 0x14 }
  - { offsetInCU: 0x5F85, offset: 0x299CB, size: 0x8, addend: 0x0, symName: __ZNSt3__119__allocate_at_leastB7v160006INS_9allocatorI7CommandEEEENS_19__allocation_resultINS_16allocator_traitsIT_E7pointerEEERS6_m, symObjAddr: 0x4644, symBinAddr: 0x1000138D8, symSize: 0x40 }
  - { offsetInCU: 0x5FC8, offset: 0x29A0E, size: 0x8, addend: 0x0, symName: __ZNSt3__142__uninitialized_allocator_move_if_noexceptB7v160006INS_9allocatorI7CommandEENS_16reverse_iteratorIPS2_EES6_S6_EET2_RT_T0_T1_S7_, symObjAddr: 0x48EC, symBinAddr: 0x100013B80, symSize: 0x12C }
  - { offsetInCU: 0x6068, offset: 0x29AAE, size: 0x8, addend: 0x0, symName: __ZNSt3__14swapB7v160006IP7CommandEENS_9enable_ifIXaasr21is_move_constructibleIT_EE5valuesr18is_move_assignableIS4_EE5valueEvE4typeERS4_S7_, symObjAddr: 0x4A64, symBinAddr: 0x100013CF8, symSize: 0x3C }
  - { offsetInCU: 0x60B9, offset: 0x29AFF, size: 0x8, addend: 0x0, symName: __ZNSt3__125__debug_db_invalidate_allB7v160006INS_6vectorI7CommandNS_9allocatorIS2_EEEEEEvPT_, symObjAddr: 0x4B68, symBinAddr: 0x100013DFC, symSize: 0x10 }
  - { offsetInCU: 0x60EA, offset: 0x29B30, size: 0x8, addend: 0x0, symName: __ZNSt3__122__make_exception_guardB7v160006INS_29_AllocatorDestroyRangeReverseINS_9allocatorI7CommandEENS_16reverse_iteratorIPS3_EEEEEENS_28__exception_guard_exceptionsIT_EESA_, symObjAddr: 0x4BC0, symBinAddr: 0x100013E54, symSize: 0x4C }
  - { offsetInCU: 0x6120, offset: 0x29B66, size: 0x8, addend: 0x0, symName: __ZNSt3__1neB7v160006IP7CommandS2_EEbRKNS_16reverse_iteratorIT_EERKNS3_IT0_EE, symObjAddr: 0x4C50, symBinAddr: 0x100013EE4, symSize: 0x48 }
  - { offsetInCU: 0x616C, offset: 0x29BB2, size: 0x8, addend: 0x0, symName: __ZNSt3__112__to_addressB7v160006INS_16reverse_iteratorIP7CommandEEvEENS_5decayIDTclsr19__to_address_helperIT_EE6__callclsr3stdE7declvalIRKS6_EEEEE4typeES8_, symObjAddr: 0x4C98, symBinAddr: 0x100013F2C, symSize: 0x24 }
  - { offsetInCU: 0x61CB, offset: 0x29C11, size: 0x8, addend: 0x0, symName: __ZNSt3__119__allocator_destroyB7v160006INS_9allocatorI7CommandEENS_16reverse_iteratorINS4_IPS2_EEEES7_EEvRT_T0_T1_, symObjAddr: 0x4F48, symBinAddr: 0x1000141DC, symSize: 0x70 }
  - { offsetInCU: 0x6230, offset: 0x29C76, size: 0x8, addend: 0x0, symName: __ZNSt3__1neB7v160006INS_16reverse_iteratorIP7CommandEES4_EEbRKNS1_IT_EERKNS1_IT0_EE, symObjAddr: 0x4FF4, symBinAddr: 0x100014288, symSize: 0x60 }
  - { offsetInCU: 0x627C, offset: 0x29CC2, size: 0x8, addend: 0x0, symName: __ZNSt3__112__to_addressB7v160006INS_16reverse_iteratorINS1_IP7CommandEEEEvEENS_5decayIDTclsr19__to_address_helperIT_EE6__callclsr3stdE7declvalIRKS7_EEEEE4typeES9_, symObjAddr: 0x5080, symBinAddr: 0x100014314, symSize: 0x24 }
  - { offsetInCU: 0x62DB, offset: 0x29D21, size: 0x8, addend: 0x0, symName: __ZNSt3__118__debug_db_erase_cB7v160006INS_6vectorI7CommandNS_9allocatorIS2_EEEEEEvPT_, symObjAddr: 0x6CAC, symBinAddr: 0x1000149D4, symSize: 0x10 }
  - { offsetInCU: 0x6A0E, offset: 0x2A454, size: 0x8, addend: 0x0, symName: __ZNSt3__16vectorI7CommandNS_9allocatorIS1_EEE26__swap_out_circular_bufferERNS_14__split_bufferIS1_RS3_EE, symObjAddr: 0x41AC, symBinAddr: 0x1000134C0, symSize: 0x118 }
  - { offsetInCU: 0x89A3, offset: 0x2C3E9, size: 0x8, addend: 0x0, symName: __ZN11Instruction10InitialiseER15TokenCollection, symObjAddr: 0x0, symBinAddr: 0x1000124D4, symSize: 0x450 }
  - { offsetInCU: 0x8A52, offset: 0x2C498, size: 0x8, addend: 0x0, symName: __ZN11Instruction10AddCommandENSt3__16vectorI5TokenNS0_9allocatorIS2_EEEE, symObjAddr: 0x4C0, symBinAddr: 0x100012924, symSize: 0x160 }
  - { offsetInCU: 0x8AAA, offset: 0x2C4F0, size: 0x8, addend: 0x0, symName: __ZNSt3__16vectorI5TokenNS_9allocatorIS1_EEE3endB7v160006Ev, symObjAddr: 0x6F4, symBinAddr: 0x100012A84, symSize: 0x30 }
  - { offsetInCU: 0x8AD0, offset: 0x2C516, size: 0x8, addend: 0x0, symName: __ZN7CommandC1Ev, symObjAddr: 0x724, symBinAddr: 0x100012AB4, symSize: 0x2C }
  - { offsetInCU: 0x8AFA, offset: 0x2C540, size: 0x8, addend: 0x0, symName: __ZNSt3__16vectorI7CommandNS_9allocatorIS1_EEE9push_backB7v160006ERKS1_, symObjAddr: 0x750, symBinAddr: 0x100012AE0, symSize: 0x6C }
  - { offsetInCU: 0x8B2F, offset: 0x2C575, size: 0x8, addend: 0x0, symName: __ZN11Instruction9NodeCountEv, symObjAddr: 0x7BC, symBinAddr: 0x100012B4C, symSize: 0x98 }
  - { offsetInCU: 0x8B81, offset: 0x2C5C7, size: 0x8, addend: 0x0, symName: __ZNKSt3__16vectorI7CommandNS_9allocatorIS1_EEE4sizeB7v160006Ev, symObjAddr: 0x854, symBinAddr: 0x100012BE4, symSize: 0x28 }
  - { offsetInCU: 0x8BA5, offset: 0x2C5EB, size: 0x8, addend: 0x0, symName: __ZNSt3__16vectorI7CommandNS_9allocatorIS1_EEEixB7v160006Em, symObjAddr: 0x87C, symBinAddr: 0x100012C0C, symSize: 0x2C }
  - { offsetInCU: 0x8BDA, offset: 0x2C620, size: 0x8, addend: 0x0, symName: __ZN11Instruction9GetStringEv, symObjAddr: 0x8A8, symBinAddr: 0x100012C38, symSize: 0x288 }
  - { offsetInCU: 0x8C33, offset: 0x2C679, size: 0x8, addend: 0x0, symName: __ZN11InstructionD2Ev, symObjAddr: 0xD38, symBinAddr: 0x100012EC0, symSize: 0x3C }
  - { offsetInCU: 0x8C5D, offset: 0x2C6A3, size: 0x8, addend: 0x0, symName: __ZNSt3__16vectorI7CommandNS_9allocatorIS1_EEE5clearB7v160006Ev, symObjAddr: 0xD74, symBinAddr: 0x100012EFC, symSize: 0x4C }
  - { offsetInCU: 0x8C90, offset: 0x2C6D6, size: 0x8, addend: 0x0, symName: __ZNSt3__16vectorI7CommandNS_9allocatorIS1_EEED1B7v160006Ev, symObjAddr: 0xDC0, symBinAddr: 0x100012F48, symSize: 0x2C }
  - { offsetInCU: 0x8CB9, offset: 0x2C6FF, size: 0x8, addend: 0x0, symName: __ZN11InstructionD1Ev, symObjAddr: 0xDEC, symBinAddr: 0x100012F74, symSize: 0x2C }
  - { offsetInCU: 0x8CE3, offset: 0x2C729, size: 0x8, addend: 0x0, symName: __ZN7CommandC2Ev, symObjAddr: 0xE18, symBinAddr: 0x100012FA0, symSize: 0x30 }
  - { offsetInCU: 0x8D35, offset: 0x2C77B, size: 0x8, addend: 0x0, symName: __ZNSt3__16vectorI7CommandNS_9allocatorIS1_EEE9__end_capB7v160006Ev, symObjAddr: 0x299C, symBinAddr: 0x100012FD0, symSize: 0x28 }
  - { offsetInCU: 0x8D59, offset: 0x2C79F, size: 0x8, addend: 0x0, symName: __ZNSt3__16vectorI7CommandNS_9allocatorIS1_EEE22__construct_one_at_endB7v160006IJRKS1_EEEvDpOT_, symObjAddr: 0x29C4, symBinAddr: 0x100012FF8, symSize: 0x90 }
  - { offsetInCU: 0x8DA6, offset: 0x2C7EC, size: 0x8, addend: 0x0, symName: __ZNSt3__16vectorI7CommandNS_9allocatorIS1_EEE21__push_back_slow_pathIRKS1_EEvOT_, symObjAddr: 0x2A54, symBinAddr: 0x100013088, symSize: 0xD8 }
  - { offsetInCU: 0x8E02, offset: 0x2C848, size: 0x8, addend: 0x0, symName: __ZNSt3__117__compressed_pairIP7CommandNS_9allocatorIS1_EEE5firstB7v160006Ev, symObjAddr: 0x2B2C, symBinAddr: 0x100013160, symSize: 0x24 }
  - { offsetInCU: 0x8E26, offset: 0x2C86C, size: 0x8, addend: 0x0, symName: __ZNSt3__122__compressed_pair_elemIP7CommandLi0ELb0EE5__getB7v160006Ev, symObjAddr: 0x2B50, symBinAddr: 0x100013184, symSize: 0x14 }
  - { offsetInCU: 0x8E63, offset: 0x2C8A9, size: 0x8, addend: 0x0, symName: __ZNSt3__16vectorI7CommandNS_9allocatorIS1_EEE21_ConstructTransactionC1B7v160006ERS4_m, symObjAddr: 0x2B64, symBinAddr: 0x100013198, symSize: 0x3C }
  - { offsetInCU: 0x8EAB, offset: 0x2C8F1, size: 0x8, addend: 0x0, symName: __ZNSt3__116allocator_traitsINS_9allocatorI7CommandEEE9constructB7v160006IS2_JRKS2_EvEEvRS3_PT_DpOT0_, symObjAddr: 0x2BA0, symBinAddr: 0x1000131D4, symSize: 0x34 }
  - { offsetInCU: 0x8F01, offset: 0x2C947, size: 0x8, addend: 0x0, symName: __ZNSt3__16vectorI7CommandNS_9allocatorIS1_EEE7__allocB7v160006Ev, symObjAddr: 0x2BD4, symBinAddr: 0x100013208, symSize: 0x28 }
  - { offsetInCU: 0x8F25, offset: 0x2C96B, size: 0x8, addend: 0x0, symName: __ZNSt3__16vectorI7CommandNS_9allocatorIS1_EEE21_ConstructTransactionD1B7v160006Ev, symObjAddr: 0x2C10, symBinAddr: 0x100013244, symSize: 0x2C }
  - { offsetInCU: 0x8F4F, offset: 0x2C995, size: 0x8, addend: 0x0, symName: __ZNSt3__16vectorI7CommandNS_9allocatorIS1_EEE21_ConstructTransactionC2B7v160006ERS4_m, symObjAddr: 0x2C3C, symBinAddr: 0x100013270, symSize: 0x4C }
  - { offsetInCU: 0x8F95, offset: 0x2C9DB, size: 0x8, addend: 0x0, symName: __ZNSt3__19allocatorI7CommandE9constructB7v160006IS1_JRKS1_EEEvPT_DpOT0_, symObjAddr: 0x2C88, symBinAddr: 0x1000132BC, symSize: 0x30 }
  - { offsetInCU: 0x8FE9, offset: 0x2CA2F, size: 0x8, addend: 0x0, symName: __ZN7CommandC1ERKS_, symObjAddr: 0x2CB8, symBinAddr: 0x1000132EC, symSize: 0x34 }
  - { offsetInCU: 0x901C, offset: 0x2CA62, size: 0x8, addend: 0x0, symName: __ZN7CommandC2ERKS_, symObjAddr: 0x2CEC, symBinAddr: 0x100013320, symSize: 0x50 }
  - { offsetInCU: 0x9068, offset: 0x2CAAE, size: 0x8, addend: 0x0, symName: __ZNSt3__117__compressed_pairIP7CommandNS_9allocatorIS1_EEE6secondB7v160006Ev, symObjAddr: 0x405C, symBinAddr: 0x100013370, symSize: 0x24 }
  - { offsetInCU: 0x908C, offset: 0x2CAD2, size: 0x8, addend: 0x0, symName: __ZNSt3__122__compressed_pair_elemINS_9allocatorI7CommandEELi1ELb1EE5__getB7v160006Ev, symObjAddr: 0x4080, symBinAddr: 0x100013394, symSize: 0x14 }
  - { offsetInCU: 0x90B1, offset: 0x2CAF7, size: 0x8, addend: 0x0, symName: __ZNSt3__16vectorI7CommandNS_9allocatorIS1_EEE21_ConstructTransactionD2B7v160006Ev, symObjAddr: 0x4094, symBinAddr: 0x1000133A8, symSize: 0x20 }
  - { offsetInCU: 0x90D9, offset: 0x2CB1F, size: 0x8, addend: 0x0, symName: __ZNKSt3__16vectorI7CommandNS_9allocatorIS1_EEE11__recommendB7v160006Em, symObjAddr: 0x40B4, symBinAddr: 0x1000133C8, symSize: 0xB4 }
  - { offsetInCU: 0x912C, offset: 0x2CB72, size: 0x8, addend: 0x0, symName: __ZNSt3__114__split_bufferI7CommandRNS_9allocatorIS1_EEEC1EmmS4_, symObjAddr: 0x4168, symBinAddr: 0x10001347C, symSize: 0x44 }
  - { offsetInCU: 0x9180, offset: 0x2CBC6, size: 0x8, addend: 0x0, symName: __ZNSt3__114__split_bufferI7CommandRNS_9allocatorIS1_EEED1Ev, symObjAddr: 0x42C4, symBinAddr: 0x1000135D8, symSize: 0x2C }
  - { offsetInCU: 0x91AA, offset: 0x2CBF0, size: 0x8, addend: 0x0, symName: __ZNKSt3__16vectorI7CommandNS_9allocatorIS1_EEE8max_sizeEv, symObjAddr: 0x42F0, symBinAddr: 0x100013604, symSize: 0x60 }
  - { offsetInCU: 0x91D0, offset: 0x2CC16, size: 0x8, addend: 0x0, symName: __ZNKSt3__16vectorI7CommandNS_9allocatorIS1_EEE20__throw_length_errorB7v160006Ev, symObjAddr: 0x4350, symBinAddr: 0x100013664, symSize: 0x1C }
  - { offsetInCU: 0x91F4, offset: 0x2CC3A, size: 0x8, addend: 0x0, symName: __ZNKSt3__16vectorI7CommandNS_9allocatorIS1_EEE8capacityB7v160006Ev, symObjAddr: 0x436C, symBinAddr: 0x100013680, symSize: 0x40 }
  - { offsetInCU: 0x9223, offset: 0x2CC69, size: 0x8, addend: 0x0, symName: __ZNSt3__116allocator_traitsINS_9allocatorI7CommandEEE8max_sizeB7v160006IS3_vEEmRKS3_, symObjAddr: 0x43D8, symBinAddr: 0x1000136C0, symSize: 0x24 }
  - { offsetInCU: 0x9250, offset: 0x2CC96, size: 0x8, addend: 0x0, symName: __ZNKSt3__16vectorI7CommandNS_9allocatorIS1_EEE7__allocB7v160006Ev, symObjAddr: 0x43FC, symBinAddr: 0x1000136E4, symSize: 0x28 }
  - { offsetInCU: 0x9274, offset: 0x2CCBA, size: 0x8, addend: 0x0, symName: __ZNKSt3__19allocatorI7CommandE8max_sizeB7v160006Ev, symObjAddr: 0x4424, symBinAddr: 0x10001370C, symSize: 0x18 }
  - { offsetInCU: 0x9298, offset: 0x2CCDE, size: 0x8, addend: 0x0, symName: __ZNKSt3__117__compressed_pairIP7CommandNS_9allocatorIS1_EEE6secondB7v160006Ev, symObjAddr: 0x443C, symBinAddr: 0x100013724, symSize: 0x24 }
  - { offsetInCU: 0x92BC, offset: 0x2CD02, size: 0x8, addend: 0x0, symName: __ZNKSt3__122__compressed_pair_elemINS_9allocatorI7CommandEELi1ELb1EE5__getB7v160006Ev, symObjAddr: 0x4460, symBinAddr: 0x100013748, symSize: 0x14 }
  - { offsetInCU: 0x92E0, offset: 0x2CD26, size: 0x8, addend: 0x0, symName: __ZNKSt3__16vectorI7CommandNS_9allocatorIS1_EEE9__end_capB7v160006Ev, symObjAddr: 0x4474, symBinAddr: 0x10001375C, symSize: 0x28 }
  - { offsetInCU: 0x9304, offset: 0x2CD4A, size: 0x8, addend: 0x0, symName: __ZNKSt3__117__compressed_pairIP7CommandNS_9allocatorIS1_EEE5firstB7v160006Ev, symObjAddr: 0x449C, symBinAddr: 0x100013784, symSize: 0x24 }
  - { offsetInCU: 0x9328, offset: 0x2CD6E, size: 0x8, addend: 0x0, symName: __ZNKSt3__122__compressed_pair_elemIP7CommandLi0ELb0EE5__getB7v160006Ev, symObjAddr: 0x44C0, symBinAddr: 0x1000137A8, symSize: 0x14 }
  - { offsetInCU: 0x934C, offset: 0x2CD92, size: 0x8, addend: 0x0, symName: __ZNSt3__114__split_bufferI7CommandRNS_9allocatorIS1_EEEC2EmmS4_, symObjAddr: 0x4528, symBinAddr: 0x1000137BC, symSize: 0xE0 }
  - { offsetInCU: 0x93BE, offset: 0x2CE04, size: 0x8, addend: 0x0, symName: __ZNSt3__117__compressed_pairIP7CommandRNS_9allocatorIS1_EEEC1B7v160006IDnS5_EEOT_OT0_, symObjAddr: 0x4608, symBinAddr: 0x10001389C, symSize: 0x3C }
  - { offsetInCU: 0x9415, offset: 0x2CE5B, size: 0x8, addend: 0x0, symName: __ZNSt3__114__split_bufferI7CommandRNS_9allocatorIS1_EEE7__allocB7v160006Ev, symObjAddr: 0x4684, symBinAddr: 0x100013918, symSize: 0x28 }
  - { offsetInCU: 0x9439, offset: 0x2CE7F, size: 0x8, addend: 0x0, symName: __ZNSt3__114__split_bufferI7CommandRNS_9allocatorIS1_EEE9__end_capB7v160006Ev, symObjAddr: 0x46AC, symBinAddr: 0x100013940, symSize: 0x28 }
  - { offsetInCU: 0x945D, offset: 0x2CEA3, size: 0x8, addend: 0x0, symName: __ZNSt3__117__compressed_pairIP7CommandRNS_9allocatorIS1_EEEC2B7v160006IDnS5_EEOT_OT0_, symObjAddr: 0x46D4, symBinAddr: 0x100013968, symSize: 0x48 }
  - { offsetInCU: 0x94B5, offset: 0x2CEFB, size: 0x8, addend: 0x0, symName: __ZNSt3__122__compressed_pair_elemIP7CommandLi0ELb0EEC2B7v160006IDnvEEOT_, symObjAddr: 0x471C, symBinAddr: 0x1000139B0, symSize: 0x1C }
  - { offsetInCU: 0x94F6, offset: 0x2CF3C, size: 0x8, addend: 0x0, symName: __ZNSt3__122__compressed_pair_elemIRNS_9allocatorI7CommandEELi1ELb0EEC2B7v160006IS4_vEEOT_, symObjAddr: 0x4738, symBinAddr: 0x1000139CC, symSize: 0x20 }
  - { offsetInCU: 0x9536, offset: 0x2CF7C, size: 0x8, addend: 0x0, symName: __ZNSt3__19allocatorI7CommandE8allocateB7v160006Em, symObjAddr: 0x4758, symBinAddr: 0x1000139EC, symSize: 0x5C }
  - { offsetInCU: 0x9568, offset: 0x2CFAE, size: 0x8, addend: 0x0, symName: __ZNSt3__117__compressed_pairIP7CommandRNS_9allocatorIS1_EEE6secondB7v160006Ev, symObjAddr: 0x47B4, symBinAddr: 0x100013A48, symSize: 0x28 }
  - { offsetInCU: 0x958C, offset: 0x2CFD2, size: 0x8, addend: 0x0, symName: __ZNSt3__122__compressed_pair_elemIRNS_9allocatorI7CommandEELi1ELb0EE5__getB7v160006Ev, symObjAddr: 0x47DC, symBinAddr: 0x100013A70, symSize: 0x18 }
  - { offsetInCU: 0x95B0, offset: 0x2CFF6, size: 0x8, addend: 0x0, symName: __ZNSt3__117__compressed_pairIP7CommandRNS_9allocatorIS1_EEE5firstB7v160006Ev, symObjAddr: 0x47F4, symBinAddr: 0x100013A88, symSize: 0x24 }
  - { offsetInCU: 0x95D4, offset: 0x2D01A, size: 0x8, addend: 0x0, symName: __ZNKSt3__16vectorI7CommandNS_9allocatorIS1_EEE17__annotate_deleteB7v160006Ev, symObjAddr: 0x4818, symBinAddr: 0x100013AAC, symSize: 0xD4 }
  - { offsetInCU: 0x95F8, offset: 0x2D03E, size: 0x8, addend: 0x0, symName: __ZNSt3__116reverse_iteratorIP7CommandEC1B7v160006ES2_, symObjAddr: 0x4A18, symBinAddr: 0x100013CAC, symSize: 0x34 }
  - { offsetInCU: 0x962F, offset: 0x2D075, size: 0x8, addend: 0x0, symName: __ZNKSt3__116reverse_iteratorIP7CommandE4baseB7v160006Ev, symObjAddr: 0x4A4C, symBinAddr: 0x100013CE0, symSize: 0x18 }
  - { offsetInCU: 0x9653, offset: 0x2D099, size: 0x8, addend: 0x0, symName: __ZNKSt3__16vectorI7CommandNS_9allocatorIS1_EEE14__annotate_newB7v160006Em, symObjAddr: 0x4AA0, symBinAddr: 0x100013D34, symSize: 0xC8 }
  - { offsetInCU: 0x9686, offset: 0x2D0CC, size: 0x8, addend: 0x0, symName: __ZNKSt3__16vectorI7CommandNS_9allocatorIS1_EEE31__annotate_contiguous_containerB7v160006EPKvS6_S6_S6_, symObjAddr: 0x4B78, symBinAddr: 0x100013E0C, symSize: 0x20 }
  - { offsetInCU: 0x96DA, offset: 0x2D120, size: 0x8, addend: 0x0, symName: __ZNKSt3__16vectorI7CommandNS_9allocatorIS1_EEE4dataB7v160006Ev, symObjAddr: 0x4B98, symBinAddr: 0x100013E2C, symSize: 0x28 }
  - { offsetInCU: 0x96FE, offset: 0x2D144, size: 0x8, addend: 0x0, symName: __ZNSt3__129_AllocatorDestroyRangeReverseINS_9allocatorI7CommandEENS_16reverse_iteratorIPS2_EEEC1B7v160006ERS3_RS6_S9_, symObjAddr: 0x4C0C, symBinAddr: 0x100013EA0, symSize: 0x44 }
  - { offsetInCU: 0x9754, offset: 0x2D19A, size: 0x8, addend: 0x0, symName: __ZNKSt3__116reverse_iteratorIP7CommandEdeB7v160006Ev, symObjAddr: 0x4CBC, symBinAddr: 0x100013F50, symSize: 0x28 }
  - { offsetInCU: 0x9786, offset: 0x2D1CC, size: 0x8, addend: 0x0, symName: __ZNSt3__116reverse_iteratorIP7CommandEppB7v160006Ev, symObjAddr: 0x4CE4, symBinAddr: 0x100013F78, symSize: 0x20 }
  - { offsetInCU: 0x97AA, offset: 0x2D1F0, size: 0x8, addend: 0x0, symName: __ZNSt3__128__exception_guard_exceptionsINS_29_AllocatorDestroyRangeReverseINS_9allocatorI7CommandEENS_16reverse_iteratorIPS3_EEEEE10__completeB7v160006Ev, symObjAddr: 0x4D04, symBinAddr: 0x100013F98, symSize: 0x1C }
  - { offsetInCU: 0x97CE, offset: 0x2D214, size: 0x8, addend: 0x0, symName: __ZNSt3__128__exception_guard_exceptionsINS_29_AllocatorDestroyRangeReverseINS_9allocatorI7CommandEENS_16reverse_iteratorIPS3_EEEEED1B7v160006Ev, symObjAddr: 0x4D20, symBinAddr: 0x100013FB4, symSize: 0x2C }
  - { offsetInCU: 0x97F7, offset: 0x2D23D, size: 0x8, addend: 0x0, symName: __ZNSt3__128__exception_guard_exceptionsINS_29_AllocatorDestroyRangeReverseINS_9allocatorI7CommandEENS_16reverse_iteratorIPS3_EEEEEC1B7v160006ES8_, symObjAddr: 0x4D4C, symBinAddr: 0x100013FE0, symSize: 0x34 }
  - { offsetInCU: 0x9830, offset: 0x2D276, size: 0x8, addend: 0x0, symName: __ZNSt3__128__exception_guard_exceptionsINS_29_AllocatorDestroyRangeReverseINS_9allocatorI7CommandEENS_16reverse_iteratorIPS3_EEEEEC2B7v160006ES8_, symObjAddr: 0x4D80, symBinAddr: 0x100014014, symSize: 0x30 }
  - { offsetInCU: 0x9868, offset: 0x2D2AE, size: 0x8, addend: 0x0, symName: __ZNSt3__129_AllocatorDestroyRangeReverseINS_9allocatorI7CommandEENS_16reverse_iteratorIPS2_EEEC2B7v160006ERS3_RS6_S9_, symObjAddr: 0x4DB0, symBinAddr: 0x100014044, symSize: 0x38 }
  - { offsetInCU: 0x98C3, offset: 0x2D309, size: 0x8, addend: 0x0, symName: __ZNSt3__119__to_address_helperINS_16reverse_iteratorIP7CommandEEvE6__callB7v160006ERKS4_, symObjAddr: 0x4DE8, symBinAddr: 0x10001407C, symSize: 0x38 }
  - { offsetInCU: 0x98E5, offset: 0x2D32B, size: 0x8, addend: 0x0, symName: __ZNKSt3__116reverse_iteratorIP7CommandEptB7v160006Ev, symObjAddr: 0x4E20, symBinAddr: 0x1000140B4, symSize: 0x24 }
  - { offsetInCU: 0x9909, offset: 0x2D34F, size: 0x8, addend: 0x0, symName: __ZNSt3__128__exception_guard_exceptionsINS_29_AllocatorDestroyRangeReverseINS_9allocatorI7CommandEENS_16reverse_iteratorIPS3_EEEEED2B7v160006Ev, symObjAddr: 0x4E44, symBinAddr: 0x1000140D8, symSize: 0x50 }
  - { offsetInCU: 0x9932, offset: 0x2D378, size: 0x8, addend: 0x0, symName: __ZNKSt3__129_AllocatorDestroyRangeReverseINS_9allocatorI7CommandEENS_16reverse_iteratorIPS2_EEEclB7v160006Ev, symObjAddr: 0x4E94, symBinAddr: 0x100014128, symSize: 0xB4 }
  - { offsetInCU: 0x9957, offset: 0x2D39D, size: 0x8, addend: 0x0, symName: __ZNSt3__116reverse_iteratorINS0_IP7CommandEEEC1B7v160006ES3_, symObjAddr: 0x4FB8, symBinAddr: 0x10001424C, symSize: 0x3C }
  - { offsetInCU: 0x998F, offset: 0x2D3D5, size: 0x8, addend: 0x0, symName: __ZNSt3__116allocator_traitsINS_9allocatorI7CommandEEE7destroyB7v160006IS2_vEEvRS3_PT_, symObjAddr: 0x5054, symBinAddr: 0x1000142E8, symSize: 0x2C }
  - { offsetInCU: 0x99CB, offset: 0x2D411, size: 0x8, addend: 0x0, symName: __ZNSt3__116reverse_iteratorINS0_IP7CommandEEEppB7v160006Ev, symObjAddr: 0x50A4, symBinAddr: 0x100014338, symSize: 0x30 }
  - { offsetInCU: 0x99EF, offset: 0x2D435, size: 0x8, addend: 0x0, symName: __ZNKSt3__116reverse_iteratorINS0_IP7CommandEEE4baseB7v160006Ev, symObjAddr: 0x50D4, symBinAddr: 0x100014368, symSize: 0x24 }
  - { offsetInCU: 0x9A13, offset: 0x2D459, size: 0x8, addend: 0x0, symName: __ZNSt3__19allocatorI7CommandE7destroyB7v160006EPS1_, symObjAddr: 0x50F8, symBinAddr: 0x10001438C, symSize: 0x28 }
  - { offsetInCU: 0x9A4B, offset: 0x2D491, size: 0x8, addend: 0x0, symName: __ZNSt3__119__to_address_helperINS_16reverse_iteratorINS1_IP7CommandEEEEvE6__callB7v160006ERKS5_, symObjAddr: 0x5120, symBinAddr: 0x1000143B4, symSize: 0x38 }
  - { offsetInCU: 0x9A6D, offset: 0x2D4B3, size: 0x8, addend: 0x0, symName: __ZNKSt3__116reverse_iteratorINS0_IP7CommandEEEptB7v160006Ev, symObjAddr: 0x5158, symBinAddr: 0x1000143EC, symSize: 0x24 }
  - { offsetInCU: 0x9A91, offset: 0x2D4D7, size: 0x8, addend: 0x0, symName: __ZNKSt3__116reverse_iteratorINS0_IP7CommandEEEdeB7v160006Ev, symObjAddr: 0x517C, symBinAddr: 0x100014410, symSize: 0x34 }
  - { offsetInCU: 0x9AC3, offset: 0x2D509, size: 0x8, addend: 0x0, symName: __ZNSt3__116reverse_iteratorIP7CommandEmmB7v160006Ev, symObjAddr: 0x51B0, symBinAddr: 0x100014444, symSize: 0x20 }
  - { offsetInCU: 0x9AE8, offset: 0x2D52E, size: 0x8, addend: 0x0, symName: __ZNSt3__116reverse_iteratorINS0_IP7CommandEEEC2B7v160006ES3_, symObjAddr: 0x51D0, symBinAddr: 0x100014464, symSize: 0x2C }
  - { offsetInCU: 0x9B1F, offset: 0x2D565, size: 0x8, addend: 0x0, symName: __ZNSt3__116reverse_iteratorIP7CommandEC2B7v160006ES2_, symObjAddr: 0x51FC, symBinAddr: 0x100014490, symSize: 0x28 }
  - { offsetInCU: 0x9B55, offset: 0x2D59B, size: 0x8, addend: 0x0, symName: __ZNSt3__114__split_bufferI7CommandRNS_9allocatorIS1_EEED2Ev, symObjAddr: 0x5224, symBinAddr: 0x1000144B8, symSize: 0x8C }
  - { offsetInCU: 0x9B7F, offset: 0x2D5C5, size: 0x8, addend: 0x0, symName: __ZNSt3__114__split_bufferI7CommandRNS_9allocatorIS1_EEE5clearB7v160006Ev, symObjAddr: 0x52B0, symBinAddr: 0x100014544, symSize: 0x28 }
  - { offsetInCU: 0x9BA4, offset: 0x2D5EA, size: 0x8, addend: 0x0, symName: __ZNSt3__116allocator_traitsINS_9allocatorI7CommandEEE10deallocateB7v160006ERS3_PS2_m, symObjAddr: 0x52D8, symBinAddr: 0x10001456C, symSize: 0x34 }
  - { offsetInCU: 0x9BE5, offset: 0x2D62B, size: 0x8, addend: 0x0, symName: __ZNKSt3__114__split_bufferI7CommandRNS_9allocatorIS1_EEE8capacityB7v160006Ev, symObjAddr: 0x530C, symBinAddr: 0x1000145A0, symSize: 0x40 }
  - { offsetInCU: 0x9C09, offset: 0x2D64F, size: 0x8, addend: 0x0, symName: __ZNSt3__114__split_bufferI7CommandRNS_9allocatorIS1_EEE17__destruct_at_endB7v160006EPS1_, symObjAddr: 0x534C, symBinAddr: 0x1000145E0, symSize: 0x2C }
  - { offsetInCU: 0x9C3B, offset: 0x2D681, size: 0x8, addend: 0x0, symName: __ZNSt3__114__split_bufferI7CommandRNS_9allocatorIS1_EEE17__destruct_at_endB7v160006EPS1_NS_17integral_constantIbLb0EEE, symObjAddr: 0x5378, symBinAddr: 0x10001460C, symSize: 0x80 }
  - { offsetInCU: 0x9C79, offset: 0x2D6BF, size: 0x8, addend: 0x0, symName: __ZNSt3__19allocatorI7CommandE10deallocateB7v160006EPS1_m, symObjAddr: 0x53F8, symBinAddr: 0x10001468C, symSize: 0x44 }
  - { offsetInCU: 0x9CB9, offset: 0x2D6FF, size: 0x8, addend: 0x0, symName: __ZNKSt3__114__split_bufferI7CommandRNS_9allocatorIS1_EEE9__end_capB7v160006Ev, symObjAddr: 0x543C, symBinAddr: 0x1000146D0, symSize: 0x28 }
  - { offsetInCU: 0x9CDD, offset: 0x2D723, size: 0x8, addend: 0x0, symName: __ZNKSt3__117__compressed_pairIP7CommandRNS_9allocatorIS1_EEE5firstB7v160006Ev, symObjAddr: 0x5464, symBinAddr: 0x1000146F8, symSize: 0x24 }
  - { offsetInCU: 0x9D01, offset: 0x2D747, size: 0x8, addend: 0x0, symName: __ZNSt3__16vectorI7CommandNS_9allocatorIS1_EEE7__clearB7v160006Ev, symObjAddr: 0x69F4, symBinAddr: 0x10001471C, symSize: 0x28 }
  - { offsetInCU: 0x9D25, offset: 0x2D76B, size: 0x8, addend: 0x0, symName: __ZNKSt3__16vectorI7CommandNS_9allocatorIS1_EEE17__annotate_shrinkB7v160006Em, symObjAddr: 0x6A1C, symBinAddr: 0x100014744, symSize: 0xD0 }
  - { offsetInCU: 0x9D58, offset: 0x2D79E, size: 0x8, addend: 0x0, symName: __ZNSt3__16vectorI7CommandNS_9allocatorIS1_EEE22__base_destruct_at_endB7v160006EPS1_, symObjAddr: 0x6AEC, symBinAddr: 0x100014814, symSize: 0x8C }
  - { offsetInCU: 0x9D9A, offset: 0x2D7E0, size: 0x8, addend: 0x0, symName: __ZNSt3__16vectorI7CommandNS_9allocatorIS1_EEED2B7v160006Ev, symObjAddr: 0x6B78, symBinAddr: 0x1000148A0, symSize: 0x44 }
  - { offsetInCU: 0x9DC3, offset: 0x2D809, size: 0x8, addend: 0x0, symName: __ZNSt3__16vectorI7CommandNS_9allocatorIS1_EEE16__destroy_vectorC1ERS4_, symObjAddr: 0x6BBC, symBinAddr: 0x1000148E4, symSize: 0x34 }
  - { offsetInCU: 0x9DFB, offset: 0x2D841, size: 0x8, addend: 0x0, symName: __ZNSt3__16vectorI7CommandNS_9allocatorIS1_EEE16__destroy_vectorclB7v160006Ev, symObjAddr: 0x6BF0, symBinAddr: 0x100014918, symSize: 0x9C }
  - { offsetInCU: 0x9E20, offset: 0x2D866, size: 0x8, addend: 0x0, symName: __ZNSt3__16vectorI7CommandNS_9allocatorIS1_EEE16__destroy_vectorC2ERS4_, symObjAddr: 0x6C8C, symBinAddr: 0x1000149B4, symSize: 0x20 }
  - { offsetInCU: 0x52, offset: 0x2D95D, size: 0x8, addend: 0x0, symName: _DirectCommandPtr, symObjAddr: 0x1EF0, symBinAddr: 0x100034000, symSize: 0x0 }
  - { offsetInCU: 0x4664, offset: 0x31F6F, size: 0x8, addend: 0x0, symName: _CommandPtr, symObjAddr: 0x1F50, symBinAddr: 0x100034060, symSize: 0x0 }
  - { offsetInCU: 0x63D9, offset: 0x33CE4, size: 0x8, addend: 0x0, symName: __Z8EmptyCmd7Command, symObjAddr: 0x0, symBinAddr: 0x1000149E4, symSize: 0x34 }
  - { offsetInCU: 0x6406, offset: 0x33D11, size: 0x8, addend: 0x0, symName: __Z7ListCmd7Command, symObjAddr: 0x34, symBinAddr: 0x100014A18, symSize: 0x210 }
  - { offsetInCU: 0x649D, offset: 0x33DA8, size: 0x8, addend: 0x0, symName: __Z6NewCmd7Command, symObjAddr: 0x294, symBinAddr: 0x100014C28, symSize: 0x34 }
  - { offsetInCU: 0x64CA, offset: 0x33DD5, size: 0x8, addend: 0x0, symName: __Z7ExitCmd7Command, symObjAddr: 0x2C8, symBinAddr: 0x100014C5C, symSize: 0x2C }
  - { offsetInCU: 0x64F7, offset: 0x33E02, size: 0x8, addend: 0x0, symName: __Z8DebugCmd7Command, symObjAddr: 0x2F4, symBinAddr: 0x100014C88, symSize: 0x34 }
  - { offsetInCU: 0x6524, offset: 0x33E2F, size: 0x8, addend: 0x0, symName: __Z6RunCmd7Command, symObjAddr: 0x328, symBinAddr: 0x100014CBC, symSize: 0x34 }
  - { offsetInCU: 0x6551, offset: 0x33E5C, size: 0x8, addend: 0x0, symName: __Z7EvalCmd7Command, symObjAddr: 0x35C, symBinAddr: 0x100014CF0, symSize: 0x1EC }
  - { offsetInCU: 0x65C8, offset: 0x33ED3, size: 0x8, addend: 0x0, symName: __Z7LoadCmd7Command, symObjAddr: 0x5EC, symBinAddr: 0x100014EDC, symSize: 0x34 }
  - { offsetInCU: 0x65F5, offset: 0x33F00, size: 0x8, addend: 0x0, symName: __Z7SaveCmd7Command, symObjAddr: 0x620, symBinAddr: 0x100014F10, symSize: 0x34 }
  - { offsetInCU: 0x6622, offset: 0x33F2D, size: 0x8, addend: 0x0, symName: __Z11NodelistCmd7Command, symObjAddr: 0x654, symBinAddr: 0x100014F44, symSize: 0x34 }
  - { offsetInCU: 0x664F, offset: 0x33F5A, size: 0x8, addend: 0x0, symName: __Z7EditCmd7Command, symObjAddr: 0x688, symBinAddr: 0x100014F78, symSize: 0x34 }
  - { offsetInCU: 0x667C, offset: 0x33F87, size: 0x8, addend: 0x0, symName: __Z9EditorCmd7Command, symObjAddr: 0x6BC, symBinAddr: 0x100014FAC, symSize: 0x34 }
  - { offsetInCU: 0x66A9, offset: 0x33FB4, size: 0x8, addend: 0x0, symName: __Z6LetCmd7Command, symObjAddr: 0x6F0, symBinAddr: 0x100014FE0, symSize: 0x3D4 }
  - { offsetInCU: 0x6723, offset: 0x3402E, size: 0x8, addend: 0x0, symName: __Z8InputCmd7Command, symObjAddr: 0xAF8, symBinAddr: 0x1000153B4, symSize: 0x34 }
  - { offsetInCU: 0x6750, offset: 0x3405B, size: 0x8, addend: 0x0, symName: __Z6RemCmd7Command, symObjAddr: 0xB2C, symBinAddr: 0x1000153E8, symSize: 0x34 }
  - { offsetInCU: 0x677D, offset: 0x34088, size: 0x8, addend: 0x0, symName: __Z8PrintCmd7Command, symObjAddr: 0xB60, symBinAddr: 0x10001541C, symSize: 0x274 }
  - { offsetInCU: 0x683A, offset: 0x34145, size: 0x8, addend: 0x0, symName: __Z5IfCmd7Command, symObjAddr: 0xF58, symBinAddr: 0x100015720, symSize: 0x34 }
  - { offsetInCU: 0x6867, offset: 0x34172, size: 0x8, addend: 0x0, symName: __Z7GotoCmd7Command, symObjAddr: 0xF8C, symBinAddr: 0x100015754, symSize: 0x34 }
  - { offsetInCU: 0x6894, offset: 0x3419F, size: 0x8, addend: 0x0, symName: __Z8GosubCmd7Command, symObjAddr: 0xFC0, symBinAddr: 0x100015788, symSize: 0x34 }
  - { offsetInCU: 0x68C1, offset: 0x341CC, size: 0x8, addend: 0x0, symName: __Z9ReturnCmd7Command, symObjAddr: 0xFF4, symBinAddr: 0x1000157BC, symSize: 0x34 }
  - { offsetInCU: 0x68EE, offset: 0x341F9, size: 0x8, addend: 0x0, symName: __Z7StopCmd7Command, symObjAddr: 0x1028, symBinAddr: 0x1000157F0, symSize: 0x34 }
  - { offsetInCU: 0x691B, offset: 0x34226, size: 0x8, addend: 0x0, symName: __Z6ForCmd7Command, symObjAddr: 0x105C, symBinAddr: 0x100015824, symSize: 0x34 }
  - { offsetInCU: 0x6948, offset: 0x34253, size: 0x8, addend: 0x0, symName: __Z7NextCmd7Command, symObjAddr: 0x1090, symBinAddr: 0x100015858, symSize: 0x34 }
  - { offsetInCU: 0x6975, offset: 0x34280, size: 0x8, addend: 0x0, symName: __Z8ClearCmd7Command, symObjAddr: 0x10C4, symBinAddr: 0x10001588C, symSize: 0x34 }
  - { offsetInCU: 0x69A4, offset: 0x342AF, size: 0x8, addend: 0x0, symName: __Z6EndCmd7Command, symObjAddr: 0x10F8, symBinAddr: 0x1000158C0, symSize: 0x34 }
  - { offsetInCU: 0x69D3, offset: 0x342DE, size: 0x8, addend: 0x0, symName: __Z6MemCmd7Command, symObjAddr: 0x112C, symBinAddr: 0x1000158F4, symSize: 0x34 }
  - { offsetInCU: 0x6A02, offset: 0x3430D, size: 0x8, addend: 0x0, symName: __Z6DimCmd7Command, symObjAddr: 0x1160, symBinAddr: 0x100015928, symSize: 0x34 }
  - { offsetInCU: 0x6A31, offset: 0x3433C, size: 0x8, addend: 0x0, symName: __Z12RandomizeCmd7Command, symObjAddr: 0x1194, symBinAddr: 0x10001595C, symSize: 0x34 }
  - { offsetInCU: 0x6A60, offset: 0x3436B, size: 0x8, addend: 0x0, symName: __Z9OptionCmd7Command, symObjAddr: 0x11C8, symBinAddr: 0x100015990, symSize: 0x34 }
  - { offsetInCU: 0x6A8F, offset: 0x3439A, size: 0x8, addend: 0x0, symName: __Z11ContinueCmd7Command, symObjAddr: 0x11FC, symBinAddr: 0x1000159C4, symSize: 0x34 }
  - { offsetInCU: 0x6ABE, offset: 0x343C9, size: 0x8, addend: 0x0, symName: __Z7BeepCmd7Command, symObjAddr: 0x1230, symBinAddr: 0x1000159F8, symSize: 0x34 }
  - { offsetInCU: 0x6AED, offset: 0x343F8, size: 0x8, addend: 0x0, symName: __Z6ClsCmd7Command, symObjAddr: 0x1264, symBinAddr: 0x100015A2C, symSize: 0x34 }
  - { offsetInCU: 0x6B1C, offset: 0x34427, size: 0x8, addend: 0x0, symName: __Z7ReadCmd7Command, symObjAddr: 0x1298, symBinAddr: 0x100015A60, symSize: 0x34 }
  - { offsetInCU: 0x6B4B, offset: 0x34456, size: 0x8, addend: 0x0, symName: __Z7DataCmd7Command, symObjAddr: 0x12CC, symBinAddr: 0x100015A94, symSize: 0x34 }
  - { offsetInCU: 0x6B7A, offset: 0x34485, size: 0x8, addend: 0x0, symName: __Z6DefCmd7Command, symObjAddr: 0x1300, symBinAddr: 0x100015AC8, symSize: 0x34 }
  - { offsetInCU: 0x6BA9, offset: 0x344B4, size: 0x8, addend: 0x0, symName: __Z6TmpCmd7Command, symObjAddr: 0x1334, symBinAddr: 0x100015AFC, symSize: 0x34 }
  - { offsetInCU: 0x3F, offset: 0x34522, size: 0x8, addend: 0x0, symName: _MyProcessor, symObjAddr: 0x6D280, symBinAddr: 0x100034968, symSize: 0x0 }
  - { offsetInCU: 0x8A04, offset: 0x3CEE7, size: 0x8, addend: 0x0, symName: __ZNSt3__1L19piecewise_constructE, symObjAddr: 0xC4EB, symBinAddr: 0x10002E831, symSize: 0x0 }
  - { offsetInCU: 0x8A29, offset: 0x3CF0C, size: 0x8, addend: 0x0, symName: __ZNSt3__17advanceB7v160006IP7CommandmmvEEvRT_T0_, symObjAddr: 0x1BF8, symBinAddr: 0x1000174D8, symSize: 0x50 }
  - { offsetInCU: 0xA3ED, offset: 0x3E8D0, size: 0x8, addend: 0x0, symName: __ZNSt3__1eqB7v160006ERKNS_14__map_iteratorINS_15__tree_iteratorINS_12__value_typeINS_12basic_stringIcNS_11char_traitsIcEENS_9allocatorIcEEEE10MyVariableEEPNS_11__tree_nodeISA_PvEElEEEESI_, symObjAddr: 0x119C, symBinAddr: 0x100016C2C, symSize: 0x30 }
  - { offsetInCU: 0xA42A, offset: 0x3E90D, size: 0x8, addend: 0x0, symName: __ZNSt3__1neB7v160006ERKNS_14__map_iteratorINS_15__tree_iteratorINS_12__value_typeINS_12basic_stringIcNS_11char_traitsIcEENS_9allocatorIcEEEE10MyVariableEEPNS_11__tree_nodeISA_PvEElEEEESI_, symObjAddr: 0x1770, symBinAddr: 0x1000171D4, symSize: 0x30 }
  - { offsetInCU: 0xA467, offset: 0x3E94A, size: 0x8, addend: 0x0, symName: __ZNSt3__18distanceB7v160006IP7CommandEENS_15iterator_traitsIT_E15difference_typeES4_S4_, symObjAddr: 0x1B64, symBinAddr: 0x1000174AC, symSize: 0x2C }
  - { offsetInCU: 0xA4AA, offset: 0x3E98D, size: 0x8, addend: 0x0, symName: __ZNSt3__14copyB7v160006IP7CommandS2_EET0_T_S4_S3_, symObjAddr: 0x1C48, symBinAddr: 0x100017528, symSize: 0x40 }
  - { offsetInCU: 0xA504, offset: 0x3E9E7, size: 0x8, addend: 0x0, symName: __ZNSt3__110__distanceB7v160006IP7CommandEENS_15iterator_traitsIT_E15difference_typeES4_S4_NS_26random_access_iterator_tagE, symObjAddr: 0x1F78, symBinAddr: 0x100017794, symSize: 0x28 }
  - { offsetInCU: 0xA551, offset: 0x3EA34, size: 0x8, addend: 0x0, symName: __ZNSt3__19__advanceB7v160006IP7CommandEEvRT_NS_15iterator_traitsIS3_E15difference_typeENS_26random_access_iterator_tagE, symObjAddr: 0x2014, symBinAddr: 0x1000177BC, symSize: 0x30 }
  - { offsetInCU: 0xA59A, offset: 0x3EA7D, size: 0x8, addend: 0x0, symName: __ZNSt3__16__copyB7v160006INS_17_ClassicAlgPolicyEP7CommandS3_S3_EENS_4pairIT0_T2_EES5_T1_S6_, symObjAddr: 0x2044, symBinAddr: 0x1000177EC, symSize: 0x44 }
  - { offsetInCU: 0xA606, offset: 0x3EAE9, size: 0x8, addend: 0x0, symName: __ZNSt3__123__dispatch_copy_or_moveB7v160006INS_17_ClassicAlgPolicyENS_11__copy_loopIS1_EENS_14__copy_trivialEP7CommandS6_S6_EENS_4pairIT2_T4_EES8_T3_S9_, symObjAddr: 0x2088, symBinAddr: 0x100017830, symSize: 0x44 }
  - { offsetInCU: 0xA684, offset: 0x3EB67, size: 0x8, addend: 0x0, symName: __ZNSt3__121__unwrap_and_dispatchB7v160006INS_10__overloadINS_11__copy_loopINS_17_ClassicAlgPolicyEEENS_14__copy_trivialEEEP7CommandS8_S8_Li0EEENS_4pairIT0_T2_EESA_T1_SB_, symObjAddr: 0x20CC, symBinAddr: 0x100017874, symSize: 0xB4 }
  - { offsetInCU: 0xA712, offset: 0x3EBF5, size: 0x8, addend: 0x0, symName: __ZNSt3__114__unwrap_rangeB7v160006IP7CommandS2_EENS_4pairIT0_S4_EET_S6_, symObjAddr: 0x2180, symBinAddr: 0x100017928, symSize: 0x60 }
  - { offsetInCU: 0xA8C3, offset: 0x3EDA6, size: 0x8, addend: 0x0, symName: __ZNSt3__113__unwrap_iterB7v160006IP7CommandNS_18__unwrap_iter_implIS2_Lb1EEELi0EEEDTclsrT0_8__unwrapclsr3stdE7declvalIT_EEEES6_, symObjAddr: 0x2268, symBinAddr: 0x100017A10, symSize: 0x24 }
  - { offsetInCU: 0xA907, offset: 0x3EDEA, size: 0x8, addend: 0x0, symName: __ZNSt3__19make_pairB7v160006IP7CommandS2_EENS_4pairINS_18__unwrap_ref_decayIT_E4typeENS4_IT0_E4typeEEEOS5_OS8_, symObjAddr: 0x228C, symBinAddr: 0x100017A34, symSize: 0x38 }
  - { offsetInCU: 0xA956, offset: 0x3EE39, size: 0x8, addend: 0x0, symName: __ZNSt3__114__rewrap_rangeB7v160006IP7CommandS2_EET_S3_T0_, symObjAddr: 0x22C4, symBinAddr: 0x100017A6C, symSize: 0x2C }
  - { offsetInCU: 0xA9A2, offset: 0x3EE85, size: 0x8, addend: 0x0, symName: __ZNSt3__113__rewrap_iterB7v160006IP7CommandS2_NS_18__unwrap_iter_implIS2_Lb1EEEEET_S5_T0_, symObjAddr: 0x22F0, symBinAddr: 0x100017A98, symSize: 0x3C }
  - { offsetInCU: 0xAB1E, offset: 0x3F001, size: 0x8, addend: 0x0, symName: __ZNSt3__130__uninitialized_allocator_copyB7v160006INS_9allocatorI7CommandEEPS2_S4_S4_EET2_RT_T0_T1_S5_, symObjAddr: 0x4594, symBinAddr: 0x100017C10, symSize: 0xF4 }
  - { offsetInCU: 0xABBC, offset: 0x3F09F, size: 0x8, addend: 0x0, symName: __ZNSt3__122__make_exception_guardB7v160006INS_29_AllocatorDestroyRangeReverseINS_9allocatorI7CommandEEPS3_EEEENS_28__exception_guard_exceptionsIT_EES8_, symObjAddr: 0x4728, symBinAddr: 0x100017D04, symSize: 0x4C }
  - { offsetInCU: 0xABF2, offset: 0x3F0D5, size: 0x8, addend: 0x0, symName: __ZNSt3__119__allocator_destroyB7v160006INS_9allocatorI7CommandEENS_16reverse_iteratorIPS2_EES6_EEvRT_T0_T1_, symObjAddr: 0x4A3C, symBinAddr: 0x100017F94, symSize: 0x70 }
  - { offsetInCU: 0xAC55, offset: 0x3F138, size: 0x8, addend: 0x0, symName: __ZNSt3__119__debug_db_insert_cB7v160006INS_6vectorI11InstructionNS_9allocatorIS2_EEEEEEvPT_, symObjAddr: 0x5330, symBinAddr: 0x1000180E4, symSize: 0x10 }
  - { offsetInCU: 0xAC86, offset: 0x3F169, size: 0x8, addend: 0x0, symName: __ZNSt3__118__debug_db_erase_cB7v160006INS_6vectorI11InstructionNS_9allocatorIS2_EEEEEEvPT_, symObjAddr: 0x55F4, symBinAddr: 0x1000183A8, symSize: 0x10 }
  - { offsetInCU: 0xACB7, offset: 0x3F19A, size: 0x8, addend: 0x0, symName: __ZNSt3__112__to_addressB7v160006I11InstructionEEPT_S3_, symObjAddr: 0x5710, symBinAddr: 0x1000184C4, symSize: 0x14 }
  - { offsetInCU: 0xACEC, offset: 0x3F1CF, size: 0x8, addend: 0x0, symName: __ZNSt3__122__make_exception_guardB7v160006INS_6vectorI7CommandNS_9allocatorIS2_EEE16__destroy_vectorEEENS_28__exception_guard_exceptionsIT_EES8_, symObjAddr: 0x5DC4, symBinAddr: 0x100018B78, symSize: 0x40 }
  - { offsetInCU: 0xAD21, offset: 0x3F204, size: 0x8, addend: 0x0, symName: __ZNSt3__119__debug_db_insert_cB7v160006INS_6vectorI7CommandNS_9allocatorIS2_EEEEEEvPT_, symObjAddr: 0x5E38, symBinAddr: 0x100018BB8, symSize: 0x10 }
  - { offsetInCU: 0xAD52, offset: 0x3F235, size: 0x8, addend: 0x0, symName: __ZNSt3__119__allocate_at_leastB7v160006INS_9allocatorI11InstructionEEEENS_19__allocation_resultINS_16allocator_traitsIT_E7pointerEEERS6_m, symObjAddr: 0x65D0, symBinAddr: 0x100019194, symSize: 0x40 }
  - { offsetInCU: 0xAD95, offset: 0x3F278, size: 0x8, addend: 0x0, symName: __ZNSt3__142__uninitialized_allocator_move_if_noexceptB7v160006INS_9allocatorI11InstructionEENS_16reverse_iteratorIPS2_EES6_S6_EET2_RT_T0_T1_S7_, symObjAddr: 0x6784, symBinAddr: 0x100019348, symSize: 0x12C }
  - { offsetInCU: 0xAE35, offset: 0x3F318, size: 0x8, addend: 0x0, symName: __ZNSt3__14swapB7v160006IP11InstructionEENS_9enable_ifIXaasr21is_move_constructibleIT_EE5valuesr18is_move_assignableIS4_EE5valueEvE4typeERS4_S7_, symObjAddr: 0x68FC, symBinAddr: 0x1000194C0, symSize: 0x3C }
  - { offsetInCU: 0xAE86, offset: 0x3F369, size: 0x8, addend: 0x0, symName: __ZNSt3__125__debug_db_invalidate_allB7v160006INS_6vectorI11InstructionNS_9allocatorIS2_EEEEEEvPT_, symObjAddr: 0x69E4, symBinAddr: 0x1000195A8, symSize: 0x10 }
  - { offsetInCU: 0xAEB7, offset: 0x3F39A, size: 0x8, addend: 0x0, symName: __ZNSt3__122__make_exception_guardB7v160006INS_29_AllocatorDestroyRangeReverseINS_9allocatorI11InstructionEENS_16reverse_iteratorIPS3_EEEEEENS_28__exception_guard_exceptionsIT_EESA_, symObjAddr: 0x69F4, symBinAddr: 0x1000195B8, symSize: 0x4C }
  - { offsetInCU: 0xAEED, offset: 0x3F3D0, size: 0x8, addend: 0x0, symName: __ZNSt3__1neB7v160006IP11InstructionS2_EEbRKNS_16reverse_iteratorIT_EERKNS3_IT0_EE, symObjAddr: 0x6A84, symBinAddr: 0x100019648, symSize: 0x48 }
  - { offsetInCU: 0xAF39, offset: 0x3F41C, size: 0x8, addend: 0x0, symName: __ZNSt3__112__to_addressB7v160006INS_16reverse_iteratorIP11InstructionEEvEENS_5decayIDTclsr19__to_address_helperIT_EE6__callclsr3stdE7declvalIRKS6_EEEEE4typeES8_, symObjAddr: 0x6ACC, symBinAddr: 0x100019690, symSize: 0x24 }
  - { offsetInCU: 0xAF98, offset: 0x3F47B, size: 0x8, addend: 0x0, symName: __ZNSt3__119__allocator_destroyB7v160006INS_9allocatorI11InstructionEENS_16reverse_iteratorINS4_IPS2_EEEES7_EEvRT_T0_T1_, symObjAddr: 0x6D7C, symBinAddr: 0x100019940, symSize: 0x70 }
  - { offsetInCU: 0xAFFD, offset: 0x3F4E0, size: 0x8, addend: 0x0, symName: __ZNSt3__1neB7v160006INS_16reverse_iteratorIP11InstructionEES4_EEbRKNS1_IT_EERKNS1_IT0_EE, symObjAddr: 0x6E28, symBinAddr: 0x1000199EC, symSize: 0x60 }
  - { offsetInCU: 0xB049, offset: 0x3F52C, size: 0x8, addend: 0x0, symName: __ZNSt3__112__to_addressB7v160006INS_16reverse_iteratorINS1_IP11InstructionEEEEvEENS_5decayIDTclsr19__to_address_helperIT_EE6__callclsr3stdE7declvalIRKS7_EEEEE4typeES9_, symObjAddr: 0x6E88, symBinAddr: 0x100019A4C, symSize: 0x24 }
  - { offsetInCU: 0xB0A8, offset: 0x3F58B, size: 0x8, addend: 0x0, symName: __ZNSt3__1miB7v160006IPK11InstructionPS1_EEDTmicldtfp_4baseEcldtfp0_4baseEERKNS_11__wrap_iterIT_EERKNS6_IT0_EE, symObjAddr: 0x72AC, symBinAddr: 0x100019E70, symSize: 0x48 }
  - { offsetInCU: 0xB127, offset: 0x3F60A, size: 0x8, addend: 0x0, symName: __ZNSt3__113move_backwardB7v160006IP11InstructionS2_EET0_T_S4_S3_, symObjAddr: 0x784C, symBinAddr: 0x10001A410, symSize: 0x40 }
  - { offsetInCU: 0xB181, offset: 0x3F664, size: 0x8, addend: 0x0, symName: __ZNSt3__115__move_backwardB7v160006INS_17_ClassicAlgPolicyEP11InstructionS3_S3_EENS_4pairIT0_T2_EES5_T1_S6_, symObjAddr: 0x78BC, symBinAddr: 0x10001A480, symSize: 0x44 }
  - { offsetInCU: 0xB1ED, offset: 0x3F6D0, size: 0x8, addend: 0x0, symName: __ZNSt3__123__dispatch_copy_or_moveB7v160006INS_17_ClassicAlgPolicyENS_20__move_backward_loopIS1_EENS_23__move_backward_trivialEP11InstructionS6_S6_EENS_4pairIT2_T4_EES8_T3_S9_, symObjAddr: 0x7900, symBinAddr: 0x10001A4C4, symSize: 0x44 }
  - { offsetInCU: 0xB26B, offset: 0x3F74E, size: 0x8, addend: 0x0, symName: __ZNSt3__121__unwrap_and_dispatchB7v160006INS_10__overloadINS_20__move_backward_loopINS_17_ClassicAlgPolicyEEENS_23__move_backward_trivialEEEP11InstructionS8_S8_Li0EEENS_4pairIT0_T2_EESA_T1_SB_, symObjAddr: 0x7944, symBinAddr: 0x10001A508, symSize: 0xB4 }
  - { offsetInCU: 0xB2F9, offset: 0x3F7DC, size: 0x8, addend: 0x0, symName: __ZNSt3__114__unwrap_rangeB7v160006IP11InstructionS2_EENS_4pairIT0_S4_EET_S6_, symObjAddr: 0x79F8, symBinAddr: 0x10001A5BC, symSize: 0x60 }
  - { offsetInCU: 0xB46B, offset: 0x3F94E, size: 0x8, addend: 0x0, symName: __ZNSt3__113__unwrap_iterB7v160006IP11InstructionNS_18__unwrap_iter_implIS2_Lb1EEELi0EEEDTclsrT0_8__unwrapclsr3stdE7declvalIT_EEEES6_, symObjAddr: 0x7AFC, symBinAddr: 0x10001A6C0, symSize: 0x24 }
  - { offsetInCU: 0xB4AF, offset: 0x3F992, size: 0x8, addend: 0x0, symName: __ZNSt3__19make_pairB7v160006IP11InstructionS2_EENS_4pairINS_18__unwrap_ref_decayIT_E4typeENS4_IT0_E4typeEEEOS5_OS8_, symObjAddr: 0x7B20, symBinAddr: 0x10001A6E4, symSize: 0x38 }
  - { offsetInCU: 0xB4FE, offset: 0x3F9E1, size: 0x8, addend: 0x0, symName: __ZNSt3__114__rewrap_rangeB7v160006IP11InstructionS2_EET_S3_T0_, symObjAddr: 0x7B58, symBinAddr: 0x10001A71C, symSize: 0x2C }
  - { offsetInCU: 0xB54A, offset: 0x3FA2D, size: 0x8, addend: 0x0, symName: __ZNSt3__113__rewrap_iterB7v160006IP11InstructionS2_NS_18__unwrap_iter_implIS2_Lb1EEEEET_S5_T0_, symObjAddr: 0x7B84, symBinAddr: 0x10001A748, symSize: 0x3C }
  - { offsetInCU: 0xB67F, offset: 0x3FB62, size: 0x8, addend: 0x0, symName: __ZNSt3__14moveB7v160006IP11InstructionS2_EET0_T_S4_S3_, symObjAddr: 0x7CE8, symBinAddr: 0x10001A8AC, symSize: 0x40 }
  - { offsetInCU: 0xB6D9, offset: 0x3FBBC, size: 0x8, addend: 0x0, symName: __ZNSt3__16__moveB7v160006INS_17_ClassicAlgPolicyEP11InstructionS3_S3_EENS_4pairIT0_T2_EES5_T1_S6_, symObjAddr: 0x7E58, symBinAddr: 0x10001AA1C, symSize: 0x44 }
  - { offsetInCU: 0xB745, offset: 0x3FC28, size: 0x8, addend: 0x0, symName: __ZNSt3__123__dispatch_copy_or_moveB7v160006INS_17_ClassicAlgPolicyENS_11__move_loopIS1_EENS_14__move_trivialEP11InstructionS6_S6_EENS_4pairIT2_T4_EES8_T3_S9_, symObjAddr: 0x7E9C, symBinAddr: 0x10001AA60, symSize: 0x44 }
  - { offsetInCU: 0xB7C3, offset: 0x3FCA6, size: 0x8, addend: 0x0, symName: __ZNSt3__121__unwrap_and_dispatchB7v160006INS_10__overloadINS_11__move_loopINS_17_ClassicAlgPolicyEEENS_14__move_trivialEEEP11InstructionS8_S8_Li0EEENS_4pairIT0_T2_EESA_T1_SB_, symObjAddr: 0x7EE0, symBinAddr: 0x10001AAA4, symSize: 0xB4 }
  - { offsetInCU: 0xB8A3, offset: 0x3FD86, size: 0x8, addend: 0x0, symName: __ZNSt3__18distanceB7v160006INS_13move_iteratorIP11InstructionEEEENS_15iterator_traitsIT_E15difference_typeES6_S6_, symObjAddr: 0x8024, symBinAddr: 0x10001ABE8, symSize: 0x3C }
  - { offsetInCU: 0xB8E6, offset: 0x3FDC9, size: 0x8, addend: 0x0, symName: __ZNSt3__110__distanceB7v160006INS_13move_iteratorIP11InstructionEEEENS_15iterator_traitsIT_E15difference_typeES6_S6_NS_26random_access_iterator_tagE, symObjAddr: 0x8100, symBinAddr: 0x10001ACC4, symSize: 0x30 }
  - { offsetInCU: 0xB933, offset: 0x3FE16, size: 0x8, addend: 0x0, symName: __ZNSt3__1miB7v160006IP11InstructionS2_EEDTmicldtfp_4baseEcldtfp0_4baseEERKNS_13move_iteratorIT_EERKNS4_IT0_EE, symObjAddr: 0x8130, symBinAddr: 0x10001ACF4, symSize: 0x48 }
  - { offsetInCU: 0xB982, offset: 0x3FE65, size: 0x8, addend: 0x0, symName: __ZNSt3__142__uninitialized_allocator_move_if_noexceptB7v160006INS_9allocatorI11InstructionEEPS2_S4_S4_EET2_RT_T0_T1_S5_, symObjAddr: 0x8214, symBinAddr: 0x10001ADD8, symSize: 0xF4 }
  - { offsetInCU: 0xBA20, offset: 0x3FF03, size: 0x8, addend: 0x0, symName: __ZNSt3__122__make_exception_guardB7v160006INS_29_AllocatorDestroyRangeReverseINS_9allocatorI11InstructionEEPS3_EEEENS_28__exception_guard_exceptionsIT_EES8_, symObjAddr: 0x8308, symBinAddr: 0x10001AECC, symSize: 0x4C }
  - { offsetInCU: 0xBA56, offset: 0x3FF39, size: 0x8, addend: 0x0, symName: __ZNSt3__119__allocator_destroyB7v160006INS_9allocatorI11InstructionEENS_16reverse_iteratorIPS2_EES6_EEvRT_T0_T1_, symObjAddr: 0x8534, symBinAddr: 0x10001B0F8, symSize: 0x70 }
  - { offsetInCU: 0xBAEC, offset: 0x3FFCF, size: 0x8, addend: 0x0, symName: __ZNSt3__1neB7v160006ERKNS_15__tree_iteratorINS_12__value_typeINS_12basic_stringIcNS_11char_traitsIcEENS_9allocatorIcEEEE10MyVariableEEPNS_11__tree_nodeIS9_PvEElEESG_, symObjAddr: 0x9550, symBinAddr: 0x10001BB64, symSize: 0x34 }
  - { offsetInCU: 0xBB29, offset: 0x4000C, size: 0x8, addend: 0x0, symName: __ZNSt3__1ltB7v160006IcNS_11char_traitsIcEENS_9allocatorIcEEEEbRKNS_12basic_stringIT_T0_T1_EESB_, symObjAddr: 0x971C, symBinAddr: 0x10001BD30, symSize: 0x38 }
  - { offsetInCU: 0xBB81, offset: 0x40064, size: 0x8, addend: 0x0, symName: __ZNSt3__1eqB7v160006ERKNS_15__tree_iteratorINS_12__value_typeINS_12basic_stringIcNS_11char_traitsIcEENS_9allocatorIcEEEE10MyVariableEEPNS_11__tree_nodeIS9_PvEElEESG_, symObjAddr: 0x9A74, symBinAddr: 0x10001BD88, symSize: 0x30 }
  - { offsetInCU: 0xBBF6, offset: 0x400D9, size: 0x8, addend: 0x0, symName: __ZNSt3__116forward_as_tupleB7v160006IJRKNS_12basic_stringIcNS_11char_traitsIcEENS_9allocatorIcEEEEEEENS_5tupleIJDpOT_EEESC_, symObjAddr: 0x9C14, symBinAddr: 0x10001BF28, symSize: 0x2C }
  - { offsetInCU: 0xBC2F, offset: 0x40112, size: 0x8, addend: 0x0, symName: __ZNSt3__116forward_as_tupleB7v160006IJEEENS_5tupleIJDpOT_EEES4_, symObjAddr: 0x9C40, symBinAddr: 0x10001BF54, symSize: 0x4 }
  - { offsetInCU: 0xBC7E, offset: 0x40161, size: 0x8, addend: 0x0, symName: __ZNSt3__13getB7v160006ILm0EJRKNS_12basic_stringIcNS_11char_traitsIcEENS_9allocatorIcEEEEEEERNS_13tuple_elementIXT_ENS_5tupleIJDpT0_EEEE4typeERSD_, symObjAddr: 0xA53C, symBinAddr: 0x10001C850, symSize: 0x24 }
  - { offsetInCU: 0xBCC1, offset: 0x401A4, size: 0x8, addend: 0x0, symName: __ZNSt3__127__tree_balance_after_insertB7v160006IPNS_16__tree_node_baseIPvEEEEvT_S5_, symObjAddr: 0xA5EC, symBinAddr: 0x10001C900, symSize: 0x32C }
  - { offsetInCU: 0xBD3F, offset: 0x40222, size: 0x8, addend: 0x0, symName: __ZNSt3__120__tree_is_left_childB7v160006IPNS_16__tree_node_baseIPvEEEEbT_, symObjAddr: 0xA930, symBinAddr: 0x10001CC44, symSize: 0x2C }
  - { offsetInCU: 0xBD74, offset: 0x40257, size: 0x8, addend: 0x0, symName: __ZNSt3__118__tree_left_rotateB7v160006IPNS_16__tree_node_baseIPvEEEEvT_, symObjAddr: 0xA95C, symBinAddr: 0x10001CC70, symSize: 0xD8 }
  - { offsetInCU: 0xBDB6, offset: 0x40299, size: 0x8, addend: 0x0, symName: __ZNSt3__119__tree_right_rotateB7v160006IPNS_16__tree_node_baseIPvEEEEvT_, symObjAddr: 0xAA34, symBinAddr: 0x10001CD48, symSize: 0xCC }
  - { offsetInCU: 0xBE4F, offset: 0x40332, size: 0x8, addend: 0x0, symName: __ZNSt3__116__tree_next_iterB7v160006IPNS_15__tree_end_nodeIPNS_16__tree_node_baseIPvEEEES5_EET_T0_, symObjAddr: 0xAF28, symBinAddr: 0x10001D23C, symSize: 0x80 }
  - { offsetInCU: 0xBE8D, offset: 0x40370, size: 0x8, addend: 0x0, symName: __ZNSt3__110__tree_minB7v160006IPNS_16__tree_node_baseIPvEEEET_S5_, symObjAddr: 0xAFA8, symBinAddr: 0x10001D2BC, symSize: 0x40 }
  - { offsetInCU: 0xD08C, offset: 0x4156F, size: 0x8, addend: 0x0, symName: __ZNSt3__16vectorI11InstructionNS_9allocatorIS1_EEE26__swap_out_circular_bufferERNS_14__split_bufferIS1_RS3_EE, symObjAddr: 0x6268, symBinAddr: 0x100018E2C, symSize: 0x118 }
  - { offsetInCU: 0xD136, offset: 0x41619, size: 0x8, addend: 0x0, symName: __ZNSt3__16vectorI11InstructionNS_9allocatorIS1_EEE26__swap_out_circular_bufferERNS_14__split_bufferIS1_RS3_EEPS1_, symObjAddr: 0x7694, symBinAddr: 0x10001A258, symSize: 0x154 }
  - { offsetInCU: 0xEF65, offset: 0x43448, size: 0x8, addend: 0x0, symName: __ZN9ProcessorC1Ev, symObjAddr: 0x0, symBinAddr: 0x100015B30, symSize: 0x2C }
  - { offsetInCU: 0xEF8F, offset: 0x43472, size: 0x8, addend: 0x0, symName: __ZN9ProcessorD1Ev, symObjAddr: 0x2C, symBinAddr: 0x100015B5C, symSize: 0x2C }
  - { offsetInCU: 0xEFB9, offset: 0x4349C, size: 0x8, addend: 0x0, symName: __ZN9ProcessorC2Ev, symObjAddr: 0x58, symBinAddr: 0x100015B88, symSize: 0x68 }
  - { offsetInCU: 0xEFE3, offset: 0x434C6, size: 0x8, addend: 0x0, symName: __ZNSt3__16vectorI11InstructionNS_9allocatorIS1_EEEC1B7v160006Ev, symObjAddr: 0xC0, symBinAddr: 0x100015BF0, symSize: 0x2C }
  - { offsetInCU: 0xF00C, offset: 0x434EF, size: 0x8, addend: 0x0, symName: __ZN12VariableListC1Ev, symObjAddr: 0xEC, symBinAddr: 0x100015C1C, symSize: 0x2C }
  - { offsetInCU: 0xF036, offset: 0x43519, size: 0x8, addend: 0x0, symName: __ZNSt3__16vectorI11InstructionNS_9allocatorIS1_EEED1B7v160006Ev, symObjAddr: 0x118, symBinAddr: 0x100015C48, symSize: 0x2C }
  - { offsetInCU: 0xF05F, offset: 0x43542, size: 0x8, addend: 0x0, symName: __ZN9ProcessorD2Ev, symObjAddr: 0x144, symBinAddr: 0x100015C74, symSize: 0x38 }
  - { offsetInCU: 0xF089, offset: 0x4356C, size: 0x8, addend: 0x0, symName: __ZN12VariableListD1Ev, symObjAddr: 0x17C, symBinAddr: 0x100015CAC, symSize: 0x2C }
  - { offsetInCU: 0xF0B3, offset: 0x43596, size: 0x8, addend: 0x0, symName: __ZN9Processor7AddlineE11Instruction, symObjAddr: 0x1A8, symBinAddr: 0x100015CD8, symSize: 0x15C }
  - { offsetInCU: 0xF0F7, offset: 0x435DA, size: 0x8, addend: 0x0, symName: __ZNKSt3__16vectorI11InstructionNS_9allocatorIS1_EEE4sizeB7v160006Ev, symObjAddr: 0x304, symBinAddr: 0x100015E34, symSize: 0x28 }
  - { offsetInCU: 0xF11A, offset: 0x435FD, size: 0x8, addend: 0x0, symName: __ZNSt3__16vectorI11InstructionNS_9allocatorIS1_EEE9push_backB7v160006ERKS1_, symObjAddr: 0x32C, symBinAddr: 0x100015E5C, symSize: 0x6C }
  - { offsetInCU: 0xF150, offset: 0x43633, size: 0x8, addend: 0x0, symName: __ZNSt3__16vectorI11InstructionNS_9allocatorIS1_EEEixB7v160006Em, symObjAddr: 0x398, symBinAddr: 0x100015EC8, symSize: 0x24 }
  - { offsetInCU: 0xF184, offset: 0x43667, size: 0x8, addend: 0x0, symName: __ZNSt3__16vectorI11InstructionNS_9allocatorIS1_EEE6insertENS_11__wrap_iterIPKS1_EERS6_, symObjAddr: 0x3BC, symBinAddr: 0x100015EEC, symSize: 0x1F8 }
  - { offsetInCU: 0xF21A, offset: 0x436FD, size: 0x8, addend: 0x0, symName: __ZNSt3__16vectorI11InstructionNS_9allocatorIS1_EEE5beginB7v160006Ev, symObjAddr: 0x5B4, symBinAddr: 0x1000160E4, symSize: 0x30 }
  - { offsetInCU: 0xF241, offset: 0x43724, size: 0x8, addend: 0x0, symName: __ZNKSt3__111__wrap_iterIP11InstructionEplB7v160006El, symObjAddr: 0x5E4, symBinAddr: 0x100016114, symSize: 0x3C }
  - { offsetInCU: 0xF28B, offset: 0x4376E, size: 0x8, addend: 0x0, symName: __ZNSt3__111__wrap_iterIPK11InstructionEC1B7v160006IPS1_EERKNS0_IT_EEPNS_9enable_ifIXsr14is_convertibleIS7_S3_EE5valueEvE4typeE, symObjAddr: 0x620, symBinAddr: 0x100016150, symSize: 0x3C }
  - { offsetInCU: 0xF2D5, offset: 0x437B8, size: 0x8, addend: 0x0, symName: __ZN9Processor10ChangeLineE11Instruction, symObjAddr: 0x65C, symBinAddr: 0x10001618C, symSize: 0xE8 }
  - { offsetInCU: 0xF319, offset: 0x437FC, size: 0x8, addend: 0x0, symName: __ZN11InstructionaSERKS_, symObjAddr: 0x744, symBinAddr: 0x100016274, symSize: 0x48 }
  - { offsetInCU: 0xF349, offset: 0x4382C, size: 0x8, addend: 0x0, symName: __ZN9Processor8ListFullEv, symObjAddr: 0x78C, symBinAddr: 0x1000162BC, symSize: 0x168 }
  - { offsetInCU: 0xF3A1, offset: 0x43884, size: 0x8, addend: 0x0, symName: __ZNSt3__112basic_stringIcNS_11char_traitsIcEENS_9allocatorIcEEEpLB7v160006ERKS5_, symObjAddr: 0x968, symBinAddr: 0x100016424, symSize: 0x2C }
  - { offsetInCU: 0xF3D4, offset: 0x438B7, size: 0x8, addend: 0x0, symName: __ZN9Processor11ListPartialEii, symObjAddr: 0x994, symBinAddr: 0x100016450, symSize: 0x1BC }
  - { offsetInCU: 0xF443, offset: 0x43926, size: 0x8, addend: 0x0, symName: __ZN9Processor8ListlineEi, symObjAddr: 0xB50, symBinAddr: 0x10001660C, symSize: 0x1B8 }
  - { offsetInCU: 0xF4A4, offset: 0x43987, size: 0x8, addend: 0x0, symName: __ZN9Processor4ExitEv, symObjAddr: 0xD08, symBinAddr: 0x1000167C4, symSize: 0x18 }
  - { offsetInCU: 0xF4CB, offset: 0x439AE, size: 0x8, addend: 0x0, symName: __ZN10MyVariableC2Ev, symObjAddr: 0xD20, symBinAddr: 0x1000167DC, symSize: 0x38 }
  - { offsetInCU: 0xF4F5, offset: 0x439D8, size: 0x8, addend: 0x0, symName: __ZN10MyVariableC1Ev, symObjAddr: 0xD84, symBinAddr: 0x100016814, symSize: 0x2C }
  - { offsetInCU: 0xF51F, offset: 0x43A02, size: 0x8, addend: 0x0, symName: __ZN10MyVariable3SetENSt3__112basic_stringIcNS0_11char_traitsIcEENS0_9allocatorIcEEEEifiS6_, symObjAddr: 0xDB0, symBinAddr: 0x100016840, symSize: 0x74 }
  - { offsetInCU: 0xF58E, offset: 0x43A71, size: 0x8, addend: 0x0, symName: __ZN12VariableList5ClearEv, symObjAddr: 0xE24, symBinAddr: 0x1000168B4, symSize: 0x24 }
  - { offsetInCU: 0xF5B5, offset: 0x43A98, size: 0x8, addend: 0x0, symName: __ZNSt3__13mapINS_12basic_stringIcNS_11char_traitsIcEENS_9allocatorIcEEEE10MyVariableNS_4lessIS6_EENS4_INS_4pairIKS6_S7_EEEEE5clearB7v160006Ev, symObjAddr: 0xE48, symBinAddr: 0x1000168D8, symSize: 0x24 }
  - { offsetInCU: 0xF5D9, offset: 0x43ABC, size: 0x8, addend: 0x0, symName: __ZN12VariableListC2Ev, symObjAddr: 0xE6C, symBinAddr: 0x1000168FC, symSize: 0x2C }
  - { offsetInCU: 0xF603, offset: 0x43AE6, size: 0x8, addend: 0x0, symName: __ZNSt3__13mapINS_12basic_stringIcNS_11char_traitsIcEENS_9allocatorIcEEEE10MyVariableNS_4lessIS6_EENS4_INS_4pairIKS6_S7_EEEEEC1B7v160006Ev, symObjAddr: 0xE98, symBinAddr: 0x100016928, symSize: 0x2C }
  - { offsetInCU: 0xF62C, offset: 0x43B0F, size: 0x8, addend: 0x0, symName: __ZN12VariableListD2Ev, symObjAddr: 0xEC4, symBinAddr: 0x100016954, symSize: 0x34 }
  - { offsetInCU: 0xF656, offset: 0x43B39, size: 0x8, addend: 0x0, symName: __ZNSt3__13mapINS_12basic_stringIcNS_11char_traitsIcEENS_9allocatorIcEEEE10MyVariableNS_4lessIS6_EENS4_INS_4pairIKS6_S7_EEEEED1B7v160006Ev, symObjAddr: 0xEF8, symBinAddr: 0x100016988, symSize: 0x2C }
  - { offsetInCU: 0xF67F, offset: 0x43B62, size: 0x8, addend: 0x0, symName: __ZN12VariableList5StoreENSt3__112basic_stringIcNS0_11char_traitsIcEENS0_9allocatorIcEEEEifiS6_, symObjAddr: 0xF24, symBinAddr: 0x1000169B4, symSize: 0x278 }
  - { offsetInCU: 0xF718, offset: 0x43BFB, size: 0x8, addend: 0x0, symName: __ZNSt3__13mapINS_12basic_stringIcNS_11char_traitsIcEENS_9allocatorIcEEEE10MyVariableNS_4lessIS6_EENS4_INS_4pairIKS6_S7_EEEEE4findB7v160006ERSB_, symObjAddr: 0x11CC, symBinAddr: 0x100016C5C, symSize: 0x40 }
  - { offsetInCU: 0xF74B, offset: 0x43C2E, size: 0x8, addend: 0x0, symName: __ZNSt3__13mapINS_12basic_stringIcNS_11char_traitsIcEENS_9allocatorIcEEEE10MyVariableNS_4lessIS6_EENS4_INS_4pairIKS6_S7_EEEEE3endB7v160006Ev, symObjAddr: 0x120C, symBinAddr: 0x100016C9C, symSize: 0x38 }
  - { offsetInCU: 0xF76E, offset: 0x43C51, size: 0x8, addend: 0x0, symName: __ZNSt3__13mapINS_12basic_stringIcNS_11char_traitsIcEENS_9allocatorIcEEEE10MyVariableNS_4lessIS6_EENS4_INS_4pairIKS6_S7_EEEEEixERSB_, symObjAddr: 0x1244, symBinAddr: 0x100016CD4, symSize: 0x80 }
  - { offsetInCU: 0xF7B3, offset: 0x43C96, size: 0x8, addend: 0x0, symName: __ZN10MyVariableaSERKS_, symObjAddr: 0x12C4, symBinAddr: 0x100016D54, symSize: 0x5C }
  - { offsetInCU: 0xF7E3, offset: 0x43CC6, size: 0x8, addend: 0x0, symName: __ZN10MyVariableD1Ev, symObjAddr: 0x1320, symBinAddr: 0x100016DB0, symSize: 0x2C }
  - { offsetInCU: 0xF80D, offset: 0x43CF0, size: 0x8, addend: 0x0, symName: __ZN12VariableList3GetENSt3__112basic_stringIcNS0_11char_traitsIcEENS0_9allocatorIcEEEERiRfS7_RS6_, symObjAddr: 0x134C, symBinAddr: 0x100016DDC, symSize: 0xF8 }
  - { offsetInCU: 0xF87B, offset: 0x43D5E, size: 0x8, addend: 0x0, symName: __ZN12VariableList13ListVariablesEv, symObjAddr: 0x1444, symBinAddr: 0x100016ED4, symSize: 0x268 }
  - { offsetInCU: 0xF8BF, offset: 0x43DA2, size: 0x8, addend: 0x0, symName: __ZNKSt3__13mapINS_12basic_stringIcNS_11char_traitsIcEENS_9allocatorIcEEEE10MyVariableNS_4lessIS6_EENS4_INS_4pairIKS6_S7_EEEEE5emptyB7v160006Ev, symObjAddr: 0x16AC, symBinAddr: 0x10001713C, symSize: 0x34 }
  - { offsetInCU: 0xF8E3, offset: 0x43DC6, size: 0x8, addend: 0x0, symName: __ZNSt3__114__map_iteratorINS_15__tree_iteratorINS_12__value_typeINS_12basic_stringIcNS_11char_traitsIcEENS_9allocatorIcEEEE10MyVariableEEPNS_11__tree_nodeISA_PvEElEEEC1B7v160006Ev, symObjAddr: 0x170C, symBinAddr: 0x100017170, symSize: 0x2C }
  - { offsetInCU: 0xF90C, offset: 0x43DEF, size: 0x8, addend: 0x0, symName: __ZNSt3__13mapINS_12basic_stringIcNS_11char_traitsIcEENS_9allocatorIcEEEE10MyVariableNS_4lessIS6_EENS4_INS_4pairIKS6_S7_EEEEE5beginB7v160006Ev, symObjAddr: 0x1738, symBinAddr: 0x10001719C, symSize: 0x38 }
  - { offsetInCU: 0xF930, offset: 0x43E13, size: 0x8, addend: 0x0, symName: __ZNKSt3__114__map_iteratorINS_15__tree_iteratorINS_12__value_typeINS_12basic_stringIcNS_11char_traitsIcEENS_9allocatorIcEEEE10MyVariableEEPNS_11__tree_nodeISA_PvEElEEEptB7v160006Ev, symObjAddr: 0x18BC, symBinAddr: 0x100017204, symSize: 0x2C }
  - { offsetInCU: 0xF954, offset: 0x43E37, size: 0x8, addend: 0x0, symName: __ZNSt3__112basic_stringIcNS_11char_traitsIcEENS_9allocatorIcEEEpLB7v160006EPKc, symObjAddr: 0x18E8, symBinAddr: 0x100017230, symSize: 0x2C }
  - { offsetInCU: 0xF987, offset: 0x43E6A, size: 0x8, addend: 0x0, symName: __ZNSt3__114__map_iteratorINS_15__tree_iteratorINS_12__value_typeINS_12basic_stringIcNS_11char_traitsIcEENS_9allocatorIcEEEE10MyVariableEEPNS_11__tree_nodeISA_PvEElEEEppB7v160006Ev, symObjAddr: 0x1914, symBinAddr: 0x10001725C, symSize: 0x2C }
  - { offsetInCU: 0xF9AA, offset: 0x43E8D, size: 0x8, addend: 0x0, symName: __ZNSt3__16vectorI7CommandNS_9allocatorIS1_EEEaSB7v160006ERKS4_, symObjAddr: 0x1940, symBinAddr: 0x100017288, symSize: 0x68 }
  - { offsetInCU: 0xF9E0, offset: 0x43EC3, size: 0x8, addend: 0x0, symName: __ZNSt3__16vectorI7CommandNS_9allocatorIS1_EEE19__copy_assign_allocB7v160006ERKS4_, symObjAddr: 0x19A8, symBinAddr: 0x1000172F0, symSize: 0x2C }
  - { offsetInCU: 0xFA12, offset: 0x43EF5, size: 0x8, addend: 0x0, symName: __ZNSt3__16vectorI7CommandNS_9allocatorIS1_EEE6assignIPS1_Li0EEEvT_S7_, symObjAddr: 0x19D4, symBinAddr: 0x10001731C, symSize: 0x17C }
  - { offsetInCU: 0xFAB1, offset: 0x43F94, size: 0x8, addend: 0x0, symName: __ZNSt3__16vectorI7CommandNS_9allocatorIS1_EEE19__copy_assign_allocB7v160006ERKS4_NS_17integral_constantIbLb0EEE, symObjAddr: 0x1B50, symBinAddr: 0x100017498, symSize: 0x14 }
  - { offsetInCU: 0xFAEC, offset: 0x43FCF, size: 0x8, addend: 0x0, symName: __ZNSt3__16vectorI7CommandNS_9allocatorIS1_EEE18__construct_at_endIPS1_Li0EEEvT_S7_m, symObjAddr: 0x1C88, symBinAddr: 0x100017568, symSize: 0x8C }
  - { offsetInCU: 0xFB5E, offset: 0x44041, size: 0x8, addend: 0x0, symName: __ZNSt3__16vectorI7CommandNS_9allocatorIS1_EEE17__destruct_at_endB7v160006EPS1_, symObjAddr: 0x1D14, symBinAddr: 0x1000175F4, symSize: 0x60 }
  - { offsetInCU: 0xFB9F, offset: 0x44082, size: 0x8, addend: 0x0, symName: __ZNSt3__16vectorI7CommandNS_9allocatorIS1_EEE13__vdeallocateEv, symObjAddr: 0x1D74, symBinAddr: 0x100017654, symSize: 0x8C }
  - { offsetInCU: 0xFBC6, offset: 0x440A9, size: 0x8, addend: 0x0, symName: __ZNSt3__16vectorI7CommandNS_9allocatorIS1_EEE11__vallocateB7v160006Em, symObjAddr: 0x1E00, symBinAddr: 0x1000176E0, symSize: 0xB4 }
  - { offsetInCU: 0xFC2B, offset: 0x4410E, size: 0x8, addend: 0x0, symName: __ZNKSt3__111__copy_loopINS_17_ClassicAlgPolicyEEclB7v160006IP7CommandS5_S5_EENS_4pairIT_T1_EES7_T0_S8_, symObjAddr: 0x21E0, symBinAddr: 0x100017988, symSize: 0x88 }
  - { offsetInCU: 0xFC94, offset: 0x44177, size: 0x8, addend: 0x0, symName: __ZN7CommandaSERKS_, symObjAddr: 0x232C, symBinAddr: 0x100017AD4, symSize: 0x50 }
  - { offsetInCU: 0xFD00, offset: 0x441E3, size: 0x8, addend: 0x0, symName: __ZNSt3__118__unwrap_iter_implIP7CommandLb1EE8__unwrapB7v160006ES2_, symObjAddr: 0x4458, symBinAddr: 0x100017B24, symSize: 0x24 }
  - { offsetInCU: 0xFD28, offset: 0x4420B, size: 0x8, addend: 0x0, symName: __ZNSt3__14pairIP7CommandS2_EC1B7v160006IS2_S2_LPv0EEEOT_OT0_, symObjAddr: 0x4490, symBinAddr: 0x100017B48, symSize: 0x3C }
  - { offsetInCU: 0xFD85, offset: 0x44268, size: 0x8, addend: 0x0, symName: __ZNSt3__14pairIP7CommandS2_EC2B7v160006IS2_S2_LPv0EEEOT_OT0_, symObjAddr: 0x44CC, symBinAddr: 0x100017B84, symSize: 0x34 }
  - { offsetInCU: 0xFDE2, offset: 0x442C5, size: 0x8, addend: 0x0, symName: __ZNSt3__118__unwrap_iter_implIP7CommandLb1EE8__rewrapB7v160006ES2_S2_, symObjAddr: 0x4500, symBinAddr: 0x100017BB8, symSize: 0x58 }
  - { offsetInCU: 0xFE2C, offset: 0x4430F, size: 0x8, addend: 0x0, symName: __ZNSt3__129_AllocatorDestroyRangeReverseINS_9allocatorI7CommandEEPS2_EC1B7v160006ERS3_RS4_S7_, symObjAddr: 0x4774, symBinAddr: 0x100017D50, symSize: 0x44 }
  - { offsetInCU: 0xFE82, offset: 0x44365, size: 0x8, addend: 0x0, symName: __ZNSt3__116allocator_traitsINS_9allocatorI7CommandEEE9constructB7v160006IS2_JRS2_EvEEvRS3_PT_DpOT0_, symObjAddr: 0x47B8, symBinAddr: 0x100017D94, symSize: 0x34 }
  - { offsetInCU: 0xFED9, offset: 0x443BC, size: 0x8, addend: 0x0, symName: __ZNSt3__128__exception_guard_exceptionsINS_29_AllocatorDestroyRangeReverseINS_9allocatorI7CommandEEPS3_EEE10__completeB7v160006Ev, symObjAddr: 0x47EC, symBinAddr: 0x100017DC8, symSize: 0x1C }
  - { offsetInCU: 0xFEFD, offset: 0x443E0, size: 0x8, addend: 0x0, symName: __ZNSt3__128__exception_guard_exceptionsINS_29_AllocatorDestroyRangeReverseINS_9allocatorI7CommandEEPS3_EEED1B7v160006Ev, symObjAddr: 0x4808, symBinAddr: 0x100017DE4, symSize: 0x2C }
  - { offsetInCU: 0xFF26, offset: 0x44409, size: 0x8, addend: 0x0, symName: __ZNSt3__128__exception_guard_exceptionsINS_29_AllocatorDestroyRangeReverseINS_9allocatorI7CommandEEPS3_EEEC1B7v160006ES6_, symObjAddr: 0x4834, symBinAddr: 0x100017E10, symSize: 0x34 }
  - { offsetInCU: 0xFF5E, offset: 0x44441, size: 0x8, addend: 0x0, symName: __ZNSt3__128__exception_guard_exceptionsINS_29_AllocatorDestroyRangeReverseINS_9allocatorI7CommandEEPS3_EEEC2B7v160006ES6_, symObjAddr: 0x4868, symBinAddr: 0x100017E44, symSize: 0x30 }
  - { offsetInCU: 0xFF96, offset: 0x44479, size: 0x8, addend: 0x0, symName: __ZNSt3__129_AllocatorDestroyRangeReverseINS_9allocatorI7CommandEEPS2_EC2B7v160006ERS3_RS4_S7_, symObjAddr: 0x4898, symBinAddr: 0x100017E74, symSize: 0x38 }
  - { offsetInCU: 0xFFEC, offset: 0x444CF, size: 0x8, addend: 0x0, symName: __ZNSt3__19allocatorI7CommandE9constructB7v160006IS1_JRS1_EEEvPT_DpOT0_, symObjAddr: 0x48D0, symBinAddr: 0x100017EAC, symSize: 0x30 }
  - { offsetInCU: 0x10040, offset: 0x44523, size: 0x8, addend: 0x0, symName: __ZNSt3__128__exception_guard_exceptionsINS_29_AllocatorDestroyRangeReverseINS_9allocatorI7CommandEEPS3_EEED2B7v160006Ev, symObjAddr: 0x4984, symBinAddr: 0x100017EDC, symSize: 0x50 }
  - { offsetInCU: 0x10069, offset: 0x4454C, size: 0x8, addend: 0x0, symName: __ZNKSt3__129_AllocatorDestroyRangeReverseINS_9allocatorI7CommandEEPS2_EclB7v160006Ev, symObjAddr: 0x49D4, symBinAddr: 0x100017F2C, symSize: 0x68 }
  - { offsetInCU: 0x1008D, offset: 0x44570, size: 0x8, addend: 0x0, symName: __ZNSt3__16vectorI7CommandNS_9allocatorIS1_EEE27__invalidate_iterators_pastB7v160006EPS1_, symObjAddr: 0x4CDC, symBinAddr: 0x100018004, symSize: 0x14 }
  - { offsetInCU: 0x100CC, offset: 0x445AF, size: 0x8, addend: 0x0, symName: __ZN10MyVariableD2Ev, symObjAddr: 0x5264, symBinAddr: 0x100018018, symSize: 0x38 }
  - { offsetInCU: 0x100F6, offset: 0x445D9, size: 0x8, addend: 0x0, symName: __ZNSt3__16vectorI11InstructionNS_9allocatorIS1_EEEC2B7v160006Ev, symObjAddr: 0x529C, symBinAddr: 0x100018050, symSize: 0x58 }
  - { offsetInCU: 0x10124, offset: 0x44607, size: 0x8, addend: 0x0, symName: __ZNSt3__117__compressed_pairIP11InstructionNS_9allocatorIS1_EEEC1B7v160006IDnNS_18__default_init_tagEEEOT_OT0_, symObjAddr: 0x52F4, symBinAddr: 0x1000180A8, symSize: 0x3C }
  - { offsetInCU: 0x1017B, offset: 0x4465E, size: 0x8, addend: 0x0, symName: __ZNSt3__117__compressed_pairIP11InstructionNS_9allocatorIS1_EEEC2B7v160006IDnNS_18__default_init_tagEEEOT_OT0_, symObjAddr: 0x5340, symBinAddr: 0x1000180F4, symSize: 0x40 }
  - { offsetInCU: 0x101D2, offset: 0x446B5, size: 0x8, addend: 0x0, symName: __ZNSt3__122__compressed_pair_elemIP11InstructionLi0ELb0EEC2B7v160006IDnvEEOT_, symObjAddr: 0x5380, symBinAddr: 0x100018134, symSize: 0x1C }
  - { offsetInCU: 0x10213, offset: 0x446F6, size: 0x8, addend: 0x0, symName: __ZNSt3__122__compressed_pair_elemINS_9allocatorI11InstructionEELi1ELb1EEC2B7v160006ENS_18__default_init_tagE, symObjAddr: 0x539C, symBinAddr: 0x100018150, symSize: 0x2C }
  - { offsetInCU: 0x10246, offset: 0x44729, size: 0x8, addend: 0x0, symName: __ZNSt3__19allocatorI11InstructionEC2B7v160006Ev, symObjAddr: 0x53C8, symBinAddr: 0x10001817C, symSize: 0x2C }
  - { offsetInCU: 0x1026F, offset: 0x44752, size: 0x8, addend: 0x0, symName: __ZNSt3__116__non_trivial_ifILb1ENS_9allocatorI11InstructionEEEC2B7v160006Ev, symObjAddr: 0x53F4, symBinAddr: 0x1000181A8, symSize: 0x14 }
  - { offsetInCU: 0x10298, offset: 0x4477B, size: 0x8, addend: 0x0, symName: __ZNSt3__16vectorI11InstructionNS_9allocatorIS1_EEED2B7v160006Ev, symObjAddr: 0x5408, symBinAddr: 0x1000181BC, symSize: 0x44 }
  - { offsetInCU: 0x102C1, offset: 0x447A4, size: 0x8, addend: 0x0, symName: __ZNSt3__16vectorI11InstructionNS_9allocatorIS1_EEE16__destroy_vectorC1ERS4_, symObjAddr: 0x544C, symBinAddr: 0x100018200, symSize: 0x34 }
  - { offsetInCU: 0x102F9, offset: 0x447DC, size: 0x8, addend: 0x0, symName: __ZNSt3__16vectorI11InstructionNS_9allocatorIS1_EEE16__destroy_vectorclB7v160006Ev, symObjAddr: 0x5480, symBinAddr: 0x100018234, symSize: 0x9C }
  - { offsetInCU: 0x1031D, offset: 0x44800, size: 0x8, addend: 0x0, symName: __ZNSt3__16vectorI11InstructionNS_9allocatorIS1_EEE16__destroy_vectorC2ERS4_, symObjAddr: 0x551C, symBinAddr: 0x1000182D0, symSize: 0x20 }
  - { offsetInCU: 0x10355, offset: 0x44838, size: 0x8, addend: 0x0, symName: __ZNKSt3__16vectorI11InstructionNS_9allocatorIS1_EEE17__annotate_deleteB7v160006Ev, symObjAddr: 0x553C, symBinAddr: 0x1000182F0, symSize: 0xB8 }
  - { offsetInCU: 0x10379, offset: 0x4485C, size: 0x8, addend: 0x0, symName: __ZNSt3__16vectorI11InstructionNS_9allocatorIS1_EEE7__clearB7v160006Ev, symObjAddr: 0x5604, symBinAddr: 0x1000183B8, symSize: 0x28 }
  - { offsetInCU: 0x1039D, offset: 0x44880, size: 0x8, addend: 0x0, symName: __ZNSt3__116allocator_traitsINS_9allocatorI11InstructionEEE10deallocateB7v160006ERS3_PS2_m, symObjAddr: 0x562C, symBinAddr: 0x1000183E0, symSize: 0x34 }
  - { offsetInCU: 0x103DF, offset: 0x448C2, size: 0x8, addend: 0x0, symName: __ZNSt3__16vectorI11InstructionNS_9allocatorIS1_EEE7__allocB7v160006Ev, symObjAddr: 0x5660, symBinAddr: 0x100018414, symSize: 0x28 }
  - { offsetInCU: 0x10403, offset: 0x448E6, size: 0x8, addend: 0x0, symName: __ZNKSt3__16vectorI11InstructionNS_9allocatorIS1_EEE8capacityB7v160006Ev, symObjAddr: 0x5688, symBinAddr: 0x10001843C, symSize: 0x40 }
  - { offsetInCU: 0x10427, offset: 0x4490A, size: 0x8, addend: 0x0, symName: __ZNKSt3__16vectorI11InstructionNS_9allocatorIS1_EEE31__annotate_contiguous_containerB7v160006EPKvS6_S6_S6_, symObjAddr: 0x56C8, symBinAddr: 0x10001847C, symSize: 0x20 }
  - { offsetInCU: 0x1047B, offset: 0x4495E, size: 0x8, addend: 0x0, symName: __ZNKSt3__16vectorI11InstructionNS_9allocatorIS1_EEE4dataB7v160006Ev, symObjAddr: 0x56E8, symBinAddr: 0x10001849C, symSize: 0x28 }
  - { offsetInCU: 0x1049F, offset: 0x44982, size: 0x8, addend: 0x0, symName: __ZNSt3__16vectorI11InstructionNS_9allocatorIS1_EEE22__base_destruct_at_endB7v160006EPS1_, symObjAddr: 0x5724, symBinAddr: 0x1000184D8, symSize: 0x8C }
  - { offsetInCU: 0x104E1, offset: 0x449C4, size: 0x8, addend: 0x0, symName: __ZNSt3__116allocator_traitsINS_9allocatorI11InstructionEEE7destroyB7v160006IS2_vEEvRS3_PT_, symObjAddr: 0x57B0, symBinAddr: 0x100018564, symSize: 0x2C }
  - { offsetInCU: 0x1051E, offset: 0x44A01, size: 0x8, addend: 0x0, symName: __ZNSt3__19allocatorI11InstructionE7destroyB7v160006EPS1_, symObjAddr: 0x57DC, symBinAddr: 0x100018590, symSize: 0x28 }
  - { offsetInCU: 0x10550, offset: 0x44A33, size: 0x8, addend: 0x0, symName: __ZNSt3__19allocatorI11InstructionE10deallocateB7v160006EPS1_m, symObjAddr: 0x5804, symBinAddr: 0x1000185B8, symSize: 0x40 }
  - { offsetInCU: 0x10590, offset: 0x44A73, size: 0x8, addend: 0x0, symName: __ZNSt3__117__compressed_pairIP11InstructionNS_9allocatorIS1_EEE6secondB7v160006Ev, symObjAddr: 0x5844, symBinAddr: 0x1000185F8, symSize: 0x24 }
  - { offsetInCU: 0x105B4, offset: 0x44A97, size: 0x8, addend: 0x0, symName: __ZNSt3__122__compressed_pair_elemINS_9allocatorI11InstructionEELi1ELb1EE5__getB7v160006Ev, symObjAddr: 0x5868, symBinAddr: 0x10001861C, symSize: 0x14 }
  - { offsetInCU: 0x105D8, offset: 0x44ABB, size: 0x8, addend: 0x0, symName: __ZNKSt3__16vectorI11InstructionNS_9allocatorIS1_EEE9__end_capB7v160006Ev, symObjAddr: 0x587C, symBinAddr: 0x100018630, symSize: 0x28 }
  - { offsetInCU: 0x105FC, offset: 0x44ADF, size: 0x8, addend: 0x0, symName: __ZNKSt3__117__compressed_pairIP11InstructionNS_9allocatorIS1_EEE5firstB7v160006Ev, symObjAddr: 0x58A4, symBinAddr: 0x100018658, symSize: 0x24 }
  - { offsetInCU: 0x10620, offset: 0x44B03, size: 0x8, addend: 0x0, symName: __ZNKSt3__122__compressed_pair_elemIP11InstructionLi0ELb0EE5__getB7v160006Ev, symObjAddr: 0x58C8, symBinAddr: 0x10001867C, symSize: 0x14 }
  - { offsetInCU: 0x10644, offset: 0x44B27, size: 0x8, addend: 0x0, symName: __ZNSt3__16vectorI11InstructionNS_9allocatorIS1_EEE9__end_capB7v160006Ev, symObjAddr: 0x58DC, symBinAddr: 0x100018690, symSize: 0x28 }
  - { offsetInCU: 0x10668, offset: 0x44B4B, size: 0x8, addend: 0x0, symName: __ZNSt3__16vectorI11InstructionNS_9allocatorIS1_EEE22__construct_one_at_endB7v160006IJRKS1_EEEvDpOT_, symObjAddr: 0x5904, symBinAddr: 0x1000186B8, symSize: 0x90 }
  - { offsetInCU: 0x106B4, offset: 0x44B97, size: 0x8, addend: 0x0, symName: __ZNSt3__16vectorI11InstructionNS_9allocatorIS1_EEE21__push_back_slow_pathIRKS1_EEvOT_, symObjAddr: 0x5994, symBinAddr: 0x100018748, symSize: 0xD8 }
  - { offsetInCU: 0x10711, offset: 0x44BF4, size: 0x8, addend: 0x0, symName: __ZNSt3__117__compressed_pairIP11InstructionNS_9allocatorIS1_EEE5firstB7v160006Ev, symObjAddr: 0x5A6C, symBinAddr: 0x100018820, symSize: 0x24 }
  - { offsetInCU: 0x10735, offset: 0x44C18, size: 0x8, addend: 0x0, symName: __ZNSt3__122__compressed_pair_elemIP11InstructionLi0ELb0EE5__getB7v160006Ev, symObjAddr: 0x5A90, symBinAddr: 0x100018844, symSize: 0x14 }
  - { offsetInCU: 0x10772, offset: 0x44C55, size: 0x8, addend: 0x0, symName: __ZNSt3__16vectorI11InstructionNS_9allocatorIS1_EEE21_ConstructTransactionC1B7v160006ERS4_m, symObjAddr: 0x5AA4, symBinAddr: 0x100018858, symSize: 0x3C }
  - { offsetInCU: 0x107B9, offset: 0x44C9C, size: 0x8, addend: 0x0, symName: __ZNSt3__116allocator_traitsINS_9allocatorI11InstructionEEE9constructB7v160006IS2_JRKS2_EvEEvRS3_PT_DpOT0_, symObjAddr: 0x5AE0, symBinAddr: 0x100018894, symSize: 0x34 }
  - { offsetInCU: 0x10810, offset: 0x44CF3, size: 0x8, addend: 0x0, symName: __ZNSt3__16vectorI11InstructionNS_9allocatorIS1_EEE21_ConstructTransactionD1B7v160006Ev, symObjAddr: 0x5B14, symBinAddr: 0x1000188C8, symSize: 0x2C }
  - { offsetInCU: 0x10839, offset: 0x44D1C, size: 0x8, addend: 0x0, symName: __ZNSt3__16vectorI11InstructionNS_9allocatorIS1_EEE21_ConstructTransactionC2B7v160006ERS4_m, symObjAddr: 0x5B40, symBinAddr: 0x1000188F4, symSize: 0x44 }
  - { offsetInCU: 0x10880, offset: 0x44D63, size: 0x8, addend: 0x0, symName: __ZNSt3__19allocatorI11InstructionE9constructB7v160006IS1_JRKS1_EEEvPT_DpOT0_, symObjAddr: 0x5B84, symBinAddr: 0x100018938, symSize: 0x30 }
  - { offsetInCU: 0x108D4, offset: 0x44DB7, size: 0x8, addend: 0x0, symName: __ZN11InstructionC1ERKS_, symObjAddr: 0x5BB4, symBinAddr: 0x100018968, symSize: 0x34 }
  - { offsetInCU: 0x10907, offset: 0x44DEA, size: 0x8, addend: 0x0, symName: __ZN11InstructionC2ERKS_, symObjAddr: 0x5BE8, symBinAddr: 0x10001899C, symSize: 0x48 }
  - { offsetInCU: 0x1093A, offset: 0x44E1D, size: 0x8, addend: 0x0, symName: __ZNSt3__16vectorI7CommandNS_9allocatorIS1_EEEC1ERKS4_, symObjAddr: 0x5C30, symBinAddr: 0x1000189E4, symSize: 0x34 }
  - { offsetInCU: 0x10973, offset: 0x44E56, size: 0x8, addend: 0x0, symName: __ZNSt3__16vectorI7CommandNS_9allocatorIS1_EEEC2ERKS4_, symObjAddr: 0x5C64, symBinAddr: 0x100018A18, symSize: 0x114 }
  - { offsetInCU: 0x109D0, offset: 0x44EB3, size: 0x8, addend: 0x0, symName: __ZNSt3__116allocator_traitsINS_9allocatorI7CommandEEE37select_on_container_copy_constructionB7v160006IS3_vvEES3_RKS3_, symObjAddr: 0x5D78, symBinAddr: 0x100018B2C, symSize: 0x10 }
  - { offsetInCU: 0x10A04, offset: 0x44EE7, size: 0x8, addend: 0x0, symName: __ZNSt3__117__compressed_pairIP7CommandNS_9allocatorIS1_EEEC1B7v160006IDnS4_EEOT_OT0_, symObjAddr: 0x5D88, symBinAddr: 0x100018B3C, symSize: 0x3C }
  - { offsetInCU: 0x10A5B, offset: 0x44F3E, size: 0x8, addend: 0x0, symName: __ZNSt3__128__exception_guard_exceptionsINS_6vectorI7CommandNS_9allocatorIS2_EEE16__destroy_vectorEE10__completeB7v160006Ev, symObjAddr: 0x5E48, symBinAddr: 0x100018BC8, symSize: 0x1C }
  - { offsetInCU: 0x10A7F, offset: 0x44F62, size: 0x8, addend: 0x0, symName: __ZNSt3__128__exception_guard_exceptionsINS_6vectorI7CommandNS_9allocatorIS2_EEE16__destroy_vectorEED1B7v160006Ev, symObjAddr: 0x5E64, symBinAddr: 0x100018BE4, symSize: 0x2C }
  - { offsetInCU: 0x10AA8, offset: 0x44F8B, size: 0x8, addend: 0x0, symName: __ZNSt3__117__compressed_pairIP7CommandNS_9allocatorIS1_EEEC2B7v160006IDnS4_EEOT_OT0_, symObjAddr: 0x5E90, symBinAddr: 0x100018C10, symSize: 0x44 }
  - { offsetInCU: 0x10AFF, offset: 0x44FE2, size: 0x8, addend: 0x0, symName: __ZNSt3__122__compressed_pair_elemINS_9allocatorI7CommandEELi1ELb1EEC2B7v160006IS3_vEEOT_, symObjAddr: 0x5EF0, symBinAddr: 0x100018C54, symSize: 0x18 }
  - { offsetInCU: 0x10B40, offset: 0x45023, size: 0x8, addend: 0x0, symName: __ZNSt3__128__exception_guard_exceptionsINS_6vectorI7CommandNS_9allocatorIS2_EEE16__destroy_vectorEEC1B7v160006ES6_, symObjAddr: 0x5F08, symBinAddr: 0x100018C6C, symSize: 0x34 }
  - { offsetInCU: 0x10B77, offset: 0x4505A, size: 0x8, addend: 0x0, symName: __ZNSt3__128__exception_guard_exceptionsINS_6vectorI7CommandNS_9allocatorIS2_EEE16__destroy_vectorEEC2B7v160006ES6_, symObjAddr: 0x5F3C, symBinAddr: 0x100018CA0, symSize: 0x24 }
  - { offsetInCU: 0x10BAE, offset: 0x45091, size: 0x8, addend: 0x0, symName: __ZNSt3__128__exception_guard_exceptionsINS_6vectorI7CommandNS_9allocatorIS2_EEE16__destroy_vectorEED2B7v160006Ev, symObjAddr: 0x5F80, symBinAddr: 0x100018CC4, symSize: 0x50 }
  - { offsetInCU: 0x10BD7, offset: 0x450BA, size: 0x8, addend: 0x0, symName: __ZNSt3__16vectorI11InstructionNS_9allocatorIS1_EEE21_ConstructTransactionD2B7v160006Ev, symObjAddr: 0x6150, symBinAddr: 0x100018D14, symSize: 0x20 }
  - { offsetInCU: 0x10BFF, offset: 0x450E2, size: 0x8, addend: 0x0, symName: __ZNKSt3__16vectorI11InstructionNS_9allocatorIS1_EEE11__recommendB7v160006Em, symObjAddr: 0x6170, symBinAddr: 0x100018D34, symSize: 0xB4 }
  - { offsetInCU: 0x10C53, offset: 0x45136, size: 0x8, addend: 0x0, symName: __ZNSt3__114__split_bufferI11InstructionRNS_9allocatorIS1_EEEC1EmmS4_, symObjAddr: 0x6224, symBinAddr: 0x100018DE8, symSize: 0x44 }
  - { offsetInCU: 0x10CA7, offset: 0x4518A, size: 0x8, addend: 0x0, symName: __ZNSt3__114__split_bufferI11InstructionRNS_9allocatorIS1_EEED1Ev, symObjAddr: 0x6380, symBinAddr: 0x100018F44, symSize: 0x2C }
  - { offsetInCU: 0x10CD0, offset: 0x451B3, size: 0x8, addend: 0x0, symName: __ZNKSt3__16vectorI11InstructionNS_9allocatorIS1_EEE8max_sizeEv, symObjAddr: 0x63AC, symBinAddr: 0x100018F70, symSize: 0x60 }
  - { offsetInCU: 0x10CF7, offset: 0x451DA, size: 0x8, addend: 0x0, symName: __ZNKSt3__16vectorI11InstructionNS_9allocatorIS1_EEE20__throw_length_errorB7v160006Ev, symObjAddr: 0x640C, symBinAddr: 0x100018FD0, symSize: 0x1C }
  - { offsetInCU: 0x10D25, offset: 0x45208, size: 0x8, addend: 0x0, symName: __ZNSt3__116allocator_traitsINS_9allocatorI11InstructionEEE8max_sizeB7v160006IS3_vEEmRKS3_, symObjAddr: 0x6428, symBinAddr: 0x100018FEC, symSize: 0x24 }
  - { offsetInCU: 0x10D53, offset: 0x45236, size: 0x8, addend: 0x0, symName: __ZNKSt3__16vectorI11InstructionNS_9allocatorIS1_EEE7__allocB7v160006Ev, symObjAddr: 0x644C, symBinAddr: 0x100019010, symSize: 0x28 }
  - { offsetInCU: 0x10D77, offset: 0x4525A, size: 0x8, addend: 0x0, symName: __ZNKSt3__19allocatorI11InstructionE8max_sizeB7v160006Ev, symObjAddr: 0x6474, symBinAddr: 0x100019038, symSize: 0x14 }
  - { offsetInCU: 0x10D9B, offset: 0x4527E, size: 0x8, addend: 0x0, symName: __ZNKSt3__117__compressed_pairIP11InstructionNS_9allocatorIS1_EEE6secondB7v160006Ev, symObjAddr: 0x6488, symBinAddr: 0x10001904C, symSize: 0x24 }
  - { offsetInCU: 0x10DBF, offset: 0x452A2, size: 0x8, addend: 0x0, symName: __ZNKSt3__122__compressed_pair_elemINS_9allocatorI11InstructionEELi1ELb1EE5__getB7v160006Ev, symObjAddr: 0x64AC, symBinAddr: 0x100019070, symSize: 0x14 }
  - { offsetInCU: 0x10DE3, offset: 0x452C6, size: 0x8, addend: 0x0, symName: __ZNSt3__114__split_bufferI11InstructionRNS_9allocatorIS1_EEEC2EmmS4_, symObjAddr: 0x64C0, symBinAddr: 0x100019084, symSize: 0xD4 }
  - { offsetInCU: 0x10E55, offset: 0x45338, size: 0x8, addend: 0x0, symName: __ZNSt3__117__compressed_pairIP11InstructionRNS_9allocatorIS1_EEEC1B7v160006IDnS5_EEOT_OT0_, symObjAddr: 0x6594, symBinAddr: 0x100019158, symSize: 0x3C }
  - { offsetInCU: 0x10EAC, offset: 0x4538F, size: 0x8, addend: 0x0, symName: __ZNSt3__114__split_bufferI11InstructionRNS_9allocatorIS1_EEE7__allocB7v160006Ev, symObjAddr: 0x6610, symBinAddr: 0x1000191D4, symSize: 0x28 }
  - { offsetInCU: 0x10ED0, offset: 0x453B3, size: 0x8, addend: 0x0, symName: __ZNSt3__114__split_bufferI11InstructionRNS_9allocatorIS1_EEE9__end_capB7v160006Ev, symObjAddr: 0x6638, symBinAddr: 0x1000191FC, symSize: 0x28 }
  - { offsetInCU: 0x10EF4, offset: 0x453D7, size: 0x8, addend: 0x0, symName: __ZNSt3__117__compressed_pairIP11InstructionRNS_9allocatorIS1_EEEC2B7v160006IDnS5_EEOT_OT0_, symObjAddr: 0x6660, symBinAddr: 0x100019224, symSize: 0x48 }
  - { offsetInCU: 0x10F4B, offset: 0x4542E, size: 0x8, addend: 0x0, symName: __ZNSt3__122__compressed_pair_elemIRNS_9allocatorI11InstructionEELi1ELb0EEC2B7v160006IS4_vEEOT_, symObjAddr: 0x66A8, symBinAddr: 0x10001926C, symSize: 0x20 }
  - { offsetInCU: 0x10F8C, offset: 0x4546F, size: 0x8, addend: 0x0, symName: __ZNSt3__19allocatorI11InstructionE8allocateB7v160006Em, symObjAddr: 0x66C8, symBinAddr: 0x10001928C, symSize: 0x58 }
  - { offsetInCU: 0x10FBE, offset: 0x454A1, size: 0x8, addend: 0x0, symName: __ZNSt3__117__compressed_pairIP11InstructionRNS_9allocatorIS1_EEE6secondB7v160006Ev, symObjAddr: 0x6720, symBinAddr: 0x1000192E4, symSize: 0x28 }
  - { offsetInCU: 0x10FE2, offset: 0x454C5, size: 0x8, addend: 0x0, symName: __ZNSt3__122__compressed_pair_elemIRNS_9allocatorI11InstructionEELi1ELb0EE5__getB7v160006Ev, symObjAddr: 0x6748, symBinAddr: 0x10001930C, symSize: 0x18 }
  - { offsetInCU: 0x11006, offset: 0x454E9, size: 0x8, addend: 0x0, symName: __ZNSt3__117__compressed_pairIP11InstructionRNS_9allocatorIS1_EEE5firstB7v160006Ev, symObjAddr: 0x6760, symBinAddr: 0x100019324, symSize: 0x24 }
  - { offsetInCU: 0x1102A, offset: 0x4550D, size: 0x8, addend: 0x0, symName: __ZNSt3__116reverse_iteratorIP11InstructionEC1B7v160006ES2_, symObjAddr: 0x68B0, symBinAddr: 0x100019474, symSize: 0x34 }
  - { offsetInCU: 0x11061, offset: 0x45544, size: 0x8, addend: 0x0, symName: __ZNKSt3__116reverse_iteratorIP11InstructionE4baseB7v160006Ev, symObjAddr: 0x68E4, symBinAddr: 0x1000194A8, symSize: 0x18 }
  - { offsetInCU: 0x11085, offset: 0x45568, size: 0x8, addend: 0x0, symName: __ZNKSt3__16vectorI11InstructionNS_9allocatorIS1_EEE14__annotate_newB7v160006Em, symObjAddr: 0x6938, symBinAddr: 0x1000194FC, symSize: 0xAC }
  - { offsetInCU: 0x110B8, offset: 0x4559B, size: 0x8, addend: 0x0, symName: __ZNSt3__129_AllocatorDestroyRangeReverseINS_9allocatorI11InstructionEENS_16reverse_iteratorIPS2_EEEC1B7v160006ERS3_RS6_S9_, symObjAddr: 0x6A40, symBinAddr: 0x100019604, symSize: 0x44 }
  - { offsetInCU: 0x1110E, offset: 0x455F1, size: 0x8, addend: 0x0, symName: __ZNKSt3__116reverse_iteratorIP11InstructionEdeB7v160006Ev, symObjAddr: 0x6AF0, symBinAddr: 0x1000196B4, symSize: 0x28 }
  - { offsetInCU: 0x11140, offset: 0x45623, size: 0x8, addend: 0x0, symName: __ZNSt3__116reverse_iteratorIP11InstructionEppB7v160006Ev, symObjAddr: 0x6B18, symBinAddr: 0x1000196DC, symSize: 0x20 }
  - { offsetInCU: 0x11164, offset: 0x45647, size: 0x8, addend: 0x0, symName: __ZNSt3__128__exception_guard_exceptionsINS_29_AllocatorDestroyRangeReverseINS_9allocatorI11InstructionEENS_16reverse_iteratorIPS3_EEEEE10__completeB7v160006Ev, symObjAddr: 0x6B38, symBinAddr: 0x1000196FC, symSize: 0x1C }
  - { offsetInCU: 0x11188, offset: 0x4566B, size: 0x8, addend: 0x0, symName: __ZNSt3__128__exception_guard_exceptionsINS_29_AllocatorDestroyRangeReverseINS_9allocatorI11InstructionEENS_16reverse_iteratorIPS3_EEEEED1B7v160006Ev, symObjAddr: 0x6B54, symBinAddr: 0x100019718, symSize: 0x2C }
  - { offsetInCU: 0x111B1, offset: 0x45694, size: 0x8, addend: 0x0, symName: __ZNSt3__128__exception_guard_exceptionsINS_29_AllocatorDestroyRangeReverseINS_9allocatorI11InstructionEENS_16reverse_iteratorIPS3_EEEEEC1B7v160006ES8_, symObjAddr: 0x6B80, symBinAddr: 0x100019744, symSize: 0x34 }
  - { offsetInCU: 0x111E9, offset: 0x456CC, size: 0x8, addend: 0x0, symName: __ZNSt3__128__exception_guard_exceptionsINS_29_AllocatorDestroyRangeReverseINS_9allocatorI11InstructionEENS_16reverse_iteratorIPS3_EEEEEC2B7v160006ES8_, symObjAddr: 0x6BB4, symBinAddr: 0x100019778, symSize: 0x30 }
  - { offsetInCU: 0x11221, offset: 0x45704, size: 0x8, addend: 0x0, symName: __ZNSt3__129_AllocatorDestroyRangeReverseINS_9allocatorI11InstructionEENS_16reverse_iteratorIPS2_EEEC2B7v160006ERS3_RS6_S9_, symObjAddr: 0x6BE4, symBinAddr: 0x1000197A8, symSize: 0x38 }
  - { offsetInCU: 0x1127C, offset: 0x4575F, size: 0x8, addend: 0x0, symName: __ZNSt3__119__to_address_helperINS_16reverse_iteratorIP11InstructionEEvE6__callB7v160006ERKS4_, symObjAddr: 0x6C1C, symBinAddr: 0x1000197E0, symSize: 0x38 }
  - { offsetInCU: 0x1129F, offset: 0x45782, size: 0x8, addend: 0x0, symName: __ZNKSt3__116reverse_iteratorIP11InstructionEptB7v160006Ev, symObjAddr: 0x6C54, symBinAddr: 0x100019818, symSize: 0x24 }
  - { offsetInCU: 0x112C3, offset: 0x457A6, size: 0x8, addend: 0x0, symName: __ZNSt3__128__exception_guard_exceptionsINS_29_AllocatorDestroyRangeReverseINS_9allocatorI11InstructionEENS_16reverse_iteratorIPS3_EEEEED2B7v160006Ev, symObjAddr: 0x6C78, symBinAddr: 0x10001983C, symSize: 0x50 }
  - { offsetInCU: 0x112EC, offset: 0x457CF, size: 0x8, addend: 0x0, symName: __ZNKSt3__129_AllocatorDestroyRangeReverseINS_9allocatorI11InstructionEENS_16reverse_iteratorIPS2_EEEclB7v160006Ev, symObjAddr: 0x6CC8, symBinAddr: 0x10001988C, symSize: 0xB4 }
  - { offsetInCU: 0x11311, offset: 0x457F4, size: 0x8, addend: 0x0, symName: __ZNSt3__116reverse_iteratorINS0_IP11InstructionEEEC1B7v160006ES3_, symObjAddr: 0x6DEC, symBinAddr: 0x1000199B0, symSize: 0x3C }
  - { offsetInCU: 0x11348, offset: 0x4582B, size: 0x8, addend: 0x0, symName: __ZNSt3__116reverse_iteratorINS0_IP11InstructionEEEppB7v160006Ev, symObjAddr: 0x6EAC, symBinAddr: 0x100019A70, symSize: 0x30 }
  - { offsetInCU: 0x1136C, offset: 0x4584F, size: 0x8, addend: 0x0, symName: __ZNKSt3__116reverse_iteratorINS0_IP11InstructionEEE4baseB7v160006Ev, symObjAddr: 0x6EDC, symBinAddr: 0x100019AA0, symSize: 0x24 }
  - { offsetInCU: 0x11395, offset: 0x45878, size: 0x8, addend: 0x0, symName: __ZNSt3__119__to_address_helperINS_16reverse_iteratorINS1_IP11InstructionEEEEvE6__callB7v160006ERKS5_, symObjAddr: 0x6F00, symBinAddr: 0x100019AC4, symSize: 0x38 }
  - { offsetInCU: 0x113B8, offset: 0x4589B, size: 0x8, addend: 0x0, symName: __ZNKSt3__116reverse_iteratorINS0_IP11InstructionEEEptB7v160006Ev, symObjAddr: 0x6F38, symBinAddr: 0x100019AFC, symSize: 0x24 }
  - { offsetInCU: 0x113DC, offset: 0x458BF, size: 0x8, addend: 0x0, symName: __ZNKSt3__116reverse_iteratorINS0_IP11InstructionEEEdeB7v160006Ev, symObjAddr: 0x6F5C, symBinAddr: 0x100019B20, symSize: 0x34 }
  - { offsetInCU: 0x1140E, offset: 0x458F1, size: 0x8, addend: 0x0, symName: __ZNSt3__116reverse_iteratorIP11InstructionEmmB7v160006Ev, symObjAddr: 0x6F90, symBinAddr: 0x100019B54, symSize: 0x20 }
  - { offsetInCU: 0x11432, offset: 0x45915, size: 0x8, addend: 0x0, symName: __ZNSt3__116reverse_iteratorINS0_IP11InstructionEEEC2B7v160006ES3_, symObjAddr: 0x6FB0, symBinAddr: 0x100019B74, symSize: 0x2C }
  - { offsetInCU: 0x11469, offset: 0x4594C, size: 0x8, addend: 0x0, symName: __ZNSt3__116reverse_iteratorIP11InstructionEC2B7v160006ES2_, symObjAddr: 0x6FDC, symBinAddr: 0x100019BA0, symSize: 0x28 }
  - { offsetInCU: 0x114A0, offset: 0x45983, size: 0x8, addend: 0x0, symName: __ZNSt3__114__split_bufferI11InstructionRNS_9allocatorIS1_EEED2Ev, symObjAddr: 0x7004, symBinAddr: 0x100019BC8, symSize: 0x8C }
  - { offsetInCU: 0x114CA, offset: 0x459AD, size: 0x8, addend: 0x0, symName: __ZNSt3__114__split_bufferI11InstructionRNS_9allocatorIS1_EEE5clearB7v160006Ev, symObjAddr: 0x7090, symBinAddr: 0x100019C54, symSize: 0x28 }
  - { offsetInCU: 0x114EE, offset: 0x459D1, size: 0x8, addend: 0x0, symName: __ZNKSt3__114__split_bufferI11InstructionRNS_9allocatorIS1_EEE8capacityB7v160006Ev, symObjAddr: 0x70B8, symBinAddr: 0x100019C7C, symSize: 0x40 }
  - { offsetInCU: 0x11512, offset: 0x459F5, size: 0x8, addend: 0x0, symName: __ZNSt3__114__split_bufferI11InstructionRNS_9allocatorIS1_EEE17__destruct_at_endB7v160006EPS1_, symObjAddr: 0x70F8, symBinAddr: 0x100019CBC, symSize: 0x2C }
  - { offsetInCU: 0x11543, offset: 0x45A26, size: 0x8, addend: 0x0, symName: __ZNSt3__114__split_bufferI11InstructionRNS_9allocatorIS1_EEE17__destruct_at_endB7v160006EPS1_NS_17integral_constantIbLb0EEE, symObjAddr: 0x7124, symBinAddr: 0x100019CE8, symSize: 0x80 }
  - { offsetInCU: 0x11582, offset: 0x45A65, size: 0x8, addend: 0x0, symName: __ZNKSt3__114__split_bufferI11InstructionRNS_9allocatorIS1_EEE9__end_capB7v160006Ev, symObjAddr: 0x71A4, symBinAddr: 0x100019D68, symSize: 0x28 }
  - { offsetInCU: 0x115A6, offset: 0x45A89, size: 0x8, addend: 0x0, symName: __ZNKSt3__117__compressed_pairIP11InstructionRNS_9allocatorIS1_EEE5firstB7v160006Ev, symObjAddr: 0x71CC, symBinAddr: 0x100019D90, symSize: 0x24 }
  - { offsetInCU: 0x115CA, offset: 0x45AAD, size: 0x8, addend: 0x0, symName: __ZNSt3__16vectorI11InstructionNS_9allocatorIS1_EEE11__make_iterB7v160006EPS1_, symObjAddr: 0x71F0, symBinAddr: 0x100019DB4, symSize: 0x34 }
  - { offsetInCU: 0x115FD, offset: 0x45AE0, size: 0x8, addend: 0x0, symName: __ZNSt3__111__wrap_iterIP11InstructionEC1B7v160006EPKvS2_, symObjAddr: 0x7224, symBinAddr: 0x100019DE8, symSize: 0x3C }
  - { offsetInCU: 0x11642, offset: 0x45B25, size: 0x8, addend: 0x0, symName: __ZNSt3__111__wrap_iterIP11InstructionEC2B7v160006EPKvS2_, symObjAddr: 0x7260, symBinAddr: 0x100019E24, symSize: 0x24 }
  - { offsetInCU: 0x11687, offset: 0x45B6A, size: 0x8, addend: 0x0, symName: __ZNSt3__111__wrap_iterIP11InstructionEpLB7v160006El, symObjAddr: 0x7284, symBinAddr: 0x100019E48, symSize: 0x28 }
  - { offsetInCU: 0x116B8, offset: 0x45B9B, size: 0x8, addend: 0x0, symName: __ZNSt3__16vectorI11InstructionNS_9allocatorIS1_EEE12__move_rangeEPS1_S5_S5_, symObjAddr: 0x72F4, symBinAddr: 0x100019EB8, symSize: 0x12C }
  - { offsetInCU: 0x11775, offset: 0x45C58, size: 0x8, addend: 0x0, symName: __ZNSt3__114pointer_traitsIPK11InstructionE10pointer_toB7v160006ERS2_, symObjAddr: 0x7420, symBinAddr: 0x100019FE4, symSize: 0x14 }
  - { offsetInCU: 0x11797, offset: 0x45C7A, size: 0x8, addend: 0x0, symName: __ZNSt3__114__split_bufferI11InstructionRNS_9allocatorIS1_EEE9push_backB7v160006ERKS1_, symObjAddr: 0x7434, symBinAddr: 0x100019FF8, symSize: 0x260 }
  - { offsetInCU: 0x1180F, offset: 0x45CF2, size: 0x8, addend: 0x0, symName: __ZNKSt3__111__wrap_iterIPK11InstructionE4baseB7v160006Ev, symObjAddr: 0x77E8, symBinAddr: 0x10001A3AC, symSize: 0x18 }
  - { offsetInCU: 0x11833, offset: 0x45D16, size: 0x8, addend: 0x0, symName: __ZNKSt3__111__wrap_iterIP11InstructionE4baseB7v160006Ev, symObjAddr: 0x7800, symBinAddr: 0x10001A3C4, symSize: 0x18 }
  - { offsetInCU: 0x11857, offset: 0x45D3A, size: 0x8, addend: 0x0, symName: __ZNSt3__116allocator_traitsINS_9allocatorI11InstructionEEE9constructB7v160006IS2_JS2_EvEEvRS3_PT_DpOT0_, symObjAddr: 0x7818, symBinAddr: 0x10001A3DC, symSize: 0x34 }
  - { offsetInCU: 0x118AE, offset: 0x45D91, size: 0x8, addend: 0x0, symName: __ZNSt3__19allocatorI11InstructionE9constructB7v160006IS1_JS1_EEEvPT_DpOT0_, symObjAddr: 0x788C, symBinAddr: 0x10001A450, symSize: 0x30 }
  - { offsetInCU: 0x11925, offset: 0x45E08, size: 0x8, addend: 0x0, symName: __ZNKSt3__120__move_backward_loopINS_17_ClassicAlgPolicyEEclB7v160006IP11InstructionS5_S5_EENS_4pairIT_T1_EES7_T0_S8_, symObjAddr: 0x7A58, symBinAddr: 0x10001A61C, symSize: 0xA4 }
  - { offsetInCU: 0x119AA, offset: 0x45E8D, size: 0x8, addend: 0x0, symName: __ZNSt3__18_IterOpsINS_17_ClassicAlgPolicyEE4nextB7v160006IP11InstructionEET_S6_S6_, symObjAddr: 0x7BC0, symBinAddr: 0x10001A784, symSize: 0x18 }
  - { offsetInCU: 0x119E0, offset: 0x45EC3, size: 0x8, addend: 0x0, symName: __ZNSt3__18_IterOpsINS_17_ClassicAlgPolicyEE11__iter_moveB7v160006IRP11InstructionEENS_9enable_ifIXsr12is_referenceIDTdeclsr3stdE7declvalIRT_EEEEE5valueEDTclsr3stdE4movedeclsr3stdE7declvalIS9_EEEEE4typeEOS8_, symObjAddr: 0x7BD8, symBinAddr: 0x10001A79C, symSize: 0x28 }
  - { offsetInCU: 0x11A0C, offset: 0x45EEF, size: 0x8, addend: 0x0, symName: __ZNSt3__18_IterOpsINS_17_ClassicAlgPolicyEE25__validate_iter_referenceB7v160006IRP11InstructionEEvv, symObjAddr: 0x7C00, symBinAddr: 0x10001A7C4, symSize: 0x4 }
  - { offsetInCU: 0x11A2A, offset: 0x45F0D, size: 0x8, addend: 0x0, symName: __ZNSt3__118__unwrap_iter_implIP11InstructionLb1EE8__unwrapB7v160006ES2_, symObjAddr: 0x7C04, symBinAddr: 0x10001A7C8, symSize: 0x24 }
  - { offsetInCU: 0x11A52, offset: 0x45F35, size: 0x8, addend: 0x0, symName: __ZNSt3__14pairIP11InstructionS2_EC1B7v160006IS2_S2_LPv0EEEOT_OT0_, symObjAddr: 0x7C28, symBinAddr: 0x10001A7EC, symSize: 0x3C }
  - { offsetInCU: 0x11AAF, offset: 0x45F92, size: 0x8, addend: 0x0, symName: __ZNSt3__14pairIP11InstructionS2_EC2B7v160006IS2_S2_LPv0EEEOT_OT0_, symObjAddr: 0x7C64, symBinAddr: 0x10001A828, symSize: 0x34 }
  - { offsetInCU: 0x11B0C, offset: 0x45FEF, size: 0x8, addend: 0x0, symName: __ZNSt3__118__unwrap_iter_implIP11InstructionLb1EE8__rewrapB7v160006ES2_S2_, symObjAddr: 0x7C98, symBinAddr: 0x10001A85C, symSize: 0x50 }
  - { offsetInCU: 0x11B3C, offset: 0x4601F, size: 0x8, addend: 0x0, symName: __ZNSt3__114__split_bufferI11InstructionRNS_9allocatorIS1_EEE18__construct_at_endINS_13move_iteratorIPS1_EEEENS_9enable_ifIXsr27__is_cpp17_forward_iteratorIT_EE5valueEvE4typeESB_SB_, symObjAddr: 0x7D28, symBinAddr: 0x10001A8EC, symSize: 0xFC }
  - { offsetInCU: 0x11B97, offset: 0x4607A, size: 0x8, addend: 0x0, symName: __ZNSt3__113move_iteratorIP11InstructionEC1B7v160006ES2_, symObjAddr: 0x7E24, symBinAddr: 0x10001A9E8, symSize: 0x34 }
  - { offsetInCU: 0x11BD8, offset: 0x460BB, size: 0x8, addend: 0x0, symName: __ZNKSt3__111__move_loopINS_17_ClassicAlgPolicyEEclB7v160006IP11InstructionS5_S5_EENS_4pairIT_T1_EES7_T0_S8_, symObjAddr: 0x7F94, symBinAddr: 0x10001AB58, symSize: 0x90 }
  - { offsetInCU: 0x11C4B, offset: 0x4612E, size: 0x8, addend: 0x0, symName: __ZNSt3__114__split_bufferI11InstructionRNS_9allocatorIS1_EEE21_ConstructTransactionC1B7v160006EPPS1_m, symObjAddr: 0x8060, symBinAddr: 0x10001AC24, symSize: 0x3C }
  - { offsetInCU: 0x11C90, offset: 0x46173, size: 0x8, addend: 0x0, symName: __ZNKSt3__113move_iteratorIP11InstructionEdeB7v160006Ev, symObjAddr: 0x809C, symBinAddr: 0x10001AC60, symSize: 0x18 }
  - { offsetInCU: 0x11CB4, offset: 0x46197, size: 0x8, addend: 0x0, symName: __ZNSt3__113move_iteratorIP11InstructionEppB7v160006Ev, symObjAddr: 0x80B4, symBinAddr: 0x10001AC78, symSize: 0x20 }
  - { offsetInCU: 0x11CD8, offset: 0x461BB, size: 0x8, addend: 0x0, symName: __ZNSt3__114__split_bufferI11InstructionRNS_9allocatorIS1_EEE21_ConstructTransactionD1B7v160006Ev, symObjAddr: 0x80D4, symBinAddr: 0x10001AC98, symSize: 0x2C }
  - { offsetInCU: 0x11D01, offset: 0x461E4, size: 0x8, addend: 0x0, symName: __ZNKSt3__113move_iteratorIP11InstructionE4baseB7v160006Ev, symObjAddr: 0x8178, symBinAddr: 0x10001AD3C, symSize: 0x18 }
  - { offsetInCU: 0x11D25, offset: 0x46208, size: 0x8, addend: 0x0, symName: __ZNSt3__114__split_bufferI11InstructionRNS_9allocatorIS1_EEE21_ConstructTransactionC2B7v160006EPPS1_m, symObjAddr: 0x8190, symBinAddr: 0x10001AD54, symSize: 0x44 }
  - { offsetInCU: 0x11D6A, offset: 0x4624D, size: 0x8, addend: 0x0, symName: __ZNSt3__114__split_bufferI11InstructionRNS_9allocatorIS1_EEE21_ConstructTransactionD2B7v160006Ev, symObjAddr: 0x81D4, symBinAddr: 0x10001AD98, symSize: 0x20 }
  - { offsetInCU: 0x11D93, offset: 0x46276, size: 0x8, addend: 0x0, symName: __ZNSt3__113move_iteratorIP11InstructionEC2B7v160006ES2_, symObjAddr: 0x81F4, symBinAddr: 0x10001ADB8, symSize: 0x20 }
  - { offsetInCU: 0x11DCA, offset: 0x462AD, size: 0x8, addend: 0x0, symName: __ZNSt3__129_AllocatorDestroyRangeReverseINS_9allocatorI11InstructionEEPS2_EC1B7v160006ERS3_RS4_S7_, symObjAddr: 0x8354, symBinAddr: 0x10001AF18, symSize: 0x44 }
  - { offsetInCU: 0x11E20, offset: 0x46303, size: 0x8, addend: 0x0, symName: __ZNSt3__128__exception_guard_exceptionsINS_29_AllocatorDestroyRangeReverseINS_9allocatorI11InstructionEEPS3_EEE10__completeB7v160006Ev, symObjAddr: 0x8398, symBinAddr: 0x10001AF5C, symSize: 0x1C }
  - { offsetInCU: 0x11E44, offset: 0x46327, size: 0x8, addend: 0x0, symName: __ZNSt3__128__exception_guard_exceptionsINS_29_AllocatorDestroyRangeReverseINS_9allocatorI11InstructionEEPS3_EEED1B7v160006Ev, symObjAddr: 0x83B4, symBinAddr: 0x10001AF78, symSize: 0x2C }
  - { offsetInCU: 0x11E6D, offset: 0x46350, size: 0x8, addend: 0x0, symName: __ZNSt3__128__exception_guard_exceptionsINS_29_AllocatorDestroyRangeReverseINS_9allocatorI11InstructionEEPS3_EEEC1B7v160006ES6_, symObjAddr: 0x83E0, symBinAddr: 0x10001AFA4, symSize: 0x34 }
  - { offsetInCU: 0x11EA5, offset: 0x46388, size: 0x8, addend: 0x0, symName: __ZNSt3__128__exception_guard_exceptionsINS_29_AllocatorDestroyRangeReverseINS_9allocatorI11InstructionEEPS3_EEEC2B7v160006ES6_, symObjAddr: 0x8414, symBinAddr: 0x10001AFD8, symSize: 0x30 }
  - { offsetInCU: 0x11EDD, offset: 0x463C0, size: 0x8, addend: 0x0, symName: __ZNSt3__129_AllocatorDestroyRangeReverseINS_9allocatorI11InstructionEEPS2_EC2B7v160006ERS3_RS4_S7_, symObjAddr: 0x8444, symBinAddr: 0x10001B008, symSize: 0x38 }
  - { offsetInCU: 0x11F33, offset: 0x46416, size: 0x8, addend: 0x0, symName: __ZNSt3__128__exception_guard_exceptionsINS_29_AllocatorDestroyRangeReverseINS_9allocatorI11InstructionEEPS3_EEED2B7v160006Ev, symObjAddr: 0x847C, symBinAddr: 0x10001B040, symSize: 0x50 }
  - { offsetInCU: 0x11F5C, offset: 0x4643F, size: 0x8, addend: 0x0, symName: __ZNKSt3__129_AllocatorDestroyRangeReverseINS_9allocatorI11InstructionEEPS2_EclB7v160006Ev, symObjAddr: 0x84CC, symBinAddr: 0x10001B090, symSize: 0x68 }
  - { offsetInCU: 0x11F80, offset: 0x46463, size: 0x8, addend: 0x0, symName: __ZNSt3__111__wrap_iterIPK11InstructionEC2B7v160006IPS1_EERKNS0_IT_EEPNS_9enable_ifIXsr14is_convertibleIS7_S3_EE5valueEvE4typeE, symObjAddr: 0x85A4, symBinAddr: 0x10001B168, symSize: 0x40 }
  - { offsetInCU: 0x11FC9, offset: 0x464AC, size: 0x8, addend: 0x0, symName: __ZNSt3__16__treeINS_12__value_typeINS_12basic_stringIcNS_11char_traitsIcEENS_9allocatorIcEEEE10MyVariableEENS_19__map_value_compareIS7_S9_NS_4lessIS7_EELb1EEENS5_IS9_EEE5clearEv, symObjAddr: 0x8B94, symBinAddr: 0x10001B1A8, symSize: 0x74 }
  - { offsetInCU: 0x11FEF, offset: 0x464D2, size: 0x8, addend: 0x0, symName: __ZNSt3__16__treeINS_12__value_typeINS_12basic_stringIcNS_11char_traitsIcEENS_9allocatorIcEEEE10MyVariableEENS_19__map_value_compareIS7_S9_NS_4lessIS7_EELb1EEENS5_IS9_EEE7destroyEPNS_11__tree_nodeIS9_PvEE, symObjAddr: 0x8C08, symBinAddr: 0x10001B21C, symSize: 0xAC }
  - { offsetInCU: 0x1203A, offset: 0x4651D, size: 0x8, addend: 0x0, symName: __ZNKSt3__16__treeINS_12__value_typeINS_12basic_stringIcNS_11char_traitsIcEENS_9allocatorIcEEEE10MyVariableEENS_19__map_value_compareIS7_S9_NS_4lessIS7_EELb1EEENS5_IS9_EEE6__rootB7v160006Ev, symObjAddr: 0x8CB4, symBinAddr: 0x10001B2C8, symSize: 0x28 }
  - { offsetInCU: 0x1205E, offset: 0x46541, size: 0x8, addend: 0x0, symName: __ZNSt3__16__treeINS_12__value_typeINS_12basic_stringIcNS_11char_traitsIcEENS_9allocatorIcEEEE10MyVariableEENS_19__map_value_compareIS7_S9_NS_4lessIS7_EELb1EEENS5_IS9_EEE4sizeB7v160006Ev, symObjAddr: 0x8CDC, symBinAddr: 0x10001B2F0, symSize: 0x28 }
  - { offsetInCU: 0x12082, offset: 0x46565, size: 0x8, addend: 0x0, symName: __ZNSt3__16__treeINS_12__value_typeINS_12basic_stringIcNS_11char_traitsIcEENS_9allocatorIcEEEE10MyVariableEENS_19__map_value_compareIS7_S9_NS_4lessIS7_EELb1EEENS5_IS9_EEE10__end_nodeB7v160006Ev, symObjAddr: 0x8D04, symBinAddr: 0x10001B318, symSize: 0x2C }
  - { offsetInCU: 0x120A6, offset: 0x46589, size: 0x8, addend: 0x0, symName: __ZNSt3__16__treeINS_12__value_typeINS_12basic_stringIcNS_11char_traitsIcEENS_9allocatorIcEEEE10MyVariableEENS_19__map_value_compareIS7_S9_NS_4lessIS7_EELb1EEENS5_IS9_EEE12__begin_nodeB7v160006Ev, symObjAddr: 0x8D30, symBinAddr: 0x10001B344, symSize: 0x14 }
  - { offsetInCU: 0x120CA, offset: 0x465AD, size: 0x8, addend: 0x0, symName: __ZNSt3__16__treeINS_12__value_typeINS_12basic_stringIcNS_11char_traitsIcEENS_9allocatorIcEEEE10MyVariableEENS_19__map_value_compareIS7_S9_NS_4lessIS7_EELb1EEENS5_IS9_EEE12__node_allocB7v160006Ev, symObjAddr: 0x8D44, symBinAddr: 0x10001B358, symSize: 0x28 }
  - { offsetInCU: 0x120EE, offset: 0x465D1, size: 0x8, addend: 0x0, symName: __ZNSt3__116allocator_traitsINS_9allocatorINS_11__tree_nodeINS_12__value_typeINS_12basic_stringIcNS_11char_traitsIcEENS1_IcEEEE10MyVariableEEPvEEEEE7destroyB7v160006INS_4pairIKS8_S9_EEvvEEvRSD_PT_, symObjAddr: 0x8D6C, symBinAddr: 0x10001B380, symSize: 0x28 }
  - { offsetInCU: 0x12129, offset: 0x4660C, size: 0x8, addend: 0x0, symName: __ZNSt3__122__tree_key_value_typesINS_12__value_typeINS_12basic_stringIcNS_11char_traitsIcEENS_9allocatorIcEEEE10MyVariableEEE9__get_ptrB7v160006ERS9_, symObjAddr: 0x8D94, symBinAddr: 0x10001B3A8, symSize: 0x24 }
  - { offsetInCU: 0x1214D, offset: 0x46630, size: 0x8, addend: 0x0, symName: __ZNSt3__116allocator_traitsINS_9allocatorINS_11__tree_nodeINS_12__value_typeINS_12basic_stringIcNS_11char_traitsIcEENS1_IcEEEE10MyVariableEEPvEEEEE10deallocateB7v160006ERSD_PSC_m, symObjAddr: 0x8DB8, symBinAddr: 0x10001B3CC, symSize: 0x34 }
  - { offsetInCU: 0x1218F, offset: 0x46672, size: 0x8, addend: 0x0, symName: __ZNSt3__117__compressed_pairINS_15__tree_end_nodeIPNS_16__tree_node_baseIPvEEEENS_9allocatorINS_11__tree_nodeINS_12__value_typeINS_12basic_stringIcNS_11char_traitsIcEENS7_IcEEEE10MyVariableEES3_EEEEE6secondB7v160006Ev, symObjAddr: 0x8DEC, symBinAddr: 0x10001B400, symSize: 0x24 }
  - { offsetInCU: 0x121B3, offset: 0x46696, size: 0x8, addend: 0x0, symName: __ZNSt3__122__compressed_pair_elemINS_9allocatorINS_11__tree_nodeINS_12__value_typeINS_12basic_stringIcNS_11char_traitsIcEENS1_IcEEEE10MyVariableEEPvEEEELi1ELb1EE5__getB7v160006Ev, symObjAddr: 0x8E10, symBinAddr: 0x10001B424, symSize: 0x14 }
  - { offsetInCU: 0x121D7, offset: 0x466BA, size: 0x8, addend: 0x0, symName: __ZNSt3__14pairIKNS_12basic_stringIcNS_11char_traitsIcEENS_9allocatorIcEEEE10MyVariableED1Ev, symObjAddr: 0x8E24, symBinAddr: 0x10001B438, symSize: 0x2C }
  - { offsetInCU: 0x12201, offset: 0x466E4, size: 0x8, addend: 0x0, symName: __ZNSt3__14pairIKNS_12basic_stringIcNS_11char_traitsIcEENS_9allocatorIcEEEE10MyVariableED2Ev, symObjAddr: 0x8E50, symBinAddr: 0x10001B464, symSize: 0x38 }
  - { offsetInCU: 0x1222B, offset: 0x4670E, size: 0x8, addend: 0x0, symName: __ZNSt3__112__value_typeINS_12basic_stringIcNS_11char_traitsIcEENS_9allocatorIcEEEE10MyVariableE11__get_valueB7v160006Ev, symObjAddr: 0x8E88, symBinAddr: 0x10001B49C, symSize: 0x14 }
  - { offsetInCU: 0x1224F, offset: 0x46732, size: 0x8, addend: 0x0, symName: __ZNSt3__19allocatorINS_11__tree_nodeINS_12__value_typeINS_12basic_stringIcNS_11char_traitsIcEENS0_IcEEEE10MyVariableEEPvEEE10deallocateB7v160006EPSB_m, symObjAddr: 0x8E9C, symBinAddr: 0x10001B4B0, symSize: 0x44 }
  - { offsetInCU: 0x1228F, offset: 0x46772, size: 0x8, addend: 0x0, symName: __ZNKSt3__16__treeINS_12__value_typeINS_12basic_stringIcNS_11char_traitsIcEENS_9allocatorIcEEEE10MyVariableEENS_19__map_value_compareIS7_S9_NS_4lessIS7_EELb1EEENS5_IS9_EEE10__end_nodeB7v160006Ev, symObjAddr: 0x8EE0, symBinAddr: 0x10001B4F4, symSize: 0x2C }
  - { offsetInCU: 0x122B3, offset: 0x46796, size: 0x8, addend: 0x0, symName: __ZNSt3__114pointer_traitsIPNS_15__tree_end_nodeIPNS_16__tree_node_baseIPvEEEEE10pointer_toB7v160006ERS6_, symObjAddr: 0x8F0C, symBinAddr: 0x10001B520, symSize: 0x14 }
  - { offsetInCU: 0x122D6, offset: 0x467B9, size: 0x8, addend: 0x0, symName: __ZNKSt3__117__compressed_pairINS_15__tree_end_nodeIPNS_16__tree_node_baseIPvEEEENS_9allocatorINS_11__tree_nodeINS_12__value_typeINS_12basic_stringIcNS_11char_traitsIcEENS7_IcEEEE10MyVariableEES3_EEEEE5firstB7v160006Ev, symObjAddr: 0x8F20, symBinAddr: 0x10001B534, symSize: 0x24 }
  - { offsetInCU: 0x122FA, offset: 0x467DD, size: 0x8, addend: 0x0, symName: __ZNKSt3__122__compressed_pair_elemINS_15__tree_end_nodeIPNS_16__tree_node_baseIPvEEEELi0ELb0EE5__getB7v160006Ev, symObjAddr: 0x8F44, symBinAddr: 0x10001B558, symSize: 0x14 }
  - { offsetInCU: 0x1231E, offset: 0x46801, size: 0x8, addend: 0x0, symName: __ZNSt3__117__compressed_pairImNS_19__map_value_compareINS_12basic_stringIcNS_11char_traitsIcEENS_9allocatorIcEEEENS_12__value_typeIS7_10MyVariableEENS_4lessIS7_EELb1EEEE5firstB7v160006Ev, symObjAddr: 0x8F58, symBinAddr: 0x10001B56C, symSize: 0x24 }
  - { offsetInCU: 0x12342, offset: 0x46825, size: 0x8, addend: 0x0, symName: __ZNSt3__122__compressed_pair_elemImLi0ELb0EE5__getB7v160006Ev, symObjAddr: 0x8F7C, symBinAddr: 0x10001B590, symSize: 0x14 }
  - { offsetInCU: 0x12366, offset: 0x46849, size: 0x8, addend: 0x0, symName: __ZNSt3__117__compressed_pairINS_15__tree_end_nodeIPNS_16__tree_node_baseIPvEEEENS_9allocatorINS_11__tree_nodeINS_12__value_typeINS_12basic_stringIcNS_11char_traitsIcEENS7_IcEEEE10MyVariableEES3_EEEEE5firstB7v160006Ev, symObjAddr: 0x8F90, symBinAddr: 0x10001B5A4, symSize: 0x24 }
  - { offsetInCU: 0x1238A, offset: 0x4686D, size: 0x8, addend: 0x0, symName: __ZNSt3__122__compressed_pair_elemINS_15__tree_end_nodeIPNS_16__tree_node_baseIPvEEEELi0ELb0EE5__getB7v160006Ev, symObjAddr: 0x8FB4, symBinAddr: 0x10001B5C8, symSize: 0x14 }
  - { offsetInCU: 0x123AE, offset: 0x46891, size: 0x8, addend: 0x0, symName: __ZNSt3__13mapINS_12basic_stringIcNS_11char_traitsIcEENS_9allocatorIcEEEE10MyVariableNS_4lessIS6_EENS4_INS_4pairIKS6_S7_EEEEEC2B7v160006Ev, symObjAddr: 0x8FC8, symBinAddr: 0x10001B5DC, symSize: 0x40 }
  - { offsetInCU: 0x123D7, offset: 0x468BA, size: 0x8, addend: 0x0, symName: __ZNSt3__119__map_value_compareINS_12basic_stringIcNS_11char_traitsIcEENS_9allocatorIcEEEENS_12__value_typeIS6_10MyVariableEENS_4lessIS6_EELb1EEC1B7v160006ESB_, symObjAddr: 0x9008, symBinAddr: 0x10001B61C, symSize: 0x2C }
  - { offsetInCU: 0x1240F, offset: 0x468F2, size: 0x8, addend: 0x0, symName: __ZNSt3__16__treeINS_12__value_typeINS_12basic_stringIcNS_11char_traitsIcEENS_9allocatorIcEEEE10MyVariableEENS_19__map_value_compareIS7_S9_NS_4lessIS7_EELb1EEENS5_IS9_EEEC1ERKSD_, symObjAddr: 0x9034, symBinAddr: 0x10001B648, symSize: 0x34 }
  - { offsetInCU: 0x12448, offset: 0x4692B, size: 0x8, addend: 0x0, symName: __ZNSt3__119__map_value_compareINS_12basic_stringIcNS_11char_traitsIcEENS_9allocatorIcEEEENS_12__value_typeIS6_10MyVariableEENS_4lessIS6_EELb1EEC2B7v160006ESB_, symObjAddr: 0x9068, symBinAddr: 0x10001B67C, symSize: 0x14 }
  - { offsetInCU: 0x12480, offset: 0x46963, size: 0x8, addend: 0x0, symName: __ZNSt3__16__treeINS_12__value_typeINS_12basic_stringIcNS_11char_traitsIcEENS_9allocatorIcEEEE10MyVariableEENS_19__map_value_compareIS7_S9_NS_4lessIS7_EELb1EEENS5_IS9_EEEC2ERKSD_, symObjAddr: 0x907C, symBinAddr: 0x10001B690, symSize: 0x7C }
  - { offsetInCU: 0x124B9, offset: 0x4699C, size: 0x8, addend: 0x0, symName: __ZNSt3__117__compressed_pairINS_15__tree_end_nodeIPNS_16__tree_node_baseIPvEEEENS_9allocatorINS_11__tree_nodeINS_12__value_typeINS_12basic_stringIcNS_11char_traitsIcEENS7_IcEEEE10MyVariableEES3_EEEEEC1B7v160006ILb1EvEEv, symObjAddr: 0x90F8, symBinAddr: 0x10001B70C, symSize: 0x2C }
  - { offsetInCU: 0x124F2, offset: 0x469D5, size: 0x8, addend: 0x0, symName: __ZNSt3__117__compressed_pairImNS_19__map_value_compareINS_12basic_stringIcNS_11char_traitsIcEENS_9allocatorIcEEEENS_12__value_typeIS7_10MyVariableEENS_4lessIS7_EELb1EEEEC1B7v160006IiRKSD_EEOT_OT0_, symObjAddr: 0x9124, symBinAddr: 0x10001B738, symSize: 0x3C }
  - { offsetInCU: 0x12549, offset: 0x46A2C, size: 0x8, addend: 0x0, symName: __ZNSt3__117__compressed_pairINS_15__tree_end_nodeIPNS_16__tree_node_baseIPvEEEENS_9allocatorINS_11__tree_nodeINS_12__value_typeINS_12basic_stringIcNS_11char_traitsIcEENS7_IcEEEE10MyVariableEES3_EEEEEC2B7v160006ILb1EvEEv, symObjAddr: 0x9160, symBinAddr: 0x10001B774, symSize: 0x34 }
  - { offsetInCU: 0x1257D, offset: 0x46A60, size: 0x8, addend: 0x0, symName: __ZNSt3__122__compressed_pair_elemINS_15__tree_end_nodeIPNS_16__tree_node_baseIPvEEEELi0ELb0EEC2B7v160006ENS_16__value_init_tagE, symObjAddr: 0x9194, symBinAddr: 0x10001B7A8, symSize: 0x2C }
  - { offsetInCU: 0x125B0, offset: 0x46A93, size: 0x8, addend: 0x0, symName: __ZNSt3__122__compressed_pair_elemINS_9allocatorINS_11__tree_nodeINS_12__value_typeINS_12basic_stringIcNS_11char_traitsIcEENS1_IcEEEE10MyVariableEEPvEEEELi1ELb1EEC2B7v160006ENS_16__value_init_tagE, symObjAddr: 0x91C0, symBinAddr: 0x10001B7D4, symSize: 0x2C }
  - { offsetInCU: 0x125E3, offset: 0x46AC6, size: 0x8, addend: 0x0, symName: __ZNSt3__115__tree_end_nodeIPNS_16__tree_node_baseIPvEEEC1B7v160006Ev, symObjAddr: 0x91EC, symBinAddr: 0x10001B800, symSize: 0x2C }
  - { offsetInCU: 0x1260C, offset: 0x46AEF, size: 0x8, addend: 0x0, symName: __ZNSt3__115__tree_end_nodeIPNS_16__tree_node_baseIPvEEEC2B7v160006Ev, symObjAddr: 0x9218, symBinAddr: 0x10001B82C, symSize: 0x18 }
  - { offsetInCU: 0x12635, offset: 0x46B18, size: 0x8, addend: 0x0, symName: __ZNSt3__19allocatorINS_11__tree_nodeINS_12__value_typeINS_12basic_stringIcNS_11char_traitsIcEENS0_IcEEEE10MyVariableEEPvEEEC2B7v160006Ev, symObjAddr: 0x9230, symBinAddr: 0x10001B844, symSize: 0x2C }
  - { offsetInCU: 0x1265E, offset: 0x46B41, size: 0x8, addend: 0x0, symName: __ZNSt3__116__non_trivial_ifILb1ENS_9allocatorINS_11__tree_nodeINS_12__value_typeINS_12basic_stringIcNS_11char_traitsIcEENS1_IcEEEE10MyVariableEEPvEEEEEC2B7v160006Ev, symObjAddr: 0x925C, symBinAddr: 0x10001B870, symSize: 0x14 }
  - { offsetInCU: 0x12687, offset: 0x46B6A, size: 0x8, addend: 0x0, symName: __ZNSt3__117__compressed_pairImNS_19__map_value_compareINS_12basic_stringIcNS_11char_traitsIcEENS_9allocatorIcEEEENS_12__value_typeIS7_10MyVariableEENS_4lessIS7_EELb1EEEEC2B7v160006IiRKSD_EEOT_OT0_, symObjAddr: 0x9270, symBinAddr: 0x10001B884, symSize: 0x44 }
  - { offsetInCU: 0x126DE, offset: 0x46BC1, size: 0x8, addend: 0x0, symName: __ZNSt3__122__compressed_pair_elemImLi0ELb0EEC2B7v160006IivEEOT_, symObjAddr: 0x92B4, symBinAddr: 0x10001B8C8, symSize: 0x24 }
  - { offsetInCU: 0x1271F, offset: 0x46C02, size: 0x8, addend: 0x0, symName: __ZNSt3__122__compressed_pair_elemINS_19__map_value_compareINS_12basic_stringIcNS_11char_traitsIcEENS_9allocatorIcEEEENS_12__value_typeIS7_10MyVariableEENS_4lessIS7_EELb1EEELi1ELb1EEC2B7v160006IRKSD_vEEOT_, symObjAddr: 0x92D8, symBinAddr: 0x10001B8EC, symSize: 0x18 }
  - { offsetInCU: 0x12760, offset: 0x46C43, size: 0x8, addend: 0x0, symName: __ZNSt3__13mapINS_12basic_stringIcNS_11char_traitsIcEENS_9allocatorIcEEEE10MyVariableNS_4lessIS6_EENS4_INS_4pairIKS6_S7_EEEEED2B7v160006Ev, symObjAddr: 0x92F0, symBinAddr: 0x10001B904, symSize: 0x2C }
  - { offsetInCU: 0x12789, offset: 0x46C6C, size: 0x8, addend: 0x0, symName: __ZNSt3__16__treeINS_12__value_typeINS_12basic_stringIcNS_11char_traitsIcEENS_9allocatorIcEEEE10MyVariableEENS_19__map_value_compareIS7_S9_NS_4lessIS7_EELb1EEENS5_IS9_EEED1Ev, symObjAddr: 0x931C, symBinAddr: 0x10001B930, symSize: 0x2C }
  - { offsetInCU: 0x127B3, offset: 0x46C96, size: 0x8, addend: 0x0, symName: __ZNSt3__16__treeINS_12__value_typeINS_12basic_stringIcNS_11char_traitsIcEENS_9allocatorIcEEEE10MyVariableEENS_19__map_value_compareIS7_S9_NS_4lessIS7_EELb1EEENS5_IS9_EEED2Ev, symObjAddr: 0x9348, symBinAddr: 0x10001B95C, symSize: 0x38 }
  - { offsetInCU: 0x127DC, offset: 0x46CBF, size: 0x8, addend: 0x0, symName: __ZNSt3__16__treeINS_12__value_typeINS_12basic_stringIcNS_11char_traitsIcEENS_9allocatorIcEEEE10MyVariableEENS_19__map_value_compareIS7_S9_NS_4lessIS7_EELb1EEENS5_IS9_EEE4findIS7_EENS_15__tree_iteratorIS9_PNS_11__tree_nodeIS9_PvEElEERKT_, symObjAddr: 0x9380, symBinAddr: 0x10001B994, symSize: 0xF8 }
  - { offsetInCU: 0x1282A, offset: 0x46D0D, size: 0x8, addend: 0x0, symName: __ZNSt3__114__map_iteratorINS_15__tree_iteratorINS_12__value_typeINS_12basic_stringIcNS_11char_traitsIcEENS_9allocatorIcEEEE10MyVariableEEPNS_11__tree_nodeISA_PvEElEEEC1B7v160006ESF_, symObjAddr: 0x9478, symBinAddr: 0x10001BA8C, symSize: 0x34 }
  - { offsetInCU: 0x12861, offset: 0x46D44, size: 0x8, addend: 0x0, symName: __ZNSt3__16__treeINS_12__value_typeINS_12basic_stringIcNS_11char_traitsIcEENS_9allocatorIcEEEE10MyVariableEENS_19__map_value_compareIS7_S9_NS_4lessIS7_EELb1EEENS5_IS9_EEE13__lower_boundIS7_EENS_15__tree_iteratorIS9_PNS_11__tree_nodeIS9_PvEElEERKT_SL_PNS_15__tree_end_nodeIPNS_16__tree_node_baseISJ_EEEE, symObjAddr: 0x94AC, symBinAddr: 0x10001BAC0, symSize: 0xA4 }
  - { offsetInCU: 0x128BE, offset: 0x46DA1, size: 0x8, addend: 0x0, symName: __ZNSt3__16__treeINS_12__value_typeINS_12basic_stringIcNS_11char_traitsIcEENS_9allocatorIcEEEE10MyVariableEENS_19__map_value_compareIS7_S9_NS_4lessIS7_EELb1EEENS5_IS9_EEE3endB7v160006Ev, symObjAddr: 0x9584, symBinAddr: 0x10001BB98, symSize: 0x34 }
  - { offsetInCU: 0x128E2, offset: 0x46DC5, size: 0x8, addend: 0x0, symName: __ZNSt3__16__treeINS_12__value_typeINS_12basic_stringIcNS_11char_traitsIcEENS_9allocatorIcEEEE10MyVariableEENS_19__map_value_compareIS7_S9_NS_4lessIS7_EELb1EEENS5_IS9_EEE10value_compB7v160006Ev, symObjAddr: 0x95B8, symBinAddr: 0x10001BBCC, symSize: 0x28 }
  - { offsetInCU: 0x12906, offset: 0x46DE9, size: 0x8, addend: 0x0, symName: __ZNKSt3__119__map_value_compareINS_12basic_stringIcNS_11char_traitsIcEENS_9allocatorIcEEEENS_12__value_typeIS6_10MyVariableEENS_4lessIS6_EELb1EEclB7v160006ERKS6_RKS9_, symObjAddr: 0x95E0, symBinAddr: 0x10001BBF4, symSize: 0x50 }
  - { offsetInCU: 0x12948, offset: 0x46E2B, size: 0x8, addend: 0x0, symName: __ZNKSt3__115__tree_iteratorINS_12__value_typeINS_12basic_stringIcNS_11char_traitsIcEENS_9allocatorIcEEEE10MyVariableEEPNS_11__tree_nodeIS9_PvEElEdeB7v160006Ev, symObjAddr: 0x9630, symBinAddr: 0x10001BC44, symSize: 0x28 }
  - { offsetInCU: 0x1296C, offset: 0x46E4F, size: 0x8, addend: 0x0, symName: __ZNKSt3__119__map_value_compareINS_12basic_stringIcNS_11char_traitsIcEENS_9allocatorIcEEEENS_12__value_typeIS6_10MyVariableEENS_4lessIS6_EELb1EEclB7v160006ERKS9_RKS6_, symObjAddr: 0x9658, symBinAddr: 0x10001BC6C, symSize: 0x48 }
  - { offsetInCU: 0x129AE, offset: 0x46E91, size: 0x8, addend: 0x0, symName: __ZNSt3__115__tree_iteratorINS_12__value_typeINS_12basic_stringIcNS_11char_traitsIcEENS_9allocatorIcEEEE10MyVariableEEPNS_11__tree_nodeIS9_PvEElEC1B7v160006EPNS_15__tree_end_nodeIPNS_16__tree_node_baseISB_EEEE, symObjAddr: 0x96A0, symBinAddr: 0x10001BCB4, symSize: 0x34 }
  - { offsetInCU: 0x129E6, offset: 0x46EC9, size: 0x8, addend: 0x0, symName: __ZNKSt3__14lessINS_12basic_stringIcNS_11char_traitsIcEENS_9allocatorIcEEEEEclB7v160006ERKS6_S9_, symObjAddr: 0x96D4, symBinAddr: 0x10001BCE8, symSize: 0x34 }
  - { offsetInCU: 0x12A28, offset: 0x46F0B, size: 0x8, addend: 0x0, symName: __ZNKSt3__112__value_typeINS_12basic_stringIcNS_11char_traitsIcEENS_9allocatorIcEEEE10MyVariableE11__get_valueB7v160006Ev, symObjAddr: 0x9708, symBinAddr: 0x10001BD1C, symSize: 0x14 }
  - { offsetInCU: 0x12A4C, offset: 0x46F2F, size: 0x8, addend: 0x0, symName: __ZNSt3__115__tree_iteratorINS_12__value_typeINS_12basic_stringIcNS_11char_traitsIcEENS_9allocatorIcEEEE10MyVariableEEPNS_11__tree_nodeIS9_PvEElEC2B7v160006EPNS_15__tree_end_nodeIPNS_16__tree_node_baseISB_EEEE, symObjAddr: 0x9A54, symBinAddr: 0x10001BD68, symSize: 0x20 }
  - { offsetInCU: 0x12A84, offset: 0x46F67, size: 0x8, addend: 0x0, symName: __ZNSt3__117__compressed_pairImNS_19__map_value_compareINS_12basic_stringIcNS_11char_traitsIcEENS_9allocatorIcEEEENS_12__value_typeIS7_10MyVariableEENS_4lessIS7_EELb1EEEE6secondB7v160006Ev, symObjAddr: 0x9AA4, symBinAddr: 0x10001BDB8, symSize: 0x24 }
  - { offsetInCU: 0x12AA8, offset: 0x46F8B, size: 0x8, addend: 0x0, symName: __ZNSt3__122__compressed_pair_elemINS_19__map_value_compareINS_12basic_stringIcNS_11char_traitsIcEENS_9allocatorIcEEEENS_12__value_typeIS7_10MyVariableEENS_4lessIS7_EELb1EEELi1ELb1EE5__getB7v160006Ev, symObjAddr: 0x9AC8, symBinAddr: 0x10001BDDC, symSize: 0x14 }
  - { offsetInCU: 0x12ACC, offset: 0x46FAF, size: 0x8, addend: 0x0, symName: __ZNKSt3__115__tree_iteratorINS_12__value_typeINS_12basic_stringIcNS_11char_traitsIcEENS_9allocatorIcEEEE10MyVariableEEPNS_11__tree_nodeIS9_PvEElE8__get_npB7v160006Ev, symObjAddr: 0x9ADC, symBinAddr: 0x10001BDF0, symSize: 0x18 }
  - { offsetInCU: 0x12AF0, offset: 0x46FD3, size: 0x8, addend: 0x0, symName: __ZNSt3__114__map_iteratorINS_15__tree_iteratorINS_12__value_typeINS_12basic_stringIcNS_11char_traitsIcEENS_9allocatorIcEEEE10MyVariableEEPNS_11__tree_nodeISA_PvEElEEEC2B7v160006ESF_, symObjAddr: 0x9AF4, symBinAddr: 0x10001BE08, symSize: 0x20 }
  - { offsetInCU: 0x12B3B, offset: 0x4701E, size: 0x8, addend: 0x0, symName: __ZNSt3__16__treeINS_12__value_typeINS_12basic_stringIcNS_11char_traitsIcEENS_9allocatorIcEEEE10MyVariableEENS_19__map_value_compareIS7_S9_NS_4lessIS7_EELb1EEENS5_IS9_EEE25__emplace_unique_key_argsIS7_JRKNS_21piecewise_construct_tENS_5tupleIJRKS7_EEENSK_IJEEEEEENS_4pairINS_15__tree_iteratorIS9_PNS_11__tree_nodeIS9_PvEElEEbEERKT_DpOT0_, symObjAddr: 0x9B14, symBinAddr: 0x10001BE28, symSize: 0x100 }
  - { offsetInCU: 0x12C10, offset: 0x470F3, size: 0x8, addend: 0x0, symName: __ZNKSt3__115__tree_iteratorINS_12__value_typeINS_12basic_stringIcNS_11char_traitsIcEENS_9allocatorIcEEEE10MyVariableEEPNS_11__tree_nodeIS9_PvEElEptB7v160006Ev, symObjAddr: 0x9C44, symBinAddr: 0x10001BF58, symSize: 0x2C }
  - { offsetInCU: 0x12C33, offset: 0x47116, size: 0x8, addend: 0x0, symName: __ZNSt3__16__treeINS_12__value_typeINS_12basic_stringIcNS_11char_traitsIcEENS_9allocatorIcEEEE10MyVariableEENS_19__map_value_compareIS7_S9_NS_4lessIS7_EELb1EEENS5_IS9_EEE12__find_equalIS7_EERPNS_16__tree_node_baseIPvEERPNS_15__tree_end_nodeISK_EERKT_, symObjAddr: 0x9C70, symBinAddr: 0x10001BF84, symSize: 0x184 }
  - { offsetInCU: 0x12C9E, offset: 0x47181, size: 0x8, addend: 0x0, symName: __ZNSt3__16__treeINS_12__value_typeINS_12basic_stringIcNS_11char_traitsIcEENS_9allocatorIcEEEE10MyVariableEENS_19__map_value_compareIS7_S9_NS_4lessIS7_EELb1EEENS5_IS9_EEE16__construct_nodeIJRKNS_21piecewise_construct_tENS_5tupleIJRKS7_EEENSK_IJEEEEEENS_10unique_ptrINS_11__tree_nodeIS9_PvEENS_22__tree_node_destructorINS5_ISS_EEEEEEDpOT_, symObjAddr: 0x9DF4, symBinAddr: 0x10001C108, symSize: 0x120 }
  - { offsetInCU: 0x12D25, offset: 0x47208, size: 0x8, addend: 0x0, symName: __ZNSt3__16__treeINS_12__value_typeINS_12basic_stringIcNS_11char_traitsIcEENS_9allocatorIcEEEE10MyVariableEENS_19__map_value_compareIS7_S9_NS_4lessIS7_EELb1EEENS5_IS9_EEE16__insert_node_atEPNS_15__tree_end_nodeIPNS_16__tree_node_baseIPvEEEERSK_SK_, symObjAddr: 0x9F14, symBinAddr: 0x10001C228, symSize: 0xCC }
  - { offsetInCU: 0x12D79, offset: 0x4725C, size: 0x8, addend: 0x0, symName: __ZNKSt3__110unique_ptrINS_11__tree_nodeINS_12__value_typeINS_12basic_stringIcNS_11char_traitsIcEENS_9allocatorIcEEEE10MyVariableEEPvEENS_22__tree_node_destructorINS6_ISC_EEEEE3getB7v160006Ev, symObjAddr: 0x9FE0, symBinAddr: 0x10001C2F4, symSize: 0x28 }
  - { offsetInCU: 0x12D9D, offset: 0x47280, size: 0x8, addend: 0x0, symName: __ZNSt3__110unique_ptrINS_11__tree_nodeINS_12__value_typeINS_12basic_stringIcNS_11char_traitsIcEENS_9allocatorIcEEEE10MyVariableEEPvEENS_22__tree_node_destructorINS6_ISC_EEEEE7releaseB7v160006Ev, symObjAddr: 0xA008, symBinAddr: 0x10001C31C, symSize: 0x44 }
  - { offsetInCU: 0x12DD0, offset: 0x472B3, size: 0x8, addend: 0x0, symName: __ZNSt3__110unique_ptrINS_11__tree_nodeINS_12__value_typeINS_12basic_stringIcNS_11char_traitsIcEENS_9allocatorIcEEEE10MyVariableEEPvEENS_22__tree_node_destructorINS6_ISC_EEEEED1B7v160006Ev, symObjAddr: 0xA04C, symBinAddr: 0x10001C360, symSize: 0x2C }
  - { offsetInCU: 0x12DF9, offset: 0x472DC, size: 0x8, addend: 0x0, symName: __ZNSt3__115__tree_iteratorINS_12__value_typeINS_12basic_stringIcNS_11char_traitsIcEENS_9allocatorIcEEEE10MyVariableEEPNS_11__tree_nodeIS9_PvEElEC1B7v160006ESD_, symObjAddr: 0xA078, symBinAddr: 0x10001C38C, symSize: 0x34 }
  - { offsetInCU: 0x12E3B, offset: 0x4731E, size: 0x8, addend: 0x0, symName: __ZNSt3__14pairINS_15__tree_iteratorINS_12__value_typeINS_12basic_stringIcNS_11char_traitsIcEENS_9allocatorIcEEEE10MyVariableEEPNS_11__tree_nodeISA_PvEElEEbEC1B7v160006ISF_RbLSC_0EEEOT_OT0_, symObjAddr: 0xA0AC, symBinAddr: 0x10001C3C0, symSize: 0x3C }
  - { offsetInCU: 0x12E98, offset: 0x4737B, size: 0x8, addend: 0x0, symName: __ZNKSt3__16__treeINS_12__value_typeINS_12basic_stringIcNS_11char_traitsIcEENS_9allocatorIcEEEE10MyVariableEENS_19__map_value_compareIS7_S9_NS_4lessIS7_EELb1EEENS5_IS9_EEE10__root_ptrEv, symObjAddr: 0xA0E8, symBinAddr: 0x10001C3FC, symSize: 0x24 }
  - { offsetInCU: 0x12EBC, offset: 0x4739F, size: 0x8, addend: 0x0, symName: __ZNSt3__116allocator_traitsINS_9allocatorINS_11__tree_nodeINS_12__value_typeINS_12basic_stringIcNS_11char_traitsIcEENS1_IcEEEE10MyVariableEEPvEEEEE8allocateB7v160006ERSD_m, symObjAddr: 0xA10C, symBinAddr: 0x10001C420, symSize: 0x2C }
  - { offsetInCU: 0x12EEF, offset: 0x473D2, size: 0x8, addend: 0x0, symName: __ZNSt3__122__tree_node_destructorINS_9allocatorINS_11__tree_nodeINS_12__value_typeINS_12basic_stringIcNS_11char_traitsIcEENS1_IcEEEE10MyVariableEEPvEEEEEC1B7v160006ERSD_b, symObjAddr: 0xA138, symBinAddr: 0x10001C44C, symSize: 0x48 }
  - { offsetInCU: 0x12F3B, offset: 0x4741E, size: 0x8, addend: 0x0, symName: __ZNSt3__110unique_ptrINS_11__tree_nodeINS_12__value_typeINS_12basic_stringIcNS_11char_traitsIcEENS_9allocatorIcEEEE10MyVariableEEPvEENS_22__tree_node_destructorINS6_ISC_EEEEEC1B7v160006ILb1EvEEPSC_NS_16__dependent_typeINS_27__unique_ptr_deleter_sfinaeISF_EEXT_EE20__good_rval_ref_typeE, symObjAddr: 0xA180, symBinAddr: 0x10001C494, symSize: 0x3C }
  - { offsetInCU: 0x12F8B, offset: 0x4746E, size: 0x8, addend: 0x0, symName: __ZNSt3__116allocator_traitsINS_9allocatorINS_11__tree_nodeINS_12__value_typeINS_12basic_stringIcNS_11char_traitsIcEENS1_IcEEEE10MyVariableEEPvEEEEE9constructB7v160006INS_4pairIKS8_S9_EEJRKNS_21piecewise_construct_tENS_5tupleIJRSH_EEENSM_IJEEEEvEEvRSD_PT_DpOT0_, symObjAddr: 0xA1BC, symBinAddr: 0x10001C4D0, symSize: 0x44 }
  - { offsetInCU: 0x1300A, offset: 0x474ED, size: 0x8, addend: 0x0, symName: __ZNKSt3__110unique_ptrINS_11__tree_nodeINS_12__value_typeINS_12basic_stringIcNS_11char_traitsIcEENS_9allocatorIcEEEE10MyVariableEEPvEENS_22__tree_node_destructorINS6_ISC_EEEEEptB7v160006Ev, symObjAddr: 0xA200, symBinAddr: 0x10001C514, symSize: 0x28 }
  - { offsetInCU: 0x1302E, offset: 0x47511, size: 0x8, addend: 0x0, symName: __ZNSt3__110unique_ptrINS_11__tree_nodeINS_12__value_typeINS_12basic_stringIcNS_11char_traitsIcEENS_9allocatorIcEEEE10MyVariableEEPvEENS_22__tree_node_destructorINS6_ISC_EEEEE11get_deleterB7v160006Ev, symObjAddr: 0xA228, symBinAddr: 0x10001C53C, symSize: 0x24 }
  - { offsetInCU: 0x13052, offset: 0x47535, size: 0x8, addend: 0x0, symName: __ZNSt3__19allocatorINS_11__tree_nodeINS_12__value_typeINS_12basic_stringIcNS_11char_traitsIcEENS0_IcEEEE10MyVariableEEPvEEE8allocateB7v160006Em, symObjAddr: 0xA24C, symBinAddr: 0x10001C560, symSize: 0x5C }
  - { offsetInCU: 0x1308E, offset: 0x47571, size: 0x8, addend: 0x0, symName: __ZNSt3__116allocator_traitsINS_9allocatorINS_11__tree_nodeINS_12__value_typeINS_12basic_stringIcNS_11char_traitsIcEENS1_IcEEEE10MyVariableEEPvEEEEE8max_sizeB7v160006ISD_vEEmRKSD_, symObjAddr: 0xA2A8, symBinAddr: 0x10001C5BC, symSize: 0x24 }
  - { offsetInCU: 0x130BC, offset: 0x4759F, size: 0x8, addend: 0x0, symName: __ZNKSt3__19allocatorINS_11__tree_nodeINS_12__value_typeINS_12basic_stringIcNS_11char_traitsIcEENS0_IcEEEE10MyVariableEEPvEEE8max_sizeB7v160006Ev, symObjAddr: 0xA2CC, symBinAddr: 0x10001C5E0, symSize: 0x18 }
  - { offsetInCU: 0x130E0, offset: 0x475C3, size: 0x8, addend: 0x0, symName: __ZNSt3__122__tree_node_destructorINS_9allocatorINS_11__tree_nodeINS_12__value_typeINS_12basic_stringIcNS_11char_traitsIcEENS1_IcEEEE10MyVariableEEPvEEEEEC2B7v160006ERSD_b, symObjAddr: 0xA2E4, symBinAddr: 0x10001C5F8, symSize: 0x38 }
  - { offsetInCU: 0x13127, offset: 0x4760A, size: 0x8, addend: 0x0, symName: __ZNSt3__110unique_ptrINS_11__tree_nodeINS_12__value_typeINS_12basic_stringIcNS_11char_traitsIcEENS_9allocatorIcEEEE10MyVariableEEPvEENS_22__tree_node_destructorINS6_ISC_EEEEEC2B7v160006ILb1EvEEPSC_NS_16__dependent_typeINS_27__unique_ptr_deleter_sfinaeISF_EEXT_EE20__good_rval_ref_typeE, symObjAddr: 0xA31C, symBinAddr: 0x10001C630, symSize: 0x48 }
  - { offsetInCU: 0x13177, offset: 0x4765A, size: 0x8, addend: 0x0, symName: __ZNSt3__117__compressed_pairIPNS_11__tree_nodeINS_12__value_typeINS_12basic_stringIcNS_11char_traitsIcEENS_9allocatorIcEEEE10MyVariableEEPvEENS_22__tree_node_destructorINS6_ISC_EEEEEC1B7v160006IRSD_SG_EEOT_OT0_, symObjAddr: 0xA364, symBinAddr: 0x10001C678, symSize: 0x3C }
  - { offsetInCU: 0x131CE, offset: 0x476B1, size: 0x8, addend: 0x0, symName: __ZNSt3__117__compressed_pairIPNS_11__tree_nodeINS_12__value_typeINS_12basic_stringIcNS_11char_traitsIcEENS_9allocatorIcEEEE10MyVariableEEPvEENS_22__tree_node_destructorINS6_ISC_EEEEEC2B7v160006IRSD_SG_EEOT_OT0_, symObjAddr: 0xA3A0, symBinAddr: 0x10001C6B4, symSize: 0x48 }
  - { offsetInCU: 0x13225, offset: 0x47708, size: 0x8, addend: 0x0, symName: __ZNSt3__122__compressed_pair_elemIPNS_11__tree_nodeINS_12__value_typeINS_12basic_stringIcNS_11char_traitsIcEENS_9allocatorIcEEEE10MyVariableEEPvEELi0ELb0EEC2B7v160006IRSD_vEEOT_, symObjAddr: 0xA3E8, symBinAddr: 0x10001C6FC, symSize: 0x24 }
  - { offsetInCU: 0x13266, offset: 0x47749, size: 0x8, addend: 0x0, symName: __ZNSt3__122__compressed_pair_elemINS_22__tree_node_destructorINS_9allocatorINS_11__tree_nodeINS_12__value_typeINS_12basic_stringIcNS_11char_traitsIcEENS2_IcEEEE10MyVariableEEPvEEEEEELi1ELb0EEC2B7v160006ISF_vEEOT_, symObjAddr: 0xA40C, symBinAddr: 0x10001C720, symSize: 0x24 }
  - { offsetInCU: 0x132A7, offset: 0x4778A, size: 0x8, addend: 0x0, symName: __ZNSt3__19allocatorINS_11__tree_nodeINS_12__value_typeINS_12basic_stringIcNS_11char_traitsIcEENS0_IcEEEE10MyVariableEEPvEEE9constructB7v160006INS_4pairIKS7_S8_EEJRKNS_21piecewise_construct_tENS_5tupleIJRSF_EEENSK_IJEEEEEEvPT_DpOT0_, symObjAddr: 0xA430, symBinAddr: 0x10001C744, symSize: 0x44 }
  - { offsetInCU: 0x13321, offset: 0x47804, size: 0x8, addend: 0x0, symName: __ZNSt3__14pairIKNS_12basic_stringIcNS_11char_traitsIcEENS_9allocatorIcEEEE10MyVariableEC1B7v160006IJRS7_EJEEENS_21piecewise_construct_tENS_5tupleIJDpT_EEENSD_IJDpT0_EEE, symObjAddr: 0xA474, symBinAddr: 0x10001C788, symSize: 0x3C }
  - { offsetInCU: 0x13387, offset: 0x4786A, size: 0x8, addend: 0x0, symName: __ZNSt3__14pairIKNS_12basic_stringIcNS_11char_traitsIcEENS_9allocatorIcEEEE10MyVariableEC1B7v160006IJRS7_EJEJLm0EEJEEENS_21piecewise_construct_tERNS_5tupleIJDpT_EEERNSD_IJDpT0_EEENS_15__tuple_indicesIJXspT1_EEEENSM_IJXspT2_EEEE, symObjAddr: 0xA4B0, symBinAddr: 0x10001C7C4, symSize: 0x3C }
  - { offsetInCU: 0x13416, offset: 0x478F9, size: 0x8, addend: 0x0, symName: __ZNSt3__14pairIKNS_12basic_stringIcNS_11char_traitsIcEENS_9allocatorIcEEEE10MyVariableEC2B7v160006IJRS7_EJEJLm0EEJEEENS_21piecewise_construct_tERNS_5tupleIJDpT_EEERNSD_IJDpT0_EEENS_15__tuple_indicesIJXspT1_EEEENSM_IJXspT2_EEEE, symObjAddr: 0xA4EC, symBinAddr: 0x10001C800, symSize: 0x50 }
  - { offsetInCU: 0x134A5, offset: 0x47988, size: 0x8, addend: 0x0, symName: __ZNSt3__112__tuple_leafILm0ERKNS_12basic_stringIcNS_11char_traitsIcEENS_9allocatorIcEEEELb0EE3getB7v160006Ev, symObjAddr: 0xA560, symBinAddr: 0x10001C874, symSize: 0x18 }
  - { offsetInCU: 0x134C9, offset: 0x479AC, size: 0x8, addend: 0x0, symName: __ZNKSt3__117__compressed_pairIPNS_11__tree_nodeINS_12__value_typeINS_12basic_stringIcNS_11char_traitsIcEENS_9allocatorIcEEEE10MyVariableEEPvEENS_22__tree_node_destructorINS6_ISC_EEEEE5firstB7v160006Ev, symObjAddr: 0xA578, symBinAddr: 0x10001C88C, symSize: 0x24 }
  - { offsetInCU: 0x134ED, offset: 0x479D0, size: 0x8, addend: 0x0, symName: __ZNKSt3__122__compressed_pair_elemIPNS_11__tree_nodeINS_12__value_typeINS_12basic_stringIcNS_11char_traitsIcEENS_9allocatorIcEEEE10MyVariableEEPvEELi0ELb0EE5__getB7v160006Ev, symObjAddr: 0xA59C, symBinAddr: 0x10001C8B0, symSize: 0x14 }
  - { offsetInCU: 0x13511, offset: 0x479F4, size: 0x8, addend: 0x0, symName: __ZNSt3__117__compressed_pairIPNS_11__tree_nodeINS_12__value_typeINS_12basic_stringIcNS_11char_traitsIcEENS_9allocatorIcEEEE10MyVariableEEPvEENS_22__tree_node_destructorINS6_ISC_EEEEE6secondB7v160006Ev, symObjAddr: 0xA5B0, symBinAddr: 0x10001C8C4, symSize: 0x28 }
  - { offsetInCU: 0x13535, offset: 0x47A18, size: 0x8, addend: 0x0, symName: __ZNSt3__122__compressed_pair_elemINS_22__tree_node_destructorINS_9allocatorINS_11__tree_nodeINS_12__value_typeINS_12basic_stringIcNS_11char_traitsIcEENS2_IcEEEE10MyVariableEEPvEEEEEELi1ELb0EE5__getB7v160006Ev, symObjAddr: 0xA5D8, symBinAddr: 0x10001C8EC, symSize: 0x14 }
  - { offsetInCU: 0x13559, offset: 0x47A3C, size: 0x8, addend: 0x0, symName: __ZNKSt3__116__tree_node_baseIPvE15__parent_unsafeB7v160006Ev, symObjAddr: 0xA918, symBinAddr: 0x10001CC2C, symSize: 0x18 }
  - { offsetInCU: 0x1357D, offset: 0x47A60, size: 0x8, addend: 0x0, symName: __ZNSt3__116__tree_node_baseIPvE12__set_parentB7v160006EPS2_, symObjAddr: 0xAB00, symBinAddr: 0x10001CE14, symSize: 0x20 }
  - { offsetInCU: 0x135B0, offset: 0x47A93, size: 0x8, addend: 0x0, symName: __ZNSt3__117__compressed_pairIPNS_11__tree_nodeINS_12__value_typeINS_12basic_stringIcNS_11char_traitsIcEENS_9allocatorIcEEEE10MyVariableEEPvEENS_22__tree_node_destructorINS6_ISC_EEEEE5firstB7v160006Ev, symObjAddr: 0xAB20, symBinAddr: 0x10001CE34, symSize: 0x24 }
  - { offsetInCU: 0x135D4, offset: 0x47AB7, size: 0x8, addend: 0x0, symName: __ZNSt3__122__compressed_pair_elemIPNS_11__tree_nodeINS_12__value_typeINS_12basic_stringIcNS_11char_traitsIcEENS_9allocatorIcEEEE10MyVariableEEPvEELi0ELb0EE5__getB7v160006Ev, symObjAddr: 0xAB44, symBinAddr: 0x10001CE58, symSize: 0x14 }
  - { offsetInCU: 0x135F8, offset: 0x47ADB, size: 0x8, addend: 0x0, symName: __ZNSt3__110unique_ptrINS_11__tree_nodeINS_12__value_typeINS_12basic_stringIcNS_11char_traitsIcEENS_9allocatorIcEEEE10MyVariableEEPvEENS_22__tree_node_destructorINS6_ISC_EEEEED2B7v160006Ev, symObjAddr: 0xAB58, symBinAddr: 0x10001CE6C, symSize: 0x30 }
  - { offsetInCU: 0x13621, offset: 0x47B04, size: 0x8, addend: 0x0, symName: __ZNSt3__110unique_ptrINS_11__tree_nodeINS_12__value_typeINS_12basic_stringIcNS_11char_traitsIcEENS_9allocatorIcEEEE10MyVariableEEPvEENS_22__tree_node_destructorINS6_ISC_EEEEE5resetB7v160006EPSC_, symObjAddr: 0xAB88, symBinAddr: 0x10001CE9C, symSize: 0x78 }
  - { offsetInCU: 0x13663, offset: 0x47B46, size: 0x8, addend: 0x0, symName: __ZNSt3__122__tree_node_destructorINS_9allocatorINS_11__tree_nodeINS_12__value_typeINS_12basic_stringIcNS_11char_traitsIcEENS1_IcEEEE10MyVariableEEPvEEEEEclB7v160006EPSC_, symObjAddr: 0xAC00, symBinAddr: 0x10001CF14, symSize: 0x94 }
  - { offsetInCU: 0x13696, offset: 0x47B79, size: 0x8, addend: 0x0, symName: __ZNSt3__115__tree_iteratorINS_12__value_typeINS_12basic_stringIcNS_11char_traitsIcEENS_9allocatorIcEEEE10MyVariableEEPNS_11__tree_nodeIS9_PvEElEC2B7v160006ESD_, symObjAddr: 0xAC94, symBinAddr: 0x10001CFA8, symSize: 0x20 }
  - { offsetInCU: 0x136CE, offset: 0x47BB1, size: 0x8, addend: 0x0, symName: __ZNSt3__14pairINS_15__tree_iteratorINS_12__value_typeINS_12basic_stringIcNS_11char_traitsIcEENS_9allocatorIcEEEE10MyVariableEEPNS_11__tree_nodeISA_PvEElEEbEC2B7v160006ISF_RbLSC_0EEEOT_OT0_, symObjAddr: 0xACB4, symBinAddr: 0x10001CFC8, symSize: 0x38 }
  - { offsetInCU: 0x1372B, offset: 0x47C0E, size: 0x8, addend: 0x0, symName: __ZNSt3__15tupleIJRKNS_12basic_stringIcNS_11char_traitsIcEENS_9allocatorIcEEEEEEC1B7v160006INS_4_AndELi0EEES8_, symObjAddr: 0xACEC, symBinAddr: 0x10001D000, symSize: 0x34 }
  - { offsetInCU: 0x13773, offset: 0x47C56, size: 0x8, addend: 0x0, symName: __ZNSt3__15tupleIJRKNS_12basic_stringIcNS_11char_traitsIcEENS_9allocatorIcEEEEEEC2B7v160006INS_4_AndELi0EEES8_, symObjAddr: 0xAD20, symBinAddr: 0x10001D034, symSize: 0x34 }
  - { offsetInCU: 0x137BB, offset: 0x47C9E, size: 0x8, addend: 0x0, symName: __ZNSt3__112__tuple_implINS_15__tuple_indicesIJLm0EEEEJRKNS_12basic_stringIcNS_11char_traitsIcEENS_9allocatorIcEEEEEEC1B7v160006IJLm0EEJSA_EJEJEJSA_EEENS1_IJXspT_EEEENS_13__tuple_typesIJDpT0_EEENS1_IJXspT1_EEEENSE_IJDpT2_EEEDpOT3_, symObjAddr: 0xAD54, symBinAddr: 0x10001D068, symSize: 0x34 }
  - { offsetInCU: 0x1384F, offset: 0x47D32, size: 0x8, addend: 0x0, symName: __ZNSt3__112__tuple_implINS_15__tuple_indicesIJLm0EEEEJRKNS_12basic_stringIcNS_11char_traitsIcEENS_9allocatorIcEEEEEEC2B7v160006IJLm0EEJSA_EJEJEJSA_EEENS1_IJXspT_EEEENS_13__tuple_typesIJDpT0_EEENS1_IJXspT1_EEEENSE_IJDpT2_EEEDpOT3_, symObjAddr: 0xAD88, symBinAddr: 0x10001D09C, symSize: 0x34 }
  - { offsetInCU: 0x138E3, offset: 0x47DC6, size: 0x8, addend: 0x0, symName: __ZNSt3__112__tuple_leafILm0ERKNS_12basic_stringIcNS_11char_traitsIcEENS_9allocatorIcEEEELb0EEC2B7v160006IS8_vEEOT_, symObjAddr: 0xADBC, symBinAddr: 0x10001D0D0, symSize: 0x20 }
  - { offsetInCU: 0x13925, offset: 0x47E08, size: 0x8, addend: 0x0, symName: __ZNSt3__114pointer_traitsIPNS_12__value_typeINS_12basic_stringIcNS_11char_traitsIcEENS_9allocatorIcEEEE10MyVariableEEE10pointer_toB7v160006ERS9_, symObjAddr: 0xADDC, symBinAddr: 0x10001D0F0, symSize: 0x14 }
  - { offsetInCU: 0x13948, offset: 0x47E2B, size: 0x8, addend: 0x0, symName: __ZNKSt3__16__treeINS_12__value_typeINS_12basic_stringIcNS_11char_traitsIcEENS_9allocatorIcEEEE10MyVariableEENS_19__map_value_compareIS7_S9_NS_4lessIS7_EELb1EEENS5_IS9_EEE4sizeB7v160006Ev, symObjAddr: 0xADF0, symBinAddr: 0x10001D104, symSize: 0x28 }
  - { offsetInCU: 0x1396C, offset: 0x47E4F, size: 0x8, addend: 0x0, symName: __ZNKSt3__117__compressed_pairImNS_19__map_value_compareINS_12basic_stringIcNS_11char_traitsIcEENS_9allocatorIcEEEENS_12__value_typeIS7_10MyVariableEENS_4lessIS7_EELb1EEEE5firstB7v160006Ev, symObjAddr: 0xAE18, symBinAddr: 0x10001D12C, symSize: 0x24 }
  - { offsetInCU: 0x13990, offset: 0x47E73, size: 0x8, addend: 0x0, symName: __ZNKSt3__122__compressed_pair_elemImLi0ELb0EE5__getB7v160006Ev, symObjAddr: 0xAE3C, symBinAddr: 0x10001D150, symSize: 0x14 }
  - { offsetInCU: 0x139B4, offset: 0x47E97, size: 0x8, addend: 0x0, symName: __ZNSt3__114__map_iteratorINS_15__tree_iteratorINS_12__value_typeINS_12basic_stringIcNS_11char_traitsIcEENS_9allocatorIcEEEE10MyVariableEEPNS_11__tree_nodeISA_PvEElEEEC2B7v160006Ev, symObjAddr: 0xAE50, symBinAddr: 0x10001D164, symSize: 0x2C }
  - { offsetInCU: 0x139DD, offset: 0x47EC0, size: 0x8, addend: 0x0, symName: __ZNSt3__115__tree_iteratorINS_12__value_typeINS_12basic_stringIcNS_11char_traitsIcEENS_9allocatorIcEEEE10MyVariableEEPNS_11__tree_nodeIS9_PvEElEC1B7v160006Ev, symObjAddr: 0xAE7C, symBinAddr: 0x10001D190, symSize: 0x2C }
  - { offsetInCU: 0x13A06, offset: 0x47EE9, size: 0x8, addend: 0x0, symName: __ZNSt3__115__tree_iteratorINS_12__value_typeINS_12basic_stringIcNS_11char_traitsIcEENS_9allocatorIcEEEE10MyVariableEEPNS_11__tree_nodeIS9_PvEElEC2B7v160006Ev, symObjAddr: 0xAEA8, symBinAddr: 0x10001D1BC, symSize: 0x14 }
  - { offsetInCU: 0x13A2F, offset: 0x47F12, size: 0x8, addend: 0x0, symName: __ZNSt3__16__treeINS_12__value_typeINS_12basic_stringIcNS_11char_traitsIcEENS_9allocatorIcEEEE10MyVariableEENS_19__map_value_compareIS7_S9_NS_4lessIS7_EELb1EEENS5_IS9_EEE5beginB7v160006Ev, symObjAddr: 0xAEBC, symBinAddr: 0x10001D1D0, symSize: 0x34 }
  - { offsetInCU: 0x13A53, offset: 0x47F36, size: 0x8, addend: 0x0, symName: __ZNSt3__115__tree_iteratorINS_12__value_typeINS_12basic_stringIcNS_11char_traitsIcEENS_9allocatorIcEEEE10MyVariableEEPNS_11__tree_nodeIS9_PvEElEppB7v160006Ev, symObjAddr: 0xAEF0, symBinAddr: 0x10001D204, symSize: 0x38 }
  - { offsetInCU: 0x13A77, offset: 0x47F5A, size: 0x8, addend: 0x0, symName: __ZNSt3__114pointer_traitsIPNS_4pairIKNS_12basic_stringIcNS_11char_traitsIcEENS_9allocatorIcEEEE10MyVariableEEE10pointer_toB7v160006ERSA_, symObjAddr: 0xAFE8, symBinAddr: 0x10001D2FC, symSize: 0x14 }
  - { offsetInCU: 0x52, offset: 0x48154, size: 0x8, addend: 0x0, symName: _tTokens, symObjAddr: 0x619F8, symBinAddr: 0x1000349A0, symSize: 0x0 }
  - { offsetInCU: 0x71A5, offset: 0x4F2A7, size: 0x8, addend: 0x0, symName: __ZNSt3__1L19piecewise_constructE, symObjAddr: 0xC7B4, symBinAddr: 0x10002E8BC, symSize: 0x0 }
  - { offsetInCU: 0x7D18, offset: 0x4FE1A, size: 0x8, addend: 0x0, symName: __ZNSt3__17advanceB7v160006INS_21__tree_const_iteratorINS_12__value_typeIiNS_12basic_stringIcNS_11char_traitsIcEENS_9allocatorIcEEEEEEPNS_11__tree_nodeIS9_PvEElEEllvEEvRT_T0_, symObjAddr: 0x7638, symBinAddr: 0x1000232DC, symSize: 0x50 }
  - { offsetInCU: 0x8B2B, offset: 0x50C2D, size: 0x8, addend: 0x0, symName: __ZNSt3__19transformB7v160006INS_11__wrap_iterIPcEES3_PFiiEEET0_T_S7_S6_T1_, symObjAddr: 0x5D8, symBinAddr: 0x10001D8E4, symSize: 0x98 }
  - { offsetInCU: 0x8B9C, offset: 0x50C9E, size: 0x8, addend: 0x0, symName: __ZNSt3__1eqB7v160006INS_9allocatorIcEEEEbRKNS_12basic_stringIcNS_11char_traitsIcEET_EES9_, symObjAddr: 0x734, symBinAddr: 0x10001DA40, symSize: 0x148 }
  - { offsetInCU: 0x8C0F, offset: 0x50D11, size: 0x8, addend: 0x0, symName: __ZNSt3__1neB7v160006IPcEEbRKNS_11__wrap_iterIT_EES6_, symObjAddr: 0x1A50, symBinAddr: 0x10001E56C, symSize: 0x34 }
  - { offsetInCU: 0x8C52, offset: 0x50D54, size: 0x8, addend: 0x0, symName: __ZNSt3__1eqB7v160006IPcEEbRKNS_11__wrap_iterIT_EES6_, symObjAddr: 0x1ABC, symBinAddr: 0x10001E5D8, symSize: 0x48 }
  - { offsetInCU: 0x8C95, offset: 0x50D97, size: 0x8, addend: 0x0, symName: __ZNSt3__122__make_exception_guardB7v160006INS_6vectorI12tSyntaxNode_NS_9allocatorIS2_EEE16__destroy_vectorEEENS_28__exception_guard_exceptionsIT_EES8_, symObjAddr: 0x1D1C, symBinAddr: 0x10001E798, symSize: 0x40 }
  - { offsetInCU: 0x8CCA, offset: 0x50DCC, size: 0x8, addend: 0x0, symName: __ZNSt3__119__debug_db_insert_cB7v160006INS_6vectorI12tSyntaxNode_NS_9allocatorIS2_EEEEEEvPT_, symObjAddr: 0x1D90, symBinAddr: 0x10001E7D8, symSize: 0x10 }
  - { offsetInCU: 0x8CFB, offset: 0x50DFD, size: 0x8, addend: 0x0, symName: __ZNSt3__119__allocate_at_leastB7v160006INS_9allocatorI12tSyntaxNode_EEEENS_19__allocation_resultINS_16allocator_traitsIT_E7pointerEEERS6_m, symObjAddr: 0x212C, symBinAddr: 0x10001EB54, symSize: 0x40 }
  - { offsetInCU: 0x8D3E, offset: 0x50E40, size: 0x8, addend: 0x0, symName: __ZNSt3__130__uninitialized_allocator_copyB7v160006INS_9allocatorI12tSyntaxNode_EES2_S2_LPv0EEEPT0_RT_PKS5_SA_S6_, symObjAddr: 0x2734, symBinAddr: 0x10001EDCC, symSize: 0x38 }
  - { offsetInCU: 0x8DB7, offset: 0x50EB9, size: 0x8, addend: 0x0, symName: __ZNSt3__14copyB7v160006IPK12tSyntaxNode_PS1_EET0_T_S6_S5_, symObjAddr: 0x27DC, symBinAddr: 0x10001EE74, symSize: 0x40 }
  - { offsetInCU: 0x8E11, offset: 0x50F13, size: 0x8, addend: 0x0, symName: __ZNSt3__16__copyB7v160006INS_17_ClassicAlgPolicyEPK12tSyntaxNode_S4_PS2_EENS_4pairIT0_T2_EES7_T1_S8_, symObjAddr: 0x281C, symBinAddr: 0x10001EEB4, symSize: 0x44 }
  - { offsetInCU: 0x8E7D, offset: 0x50F7F, size: 0x8, addend: 0x0, symName: __ZNSt3__123__dispatch_copy_or_moveB7v160006INS_17_ClassicAlgPolicyENS_11__copy_loopIS1_EENS_14__copy_trivialEPK12tSyntaxNode_S7_PS5_EENS_4pairIT2_T4_EESA_T3_SB_, symObjAddr: 0x2860, symBinAddr: 0x10001EEF8, symSize: 0x44 }
  - { offsetInCU: 0x8EFB, offset: 0x50FFD, size: 0x8, addend: 0x0, symName: __ZNSt3__121__unwrap_and_dispatchB7v160006INS_10__overloadINS_11__copy_loopINS_17_ClassicAlgPolicyEEENS_14__copy_trivialEEEPK12tSyntaxNode_S9_PS7_Li0EEENS_4pairIT0_T2_EESC_T1_SD_, symObjAddr: 0x28A4, symBinAddr: 0x10001EF3C, symSize: 0xB4 }
  - { offsetInCU: 0x8F89, offset: 0x5108B, size: 0x8, addend: 0x0, symName: __ZNSt3__114__unwrap_rangeB7v160006IPK12tSyntaxNode_S3_EENS_4pairIT0_S5_EET_S7_, symObjAddr: 0x2958, symBinAddr: 0x10001EFF0, symSize: 0x60 }
  - { offsetInCU: 0x915A, offset: 0x5125C, size: 0x8, addend: 0x0, symName: __ZNSt3__113__unwrap_iterB7v160006IP12tSyntaxNode_NS_18__unwrap_iter_implIS2_Lb1EEELi0EEEDTclsrT0_8__unwrapclsr3stdE7declvalIT_EEEES6_, symObjAddr: 0x2A00, symBinAddr: 0x10001F098, symSize: 0x24 }
  - { offsetInCU: 0x919E, offset: 0x512A0, size: 0x8, addend: 0x0, symName: __ZNSt3__19make_pairB7v160006IPK12tSyntaxNode_PS1_EENS_4pairINS_18__unwrap_ref_decayIT_E4typeENS6_IT0_E4typeEEEOS7_OSA_, symObjAddr: 0x2A24, symBinAddr: 0x10001F0BC, symSize: 0x38 }
  - { offsetInCU: 0x91ED, offset: 0x512EF, size: 0x8, addend: 0x0, symName: __ZNSt3__114__rewrap_rangeB7v160006IPK12tSyntaxNode_S3_EET_S4_T0_, symObjAddr: 0x2A5C, symBinAddr: 0x10001F0F4, symSize: 0x2C }
  - { offsetInCU: 0x9239, offset: 0x5133B, size: 0x8, addend: 0x0, symName: __ZNSt3__113__rewrap_iterB7v160006IP12tSyntaxNode_S2_NS_18__unwrap_iter_implIS2_Lb1EEEEET_S5_T0_, symObjAddr: 0x2A88, symBinAddr: 0x10001F120, symSize: 0x3C }
  - { offsetInCU: 0x928E, offset: 0x51390, size: 0x8, addend: 0x0, symName: __ZNSt3__19make_pairB7v160006IPK12tSyntaxNode_S3_EENS_4pairINS_18__unwrap_ref_decayIT_E4typeENS5_IT0_E4typeEEEOS6_OS9_, symObjAddr: 0x2AC4, symBinAddr: 0x10001F15C, symSize: 0x38 }
  - { offsetInCU: 0x92DD, offset: 0x513DF, size: 0x8, addend: 0x0, symName: __ZNSt3__113__unwrap_iterB7v160006IPK12tSyntaxNode_NS_18__unwrap_iter_implIS3_Lb1EEELi0EEEDTclsrT0_8__unwrapclsr3stdE7declvalIT_EEEES7_, symObjAddr: 0x2AFC, symBinAddr: 0x10001F194, symSize: 0x24 }
  - { offsetInCU: 0x9448, offset: 0x5154A, size: 0x8, addend: 0x0, symName: __ZNSt3__112__to_addressB7v160006IK12tSyntaxNode_EEPT_S4_, symObjAddr: 0x2BB4, symBinAddr: 0x10001F24C, symSize: 0x14 }
  - { offsetInCU: 0x947D, offset: 0x5157F, size: 0x8, addend: 0x0, symName: __ZNSt3__119__copy_trivial_implB7v160006IK12tSyntaxNode_S1_EENS_4pairIPT_PT0_EES5_S5_S7_, symObjAddr: 0x2BC8, symBinAddr: 0x10001F260, symSize: 0x84 }
  - { offsetInCU: 0x94E5, offset: 0x515E7, size: 0x8, addend: 0x0, symName: __ZNSt3__19make_pairB7v160006IRPK12tSyntaxNode_PS1_EENS_4pairINS_18__unwrap_ref_decayIT_E4typeENS7_IT0_E4typeEEEOS8_OSB_, symObjAddr: 0x2C4C, symBinAddr: 0x10001F2E4, symSize: 0x38 }
  - { offsetInCU: 0x9587, offset: 0x51689, size: 0x8, addend: 0x0, symName: __ZNSt3__113__rewrap_iterB7v160006IPK12tSyntaxNode_S3_NS_18__unwrap_iter_implIS3_Lb1EEEEET_S6_T0_, symObjAddr: 0x2D88, symBinAddr: 0x10001F420, symSize: 0x3C }
  - { offsetInCU: 0x95DC, offset: 0x516DE, size: 0x8, addend: 0x0, symName: __ZNSt3__130__uninitialized_allocator_copyB7v160006INS_9allocatorI12tSyntaxNode_EEPS2_S4_S4_EET2_RT_T0_T1_S5_, symObjAddr: 0x34A4, symBinAddr: 0x10001F7B0, symSize: 0xF4 }
  - { offsetInCU: 0x967A, offset: 0x5177C, size: 0x8, addend: 0x0, symName: __ZNSt3__122__make_exception_guardB7v160006INS_29_AllocatorDestroyRangeReverseINS_9allocatorI12tSyntaxNode_EEPS3_EEEENS_28__exception_guard_exceptionsIT_EES8_, symObjAddr: 0x3598, symBinAddr: 0x10001F8A4, symSize: 0x4C }
  - { offsetInCU: 0x96B0, offset: 0x517B2, size: 0x8, addend: 0x0, symName: __ZNSt3__119__allocator_destroyB7v160006INS_9allocatorI12tSyntaxNode_EENS_16reverse_iteratorIPS2_EES6_EEvRT_T0_T1_, symObjAddr: 0x3820, symBinAddr: 0x10001FB2C, symSize: 0x70 }
  - { offsetInCU: 0x9713, offset: 0x51815, size: 0x8, addend: 0x0, symName: __ZNSt3__1neB7v160006IP12tSyntaxNode_S2_EEbRKNS_16reverse_iteratorIT_EERKNS3_IT0_EE, symObjAddr: 0x38C4, symBinAddr: 0x10001FBD0, symSize: 0x48 }
  - { offsetInCU: 0x975F, offset: 0x51861, size: 0x8, addend: 0x0, symName: __ZNSt3__112__to_addressB7v160006INS_16reverse_iteratorIP12tSyntaxNode_EEvEENS_5decayIDTclsr19__to_address_helperIT_EE6__callclsr3stdE7declvalIRKS6_EEEEE4typeES8_, symObjAddr: 0x390C, symBinAddr: 0x10001FC18, symSize: 0x24 }
  - { offsetInCU: 0x97BE, offset: 0x518C0, size: 0x8, addend: 0x0, symName: __ZNSt3__122__make_exception_guardB7v160006INS_6vectorI7tSyntaxNS_9allocatorIS2_EEE16__destroy_vectorEEENS_28__exception_guard_exceptionsIT_EES8_, symObjAddr: 0x3B74, symBinAddr: 0x10001FE80, symSize: 0x40 }
  - { offsetInCU: 0x97F3, offset: 0x518F5, size: 0x8, addend: 0x0, symName: __ZNSt3__119__debug_db_insert_cB7v160006INS_6vectorI7tSyntaxNS_9allocatorIS2_EEEEEEvPT_, symObjAddr: 0x3BE8, symBinAddr: 0x10001FEC0, symSize: 0x10 }
  - { offsetInCU: 0x9824, offset: 0x51926, size: 0x8, addend: 0x0, symName: __ZNSt3__119__allocate_at_leastB7v160006INS_9allocatorI7tSyntaxEEEENS_19__allocation_resultINS_16allocator_traitsIT_E7pointerEEERS6_m, symObjAddr: 0x3F84, symBinAddr: 0x10002023C, symSize: 0x40 }
  - { offsetInCU: 0x9867, offset: 0x51969, size: 0x8, addend: 0x0, symName: __ZNSt3__130__uninitialized_allocator_copyB7v160006INS_9allocatorI7tSyntaxEEPKS2_S5_PS2_EET2_RT_T0_T1_S7_, symObjAddr: 0x4358, symBinAddr: 0x1000204B4, symSize: 0xF4 }
  - { offsetInCU: 0x9905, offset: 0x51A07, size: 0x8, addend: 0x0, symName: __ZNSt3__122__make_exception_guardB7v160006INS_29_AllocatorDestroyRangeReverseINS_9allocatorI7tSyntaxEEPS3_EEEENS_28__exception_guard_exceptionsIT_EES8_, symObjAddr: 0x44BC, symBinAddr: 0x100020618, symSize: 0x4C }
  - { offsetInCU: 0x993B, offset: 0x51A3D, size: 0x8, addend: 0x0, symName: __ZNSt3__119__allocator_destroyB7v160006INS_9allocatorI7tSyntaxEENS_16reverse_iteratorIPS2_EES6_EEvRT_T0_T1_, symObjAddr: 0x47C8, symBinAddr: 0x100020924, symSize: 0x70 }
  - { offsetInCU: 0x999E, offset: 0x51AA0, size: 0x8, addend: 0x0, symName: __ZNSt3__1neB7v160006IP7tSyntaxS2_EEbRKNS_16reverse_iteratorIT_EERKNS3_IT0_EE, symObjAddr: 0x486C, symBinAddr: 0x1000209C8, symSize: 0x48 }
  - { offsetInCU: 0x99EA, offset: 0x51AEC, size: 0x8, addend: 0x0, symName: __ZNSt3__112__to_addressB7v160006INS_16reverse_iteratorIP7tSyntaxEEvEENS_5decayIDTclsr19__to_address_helperIT_EE6__callclsr3stdE7declvalIRKS6_EEEEE4typeES8_, symObjAddr: 0x48E0, symBinAddr: 0x100020A10, symSize: 0x24 }
  - { offsetInCU: 0x9A49, offset: 0x51B4B, size: 0x8, addend: 0x0, symName: __ZNSt3__142__uninitialized_allocator_move_if_noexceptB7v160006INS_9allocatorI7tSyntaxEENS_16reverse_iteratorIPS2_EES6_S6_EET2_RT_T0_T1_S7_, symObjAddr: 0x53F4, symBinAddr: 0x1000211AC, symSize: 0x11C }
  - { offsetInCU: 0x9AE9, offset: 0x51BEB, size: 0x8, addend: 0x0, symName: __ZNSt3__14swapB7v160006IP7tSyntaxEENS_9enable_ifIXaasr21is_move_constructibleIT_EE5valuesr18is_move_assignableIS4_EE5valueEvE4typeERS4_S7_, symObjAddr: 0x5510, symBinAddr: 0x1000212C8, symSize: 0x3C }
  - { offsetInCU: 0x9B3A, offset: 0x51C3C, size: 0x8, addend: 0x0, symName: __ZNSt3__125__debug_db_invalidate_allB7v160006INS_6vectorI7tSyntaxNS_9allocatorIS2_EEEEEEvPT_, symObjAddr: 0x554C, symBinAddr: 0x100021304, symSize: 0x10 }
  - { offsetInCU: 0x9B6B, offset: 0x51C6D, size: 0x8, addend: 0x0, symName: __ZNSt3__122__make_exception_guardB7v160006INS_29_AllocatorDestroyRangeReverseINS_9allocatorI7tSyntaxEENS_16reverse_iteratorIPS3_EEEEEENS_28__exception_guard_exceptionsIT_EESA_, symObjAddr: 0x555C, symBinAddr: 0x100021314, symSize: 0x4C }
  - { offsetInCU: 0x9BA1, offset: 0x51CA3, size: 0x8, addend: 0x0, symName: __ZNSt3__115__debug_db_swapB7v160006INS_6vectorI12tSyntaxNode_NS_9allocatorIS2_EEEEEEvPT_S7_, symObjAddr: 0x58C0, symBinAddr: 0x100021678, symSize: 0x14 }
  - { offsetInCU: 0x9BE0, offset: 0x51CE2, size: 0x8, addend: 0x0, symName: __ZNSt3__119__allocator_destroyB7v160006INS_9allocatorI7tSyntaxEENS_16reverse_iteratorINS4_IPS2_EEEES7_EEvRT_T0_T1_, symObjAddr: 0x59D8, symBinAddr: 0x100021790, symSize: 0x70 }
  - { offsetInCU: 0x9C45, offset: 0x51D47, size: 0x8, addend: 0x0, symName: __ZNSt3__1neB7v160006INS_16reverse_iteratorIP7tSyntaxEES4_EEbRKNS1_IT_EERKNS1_IT0_EE, symObjAddr: 0x5A84, symBinAddr: 0x10002183C, symSize: 0x60 }
  - { offsetInCU: 0x9C91, offset: 0x51D93, size: 0x8, addend: 0x0, symName: __ZNSt3__112__to_addressB7v160006INS_16reverse_iteratorINS1_IP7tSyntaxEEEEvEENS_5decayIDTclsr19__to_address_helperIT_EE6__callclsr3stdE7declvalIRKS7_EEEEE4typeES9_, symObjAddr: 0x5AE4, symBinAddr: 0x10002189C, symSize: 0x24 }
  - { offsetInCU: 0x9D14, offset: 0x51E16, size: 0x8, addend: 0x0, symName: __ZNSt3__1eqB7v160006ERKNS_21__tree_const_iteratorINS_12__value_typeIiNS_12basic_stringIcNS_11char_traitsIcEENS_9allocatorIcEEEEEEPNS_11__tree_nodeIS8_PvEElEESF_, symObjAddr: 0x6FF8, symBinAddr: 0x100022CE0, symSize: 0x30 }
  - { offsetInCU: 0x9D52, offset: 0x51E54, size: 0x8, addend: 0x0, symName: __ZNSt3__14nextB7v160006INS_21__tree_const_iteratorINS_12__value_typeIiNS_12basic_stringIcNS_11char_traitsIcEENS_9allocatorIcEEEEEEPNS_11__tree_nodeIS9_PvEElEEEENS_9enable_ifIXsr25__is_cpp17_input_iteratorIT_EE5valueESG_E4typeESG_NS_15iterator_traitsISG_E15difference_typeE, symObjAddr: 0x7368, symBinAddr: 0x100023050, symSize: 0x50 }
  - { offsetInCU: 0x9D95, offset: 0x51E97, size: 0x8, addend: 0x0, symName: __ZNSt3__116__tree_prev_iterB7v160006IPNS_16__tree_node_baseIPvEEPNS_15__tree_end_nodeIS4_EEEET_T0_, symObjAddr: 0x74C4, symBinAddr: 0x1000231AC, symSize: 0xA4 }
  - { offsetInCU: 0x9DE1, offset: 0x51EE3, size: 0x8, addend: 0x0, symName: __ZNSt3__110__tree_maxB7v160006IPNS_16__tree_node_baseIPvEEEET_S5_, symObjAddr: 0x7568, symBinAddr: 0x100023250, symSize: 0x40 }
  - { offsetInCU: 0x9E16, offset: 0x51F18, size: 0x8, addend: 0x0, symName: __ZNSt3__121__convert_to_integralB7v160006El, symObjAddr: 0x7688, symBinAddr: 0x10002332C, symSize: 0x14 }
  - { offsetInCU: 0x9E42, offset: 0x51F44, size: 0x8, addend: 0x0, symName: __ZNSt3__19__advanceB7v160006INS_21__tree_const_iteratorINS_12__value_typeIiNS_12basic_stringIcNS_11char_traitsIcEENS_9allocatorIcEEEEEEPNS_11__tree_nodeIS9_PvEElEEEEvRT_NS_15iterator_traitsISF_E15difference_typeENS_26bidirectional_iterator_tagE, symObjAddr: 0x769C, symBinAddr: 0x100023340, symSize: 0xA4 }
  - { offsetInCU: 0x9EA9, offset: 0x51FAB, size: 0x8, addend: 0x0, symName: __ZNSt3__116forward_as_tupleB7v160006IJRKiEEENS_5tupleIJDpOT_EEES6_, symObjAddr: 0x8654, symBinAddr: 0x100023DE4, symSize: 0x2C }
  - { offsetInCU: 0x9EE2, offset: 0x51FE4, size: 0x8, addend: 0x0, symName: __ZNSt3__13getB7v160006ILm0EJRKiEEERNS_13tuple_elementIXT_ENS_5tupleIJDpT0_EEEE4typeERS7_, symObjAddr: 0x8924, symBinAddr: 0x1000240B0, symSize: 0x24 }
  - { offsetInCU: 0xA21B, offset: 0x5231D, size: 0x8, addend: 0x0, symName: _AssignSyntax, symObjAddr: 0x625D8, symBinAddr: 0x100035580, symSize: 0x0 }
  - { offsetInCU: 0xA330, offset: 0x52432, size: 0x8, addend: 0x0, symName: _LETSyntax, symObjAddr: 0x625F0, symBinAddr: 0x100035598, symSize: 0x0 }
  - { offsetInCU: 0xA346, offset: 0x52448, size: 0x8, addend: 0x0, symName: _IFSyntax, symObjAddr: 0x62608, symBinAddr: 0x1000355B0, symSize: 0x0 }
  - { offsetInCU: 0xA35C, offset: 0x5245E, size: 0x8, addend: 0x0, symName: _LISTSyntax, symObjAddr: 0x62620, symBinAddr: 0x1000355C8, symSize: 0x0 }
  - { offsetInCU: 0xA372, offset: 0x52474, size: 0x8, addend: 0x0, symName: _LISTSyntax2, symObjAddr: 0x62638, symBinAddr: 0x1000355E0, symSize: 0x0 }
  - { offsetInCU: 0xA388, offset: 0x5248A, size: 0x8, addend: 0x0, symName: _LISTSyntax3, symObjAddr: 0x62650, symBinAddr: 0x1000355F8, symSize: 0x0 }
  - { offsetInCU: 0xA39E, offset: 0x524A0, size: 0x8, addend: 0x0, symName: _EXITSyntax, symObjAddr: 0x62668, symBinAddr: 0x100035610, symSize: 0x0 }
  - { offsetInCU: 0xA3B4, offset: 0x524B6, size: 0x8, addend: 0x0, symName: _OptionSyntax, symObjAddr: 0x62680, symBinAddr: 0x100035628, symSize: 0x0 }
  - { offsetInCU: 0xA3CA, offset: 0x524CC, size: 0x8, addend: 0x0, symName: _REMSyntax, symObjAddr: 0x62698, symBinAddr: 0x100035640, symSize: 0x0 }
  - { offsetInCU: 0xA3E0, offset: 0x524E2, size: 0x8, addend: 0x0, symName: _EVALSyntax, symObjAddr: 0x626B0, symBinAddr: 0x100035658, symSize: 0x0 }
  - { offsetInCU: 0xA3F6, offset: 0x524F8, size: 0x8, addend: 0x0, symName: _PRINTSyntax, symObjAddr: 0x626C8, symBinAddr: 0x100035670, symSize: 0x0 }
  - { offsetInCU: 0xA40C, offset: 0x5250E, size: 0x8, addend: 0x0, symName: _tOPTIONSyntax, symObjAddr: 0xC7B8, symBinAddr: 0x100034120, symSize: 0x0 }
  - { offsetInCU: 0xA439, offset: 0x5253B, size: 0x8, addend: 0x0, symName: _tFORSyntax, symObjAddr: 0xC7D8, symBinAddr: 0x100034140, symSize: 0x0 }
  - { offsetInCU: 0xA45B, offset: 0x5255D, size: 0x8, addend: 0x0, symName: _tFORSyntax2, symObjAddr: 0xC810, symBinAddr: 0x100034178, symSize: 0x0 }
  - { offsetInCU: 0xA47D, offset: 0x5257F, size: 0x8, addend: 0x0, symName: _tNEXTSyntax, symObjAddr: 0xC858, symBinAddr: 0x1000341C0, symSize: 0x0 }
  - { offsetInCU: 0xA4A0, offset: 0x525A2, size: 0x8, addend: 0x0, symName: _tDIMSyntax, symObjAddr: 0xC870, symBinAddr: 0x1000341D8, symSize: 0x0 }
  - { offsetInCU: 0xA4B7, offset: 0x525B9, size: 0x8, addend: 0x0, symName: _tAssignSyntax, symObjAddr: 0xC888, symBinAddr: 0x1000341F0, symSize: 0x0 }
  - { offsetInCU: 0xA4CE, offset: 0x525D0, size: 0x8, addend: 0x0, symName: _tREMSyntax2, symObjAddr: 0xC8A8, symBinAddr: 0x100034210, symSize: 0x0 }
  - { offsetInCU: 0xA4F1, offset: 0x525F3, size: 0x8, addend: 0x0, symName: _tCONTINUESyntax, symObjAddr: 0xC8B8, symBinAddr: 0x100034220, symSize: 0x0 }
  - { offsetInCU: 0xA508, offset: 0x5260A, size: 0x8, addend: 0x0, symName: _tBEEPSyntax, symObjAddr: 0xC8C8, symBinAddr: 0x100034230, symSize: 0x0 }
  - { offsetInCU: 0xA51F, offset: 0x52621, size: 0x8, addend: 0x0, symName: _tCLSSyntax, symObjAddr: 0xC8D8, symBinAddr: 0x100034240, symSize: 0x0 }
  - { offsetInCU: 0xA536, offset: 0x52638, size: 0x8, addend: 0x0, symName: _tIFSyntax, symObjAddr: 0xC8E8, symBinAddr: 0x100034250, symSize: 0x0 }
  - { offsetInCU: 0xA54D, offset: 0x5264F, size: 0x8, addend: 0x0, symName: _tPRINTSyntax, symObjAddr: 0xC908, symBinAddr: 0x100034270, symSize: 0x0 }
  - { offsetInCU: 0xA564, offset: 0x52666, size: 0x8, addend: 0x0, symName: _tSAVESyntax, symObjAddr: 0xC920, symBinAddr: 0x100034288, symSize: 0x0 }
  - { offsetInCU: 0xA57B, offset: 0x5267D, size: 0x8, addend: 0x0, symName: _tLOADSyntax, symObjAddr: 0xC938, symBinAddr: 0x1000342A0, symSize: 0x0 }
  - { offsetInCU: 0xA592, offset: 0x52694, size: 0x8, addend: 0x0, symName: _tINPUTSyntax, symObjAddr: 0xC950, symBinAddr: 0x1000342B8, symSize: 0x0 }
  - { offsetInCU: 0xA5A9, offset: 0x526AB, size: 0x8, addend: 0x0, symName: _tLISTSyntax, symObjAddr: 0xC968, symBinAddr: 0x1000342D0, symSize: 0x0 }
  - { offsetInCU: 0xA5C0, offset: 0x526C2, size: 0x8, addend: 0x0, symName: _tLISTSyntax2, symObjAddr: 0xC978, symBinAddr: 0x1000342E0, symSize: 0x0 }
  - { offsetInCU: 0xA5D7, offset: 0x526D9, size: 0x8, addend: 0x0, symName: _tLISTSyntax3, symObjAddr: 0xC990, symBinAddr: 0x1000342F8, symSize: 0x0 }
  - { offsetInCU: 0xA5FA, offset: 0x526FC, size: 0x8, addend: 0x0, symName: _tNODELISTyntax, symObjAddr: 0xC9B8, symBinAddr: 0x100034320, symSize: 0x0 }
  - { offsetInCU: 0xA611, offset: 0x52713, size: 0x8, addend: 0x0, symName: _tGOTOSyntax, symObjAddr: 0xC9D0, symBinAddr: 0x100034338, symSize: 0x0 }
  - { offsetInCU: 0xA628, offset: 0x5272A, size: 0x8, addend: 0x0, symName: _tGOSUBSyntax, symObjAddr: 0xC9E8, symBinAddr: 0x100034350, symSize: 0x0 }
  - { offsetInCU: 0xA63F, offset: 0x52741, size: 0x8, addend: 0x0, symName: _tRETURNSyntax, symObjAddr: 0xCA00, symBinAddr: 0x100034368, symSize: 0x0 }
  - { offsetInCU: 0xA656, offset: 0x52758, size: 0x8, addend: 0x0, symName: _tSTOPSyntax, symObjAddr: 0xCA10, symBinAddr: 0x100034378, symSize: 0x0 }
  - { offsetInCU: 0xA66D, offset: 0x5276F, size: 0x8, addend: 0x0, symName: _tRUNSyntax, symObjAddr: 0xCA20, symBinAddr: 0x100034388, symSize: 0x0 }
  - { offsetInCU: 0xA684, offset: 0x52786, size: 0x8, addend: 0x0, symName: _tEVALSyntax, symObjAddr: 0xCA30, symBinAddr: 0x100034398, symSize: 0x0 }
  - { offsetInCU: 0xA69B, offset: 0x5279D, size: 0x8, addend: 0x0, symName: _tEXITSyntax, symObjAddr: 0xCA48, symBinAddr: 0x1000343B0, symSize: 0x0 }
  - { offsetInCU: 0xA6B2, offset: 0x527B4, size: 0x8, addend: 0x0, symName: _tNEWSyntax, symObjAddr: 0xCA58, symBinAddr: 0x1000343C0, symSize: 0x0 }
  - { offsetInCU: 0xA6C9, offset: 0x527CB, size: 0x8, addend: 0x0, symName: _tDEBUGSyntax, symObjAddr: 0xCA68, symBinAddr: 0x1000343D0, symSize: 0x0 }
  - { offsetInCU: 0xA6E0, offset: 0x527E2, size: 0x8, addend: 0x0, symName: _tRANDOMIZESyntax, symObjAddr: 0xCA78, symBinAddr: 0x1000343E0, symSize: 0x0 }
  - { offsetInCU: 0xA6F7, offset: 0x527F9, size: 0x8, addend: 0x0, symName: _tRANDOMIZESyntax2, symObjAddr: 0xCA88, symBinAddr: 0x1000343F0, symSize: 0x0 }
  - { offsetInCU: 0xA70E, offset: 0x52810, size: 0x8, addend: 0x0, symName: _tTMPCMDSyntax, symObjAddr: 0xCAA0, symBinAddr: 0x100034408, symSize: 0x0 }
  - { offsetInCU: 0xA725, offset: 0x52827, size: 0x8, addend: 0x0, symName: _tEDITSyntax, symObjAddr: 0xCAB0, symBinAddr: 0x100034418, symSize: 0x0 }
  - { offsetInCU: 0xA73C, offset: 0x5283E, size: 0x8, addend: 0x0, symName: _tEDITORSyntax, symObjAddr: 0xCAC8, symBinAddr: 0x100034430, symSize: 0x0 }
  - { offsetInCU: 0xA753, offset: 0x52855, size: 0x8, addend: 0x0, symName: _tREADSyntax, symObjAddr: 0xCAD8, symBinAddr: 0x100034440, symSize: 0x0 }
  - { offsetInCU: 0xA76A, offset: 0x5286C, size: 0x8, addend: 0x0, symName: _tDATASyntax, symObjAddr: 0xCAF0, symBinAddr: 0x100034458, symSize: 0x0 }
  - { offsetInCU: 0xA781, offset: 0x52883, size: 0x8, addend: 0x0, symName: _tDEFSyntax, symObjAddr: 0xCB08, symBinAddr: 0x100034470, symSize: 0x0 }
  - { offsetInCU: 0xA798, offset: 0x5289A, size: 0x8, addend: 0x0, symName: _tDEFSyntax2, symObjAddr: 0xCB30, symBinAddr: 0x100034498, symSize: 0x0 }
  - { offsetInCU: 0xA7BB, offset: 0x528BD, size: 0x8, addend: 0x0, symName: _tGrammar, symObjAddr: 0x626E0, symBinAddr: 0x100035688, symSize: 0x0 }
  - { offsetInCU: 0xA998, offset: 0x52A9A, size: 0x8, addend: 0x0, symName: _SyntaxNodeStrings, symObjAddr: 0x626F8, symBinAddr: 0x1000356A0, symSize: 0x0 }
  - { offsetInCU: 0xAE23, offset: 0x52F25, size: 0x8, addend: 0x0, symName: __ZNSt3__16vectorI7tSyntaxNS_9allocatorIS1_EEE26__swap_out_circular_bufferERNS_14__split_bufferIS1_RS3_EE, symObjAddr: 0x5004, symBinAddr: 0x100020E3C, symSize: 0x118 }
  - { offsetInCU: 0xB012, offset: 0x53114, size: 0x8, addend: 0x0, symName: __Z7toupperi, symObjAddr: 0x710, symBinAddr: 0x10001DA1C, symSize: 0x24 }
  - { offsetInCU: 0xCC71, offset: 0x54D73, size: 0x8, addend: 0x0, symName: __ZN10tTokenTypeD1Ev, symObjAddr: 0x34, symBinAddr: 0x10001D364, symSize: 0x2C }
  - { offsetInCU: 0xCC9B, offset: 0x54D9D, size: 0x8, addend: 0x0, symName: __Z14NumberOfTokensv, symObjAddr: 0x60, symBinAddr: 0x10001D390, symSize: 0x8 }
  - { offsetInCU: 0xCCB8, offset: 0x54DBA, size: 0x8, addend: 0x0, symName: __Z18GetTokenTypeFromIDi, symObjAddr: 0x68, symBinAddr: 0x10001D398, symSize: 0xB8 }
  - { offsetInCU: 0xCD01, offset: 0x54E03, size: 0x8, addend: 0x0, symName: __Z18GetTokenTextFromIDi, symObjAddr: 0x120, symBinAddr: 0x10001D450, symSize: 0x130 }
  - { offsetInCU: 0xCD50, offset: 0x54E52, size: 0x8, addend: 0x0, symName: __Z11IsStringIntPKc, symObjAddr: 0x250, symBinAddr: 0x10001D580, symSize: 0xC8 }
  - { offsetInCU: 0xCD7C, offset: 0x54E7E, size: 0x8, addend: 0x0, symName: __Z13IsStringFloatPKc, symObjAddr: 0x318, symBinAddr: 0x10001D648, symSize: 0xE4 }
  - { offsetInCU: 0xCDA8, offset: 0x54EAA, size: 0x8, addend: 0x0, symName: __Z19GetTokenInfoFromTxtRNSt3__112basic_stringIcNS_11char_traitsIcEENS_9allocatorIcEEEEPiS7_, symObjAddr: 0x3FC, symBinAddr: 0x10001D72C, symSize: 0x1B8 }
  - { offsetInCU: 0xCE0E, offset: 0x54F10, size: 0x8, addend: 0x0, symName: __ZNSt3__112basic_stringIcNS_11char_traitsIcEENS_9allocatorIcEEE5beginB7v160006Ev, symObjAddr: 0x670, symBinAddr: 0x10001D97C, symSize: 0x4C }
  - { offsetInCU: 0xCE32, offset: 0x54F34, size: 0x8, addend: 0x0, symName: __ZNSt3__112basic_stringIcNS_11char_traitsIcEENS_9allocatorIcEEE3endB7v160006Ev, symObjAddr: 0x6BC, symBinAddr: 0x10001D9C8, symSize: 0x54 }
  - { offsetInCU: 0xCE56, offset: 0x54F58, size: 0x8, addend: 0x0, symName: __ZNSt3__16vectorI12tSyntaxNode_NS_9allocatorIS1_EEEC1B7v160006ESt16initializer_listIS1_E, symObjAddr: 0x87C, symBinAddr: 0x10001DB88, symSize: 0x3C }
  - { offsetInCU: 0xCE8F, offset: 0x54F91, size: 0x8, addend: 0x0, symName: __ZNSt3__16vectorI12tSyntaxNode_NS_9allocatorIS1_EEEC1ERKS4_, symObjAddr: 0x8E4, symBinAddr: 0x10001DBC4, symSize: 0x34 }
  - { offsetInCU: 0xCECD, offset: 0x54FCF, size: 0x8, addend: 0x0, symName: __ZNSt3__16vectorI7tSyntaxNS_9allocatorIS1_EEEC1B7v160006ESt16initializer_listIS1_E, symObjAddr: 0x944, symBinAddr: 0x10001DBF8, symSize: 0x3C }
  - { offsetInCU: 0xCF05, offset: 0x55007, size: 0x8, addend: 0x0, symName: __Z14GetSyntaxRulesi, symObjAddr: 0x9AC, symBinAddr: 0x10001DC34, symSize: 0x124 }
  - { offsetInCU: 0xCF59, offset: 0x5505B, size: 0x8, addend: 0x0, symName: __ZNSt3__16vectorI7tSyntaxNS_9allocatorIS1_EEEC1B7v160006Ev, symObjAddr: 0xAD0, symBinAddr: 0x10001DD58, symSize: 0x2C }
  - { offsetInCU: 0xCF81, offset: 0x55083, size: 0x8, addend: 0x0, symName: __ZNSt3__16vectorI7tSyntaxNS_9allocatorIS1_EEE9push_backB7v160006ERKS1_, symObjAddr: 0xB48, symBinAddr: 0x10001DD84, symSize: 0x6C }
  - { offsetInCU: 0xCFD2, offset: 0x550D4, size: 0x8, addend: 0x0, symName: __ZNSt3__14pairIKiNS_12basic_stringIcNS_11char_traitsIcEENS_9allocatorIcEEEEEC1B7v160006IiRA6_KcLPv0EEEOT_OT0_, symObjAddr: 0xBB4, symBinAddr: 0x10001DDF0, symSize: 0x3C }
  - { offsetInCU: 0xD045, offset: 0x55147, size: 0x8, addend: 0x0, symName: __ZNSt3__14pairIKiNS_12basic_stringIcNS_11char_traitsIcEENS_9allocatorIcEEEEEC1B7v160006IiRA8_KcLPv0EEEOT_OT0_, symObjAddr: 0xBF0, symBinAddr: 0x10001DE2C, symSize: 0x3C }
  - { offsetInCU: 0xD0B8, offset: 0x551BA, size: 0x8, addend: 0x0, symName: __ZNSt3__14pairIKiNS_12basic_stringIcNS_11char_traitsIcEENS_9allocatorIcEEEEEC1B7v160006IiRA13_KcLPv0EEEOT_OT0_, symObjAddr: 0xC2C, symBinAddr: 0x10001DE68, symSize: 0x3C }
  - { offsetInCU: 0xD12B, offset: 0x5522D, size: 0x8, addend: 0x0, symName: __ZNSt3__14pairIKiNS_12basic_stringIcNS_11char_traitsIcEENS_9allocatorIcEEEEEC1B7v160006IiRA9_KcLPv0EEEOT_OT0_, symObjAddr: 0xC68, symBinAddr: 0x10001DEA4, symSize: 0x3C }
  - { offsetInCU: 0xD19E, offset: 0x552A0, size: 0x8, addend: 0x0, symName: __ZNSt3__14pairIKiNS_12basic_stringIcNS_11char_traitsIcEENS_9allocatorIcEEEEEC1B7v160006IiRA11_KcLPv0EEEOT_OT0_, symObjAddr: 0xCA4, symBinAddr: 0x10001DEE0, symSize: 0x3C }
  - { offsetInCU: 0xD211, offset: 0x55313, size: 0x8, addend: 0x0, symName: __ZNSt3__14pairIKiNS_12basic_stringIcNS_11char_traitsIcEENS_9allocatorIcEEEEEC1B7v160006IiRA7_KcLPv0EEEOT_OT0_, symObjAddr: 0xCE0, symBinAddr: 0x10001DF1C, symSize: 0x3C }
  - { offsetInCU: 0xD284, offset: 0x55386, size: 0x8, addend: 0x0, symName: __ZNSt3__14pairIKiNS_12basic_stringIcNS_11char_traitsIcEENS_9allocatorIcEEEEEC1B7v160006IiRA10_KcLPv0EEEOT_OT0_, symObjAddr: 0xD1C, symBinAddr: 0x10001DF58, symSize: 0x3C }
  - { offsetInCU: 0xD2F7, offset: 0x553F9, size: 0x8, addend: 0x0, symName: __ZNSt3__14pairIKiNS_12basic_stringIcNS_11char_traitsIcEENS_9allocatorIcEEEEEC1B7v160006IiRA15_KcLPv0EEEOT_OT0_, symObjAddr: 0xD58, symBinAddr: 0x10001DF94, symSize: 0x3C }
  - { offsetInCU: 0xD36A, offset: 0x5546C, size: 0x8, addend: 0x0, symName: __ZNSt3__14pairIKiNS_12basic_stringIcNS_11char_traitsIcEENS_9allocatorIcEEEEEC1B7v160006IiRA16_KcLPv0EEEOT_OT0_, symObjAddr: 0xD94, symBinAddr: 0x10001DFD0, symSize: 0x3C }
  - { offsetInCU: 0xD3DD, offset: 0x554DF, size: 0x8, addend: 0x0, symName: __ZNSt3__14pairIKiNS_12basic_stringIcNS_11char_traitsIcEENS_9allocatorIcEEEEEC1B7v160006IiRA18_KcLPv0EEEOT_OT0_, symObjAddr: 0xDD0, symBinAddr: 0x10001E00C, symSize: 0x3C }
  - { offsetInCU: 0xD450, offset: 0x55552, size: 0x8, addend: 0x0, symName: __ZNSt3__14pairIKiNS_12basic_stringIcNS_11char_traitsIcEENS_9allocatorIcEEEEEC1B7v160006IiRA17_KcLPv0EEEOT_OT0_, symObjAddr: 0xE0C, symBinAddr: 0x10001E048, symSize: 0x3C }
  - { offsetInCU: 0xD4C3, offset: 0x555C5, size: 0x8, addend: 0x0, symName: __ZNSt3__14pairIKiNS_12basic_stringIcNS_11char_traitsIcEENS_9allocatorIcEEEEEC1B7v160006IiRA14_KcLPv0EEEOT_OT0_, symObjAddr: 0xE48, symBinAddr: 0x10001E084, symSize: 0x3C }
  - { offsetInCU: 0xD520, offset: 0x55622, size: 0x8, addend: 0x0, symName: __ZNSt3__14pairIKiNS_12basic_stringIcNS_11char_traitsIcEENS_9allocatorIcEEEEED1Ev, symObjAddr: 0xE84, symBinAddr: 0x10001E0C0, symSize: 0x2C }
  - { offsetInCU: 0xD54A, offset: 0x5564C, size: 0x8, addend: 0x0, symName: __ZNSt3__13mapIiNS_12basic_stringIcNS_11char_traitsIcEENS_9allocatorIcEEEENS_4lessIiEENS4_INS_4pairIKiS6_EEEEEC1B7v160006ESt16initializer_listISB_ERKS8_, symObjAddr: 0xEB0, symBinAddr: 0x10001E0EC, symSize: 0x44 }
  - { offsetInCU: 0xD591, offset: 0x55693, size: 0x8, addend: 0x0, symName: __ZNSt3__13mapIiNS_12basic_stringIcNS_11char_traitsIcEENS_9allocatorIcEEEENS_4lessIiEENS4_INS_4pairIKiS6_EEEEED1B7v160006Ev, symObjAddr: 0xEF4, symBinAddr: 0x10001E130, symSize: 0x2C }
  - { offsetInCU: 0xD5B9, offset: 0x556BB, size: 0x8, addend: 0x0, symName: __Z19GetSyntaxNodeStringi, symObjAddr: 0xF20, symBinAddr: 0x10001E15C, symSize: 0x40 }
  - { offsetInCU: 0xD5E7, offset: 0x556E9, size: 0x8, addend: 0x0, symName: __ZNSt3__13mapIiNS_12basic_stringIcNS_11char_traitsIcEENS_9allocatorIcEEEENS_4lessIiEENS4_INS_4pairIKiS6_EEEEEixERSA_, symObjAddr: 0xF60, symBinAddr: 0x10001E19C, symSize: 0x80 }
  - { offsetInCU: 0xD61C, offset: 0x5571E, size: 0x8, addend: 0x0, symName: __Z20StringFromSyntaxRuleNSt3__16vectorI12tSyntaxNode_NS_9allocatorIS1_EEEE, symObjAddr: 0xFE0, symBinAddr: 0x10001E21C, symSize: 0x260 }
  - { offsetInCU: 0xD67A, offset: 0x5577C, size: 0x8, addend: 0x0, symName: __ZN10tTokenTypeD2Ev, symObjAddr: 0x1460, symBinAddr: 0x10001E47C, symSize: 0x2C }
  - { offsetInCU: 0xD6A4, offset: 0x557A6, size: 0x8, addend: 0x0, symName: __ZNSt3__14pairIKiNS_12basic_stringIcNS_11char_traitsIcEENS_9allocatorIcEEEEED2Ev, symObjAddr: 0x14BC, symBinAddr: 0x10001E4A8, symSize: 0x30 }
  - { offsetInCU: 0xD6D3, offset: 0x557D5, size: 0x8, addend: 0x0, symName: __ZNSt3__112basic_stringIcNS_11char_traitsIcEENS_9allocatorIcEEE15__make_iteratorB7v160006EPc, symObjAddr: 0x181C, symBinAddr: 0x10001E4D8, symSize: 0x34 }
  - { offsetInCU: 0xD706, offset: 0x55808, size: 0x8, addend: 0x0, symName: __ZNSt3__111__wrap_iterIPcEC1B7v160006EPKvS1_, symObjAddr: 0x18A4, symBinAddr: 0x10001E50C, symSize: 0x3C }
  - { offsetInCU: 0xD74B, offset: 0x5584D, size: 0x8, addend: 0x0, symName: __ZNSt3__111__wrap_iterIPcEC2B7v160006EPKvS1_, symObjAddr: 0x18E0, symBinAddr: 0x10001E548, symSize: 0x24 }
  - { offsetInCU: 0xD790, offset: 0x55892, size: 0x8, addend: 0x0, symName: __ZNKSt3__111__wrap_iterIPcEdeB7v160006Ev, symObjAddr: 0x1A84, symBinAddr: 0x10001E5A0, symSize: 0x18 }
  - { offsetInCU: 0xD7B4, offset: 0x558B6, size: 0x8, addend: 0x0, symName: __ZNSt3__111__wrap_iterIPcEppB7v160006Ev, symObjAddr: 0x1A9C, symBinAddr: 0x10001E5B8, symSize: 0x20 }
  - { offsetInCU: 0xD7D8, offset: 0x558DA, size: 0x8, addend: 0x0, symName: __ZNKSt3__111__wrap_iterIPcE4baseB7v160006Ev, symObjAddr: 0x1B04, symBinAddr: 0x10001E620, symSize: 0x18 }
  - { offsetInCU: 0xD7FC, offset: 0x558FE, size: 0x8, addend: 0x0, symName: __ZNSt3__16vectorI12tSyntaxNode_NS_9allocatorIS1_EEEC2B7v160006ESt16initializer_listIS1_E, symObjAddr: 0x1BBC, symBinAddr: 0x10001E638, symSize: 0x124 }
  - { offsetInCU: 0xD850, offset: 0x55952, size: 0x8, addend: 0x0, symName: __ZNSt3__117__compressed_pairIP12tSyntaxNode_NS_9allocatorIS1_EEEC1B7v160006IDnNS_18__default_init_tagEEEOT_OT0_, symObjAddr: 0x1CE0, symBinAddr: 0x10001E75C, symSize: 0x3C }
  - { offsetInCU: 0xD8A7, offset: 0x559A9, size: 0x8, addend: 0x0, symName: __ZNKSt16initializer_listI12tSyntaxNode_E4sizeB7v160006Ev, symObjAddr: 0x1DA0, symBinAddr: 0x10001E7E8, symSize: 0x18 }
  - { offsetInCU: 0xD8CB, offset: 0x559CD, size: 0x8, addend: 0x0, symName: __ZNSt3__16vectorI12tSyntaxNode_NS_9allocatorIS1_EEE11__vallocateB7v160006Em, symObjAddr: 0x1DB8, symBinAddr: 0x10001E800, symSize: 0xAC }
  - { offsetInCU: 0xD90C, offset: 0x55A0E, size: 0x8, addend: 0x0, symName: __ZNSt3__16vectorI12tSyntaxNode_NS_9allocatorIS1_EEE18__construct_at_endIPKS1_Li0EEEvT_S8_m, symObjAddr: 0x1E64, symBinAddr: 0x10001E8AC, symSize: 0x8C }
  - { offsetInCU: 0xD97E, offset: 0x55A80, size: 0x8, addend: 0x0, symName: __ZNKSt16initializer_listI12tSyntaxNode_E5beginB7v160006Ev, symObjAddr: 0x1EF0, symBinAddr: 0x10001E938, symSize: 0x18 }
  - { offsetInCU: 0xD9A2, offset: 0x55AA4, size: 0x8, addend: 0x0, symName: __ZNKSt16initializer_listI12tSyntaxNode_E3endB7v160006Ev, symObjAddr: 0x1F08, symBinAddr: 0x10001E950, symSize: 0x20 }
  - { offsetInCU: 0xD9C6, offset: 0x55AC8, size: 0x8, addend: 0x0, symName: __ZNSt3__128__exception_guard_exceptionsINS_6vectorI12tSyntaxNode_NS_9allocatorIS2_EEE16__destroy_vectorEE10__completeB7v160006Ev, symObjAddr: 0x1F28, symBinAddr: 0x10001E970, symSize: 0x1C }
  - { offsetInCU: 0xD9EA, offset: 0x55AEC, size: 0x8, addend: 0x0, symName: __ZNSt3__128__exception_guard_exceptionsINS_6vectorI12tSyntaxNode_NS_9allocatorIS2_EEE16__destroy_vectorEED1B7v160006Ev, symObjAddr: 0x1F44, symBinAddr: 0x10001E98C, symSize: 0x2C }
  - { offsetInCU: 0xDA13, offset: 0x55B15, size: 0x8, addend: 0x0, symName: __ZNSt3__117__compressed_pairIP12tSyntaxNode_NS_9allocatorIS1_EEEC2B7v160006IDnNS_18__default_init_tagEEEOT_OT0_, symObjAddr: 0x1F70, symBinAddr: 0x10001E9B8, symSize: 0x40 }
  - { offsetInCU: 0xDA6A, offset: 0x55B6C, size: 0x8, addend: 0x0, symName: __ZNSt3__122__compressed_pair_elemIP12tSyntaxNode_Li0ELb0EEC2B7v160006IDnvEEOT_, symObjAddr: 0x1FB0, symBinAddr: 0x10001E9F8, symSize: 0x1C }
  - { offsetInCU: 0xDAAB, offset: 0x55BAD, size: 0x8, addend: 0x0, symName: __ZNSt3__122__compressed_pair_elemINS_9allocatorI12tSyntaxNode_EELi1ELb1EEC2B7v160006ENS_18__default_init_tagE, symObjAddr: 0x1FCC, symBinAddr: 0x10001EA14, symSize: 0x2C }
  - { offsetInCU: 0xDADE, offset: 0x55BE0, size: 0x8, addend: 0x0, symName: __ZNSt3__19allocatorI12tSyntaxNode_EC2B7v160006Ev, symObjAddr: 0x1FF8, symBinAddr: 0x10001EA40, symSize: 0x2C }
  - { offsetInCU: 0xDB07, offset: 0x55C09, size: 0x8, addend: 0x0, symName: __ZNSt3__116__non_trivial_ifILb1ENS_9allocatorI12tSyntaxNode_EEEC2B7v160006Ev, symObjAddr: 0x2024, symBinAddr: 0x10001EA6C, symSize: 0x14 }
  - { offsetInCU: 0xDB30, offset: 0x55C32, size: 0x8, addend: 0x0, symName: __ZNSt3__128__exception_guard_exceptionsINS_6vectorI12tSyntaxNode_NS_9allocatorIS2_EEE16__destroy_vectorEEC1B7v160006ES6_, symObjAddr: 0x2038, symBinAddr: 0x10001EA80, symSize: 0x34 }
  - { offsetInCU: 0xDB67, offset: 0x55C69, size: 0x8, addend: 0x0, symName: __ZNSt3__128__exception_guard_exceptionsINS_6vectorI12tSyntaxNode_NS_9allocatorIS2_EEE16__destroy_vectorEEC2B7v160006ES6_, symObjAddr: 0x206C, symBinAddr: 0x10001EAB4, symSize: 0x24 }
  - { offsetInCU: 0xDB9D, offset: 0x55C9F, size: 0x8, addend: 0x0, symName: __ZNKSt3__16vectorI12tSyntaxNode_NS_9allocatorIS1_EEE8max_sizeEv, symObjAddr: 0x20B0, symBinAddr: 0x10001EAD8, symSize: 0x60 }
  - { offsetInCU: 0xDBC4, offset: 0x55CC6, size: 0x8, addend: 0x0, symName: __ZNKSt3__16vectorI12tSyntaxNode_NS_9allocatorIS1_EEE20__throw_length_errorB7v160006Ev, symObjAddr: 0x2110, symBinAddr: 0x10001EB38, symSize: 0x1C }
  - { offsetInCU: 0xDBE8, offset: 0x55CEA, size: 0x8, addend: 0x0, symName: __ZNSt3__16vectorI12tSyntaxNode_NS_9allocatorIS1_EEE9__end_capB7v160006Ev, symObjAddr: 0x2194, symBinAddr: 0x10001EB94, symSize: 0x28 }
  - { offsetInCU: 0xDC0C, offset: 0x55D0E, size: 0x8, addend: 0x0, symName: __ZNKSt3__16vectorI12tSyntaxNode_NS_9allocatorIS1_EEE14__annotate_newB7v160006Em, symObjAddr: 0x21BC, symBinAddr: 0x10001EBBC, symSize: 0xAC }
  - { offsetInCU: 0xDC49, offset: 0x55D4B, size: 0x8, addend: 0x0, symName: __ZNSt3__116allocator_traitsINS_9allocatorI12tSyntaxNode_EEE8max_sizeB7v160006IS3_vEEmRKS3_, symObjAddr: 0x2294, symBinAddr: 0x10001EC68, symSize: 0x24 }
  - { offsetInCU: 0xDC77, offset: 0x55D79, size: 0x8, addend: 0x0, symName: __ZNKSt3__16vectorI12tSyntaxNode_NS_9allocatorIS1_EEE7__allocB7v160006Ev, symObjAddr: 0x22B8, symBinAddr: 0x10001EC8C, symSize: 0x28 }
  - { offsetInCU: 0xDC9B, offset: 0x55D9D, size: 0x8, addend: 0x0, symName: __ZNKSt3__19allocatorI12tSyntaxNode_E8max_sizeB7v160006Ev, symObjAddr: 0x237C, symBinAddr: 0x10001ECB4, symSize: 0x14 }
  - { offsetInCU: 0xDCBF, offset: 0x55DC1, size: 0x8, addend: 0x0, symName: __ZNKSt3__117__compressed_pairIP12tSyntaxNode_NS_9allocatorIS1_EEE6secondB7v160006Ev, symObjAddr: 0x2390, symBinAddr: 0x10001ECC8, symSize: 0x24 }
  - { offsetInCU: 0xDCE3, offset: 0x55DE5, size: 0x8, addend: 0x0, symName: __ZNKSt3__122__compressed_pair_elemINS_9allocatorI12tSyntaxNode_EELi1ELb1EE5__getB7v160006Ev, symObjAddr: 0x23B4, symBinAddr: 0x10001ECEC, symSize: 0x14 }
  - { offsetInCU: 0xDD07, offset: 0x55E09, size: 0x8, addend: 0x0, symName: __ZNSt3__19allocatorI12tSyntaxNode_E8allocateB7v160006Em, symObjAddr: 0x24B4, symBinAddr: 0x10001ED00, symSize: 0x58 }
  - { offsetInCU: 0xDD39, offset: 0x55E3B, size: 0x8, addend: 0x0, symName: __ZNSt3__117__compressed_pairIP12tSyntaxNode_NS_9allocatorIS1_EEE5firstB7v160006Ev, symObjAddr: 0x25C4, symBinAddr: 0x10001ED58, symSize: 0x24 }
  - { offsetInCU: 0xDD5D, offset: 0x55E5F, size: 0x8, addend: 0x0, symName: __ZNSt3__122__compressed_pair_elemIP12tSyntaxNode_Li0ELb0EE5__getB7v160006Ev, symObjAddr: 0x25E8, symBinAddr: 0x10001ED7C, symSize: 0x14 }
  - { offsetInCU: 0xDD9A, offset: 0x55E9C, size: 0x8, addend: 0x0, symName: __ZNSt3__16vectorI12tSyntaxNode_NS_9allocatorIS1_EEE21_ConstructTransactionC1B7v160006ERS4_m, symObjAddr: 0x26F8, symBinAddr: 0x10001ED90, symSize: 0x3C }
  - { offsetInCU: 0xDDE1, offset: 0x55EE3, size: 0x8, addend: 0x0, symName: __ZNSt3__16vectorI12tSyntaxNode_NS_9allocatorIS1_EEE21_ConstructTransactionD1B7v160006Ev, symObjAddr: 0x276C, symBinAddr: 0x10001EE04, symSize: 0x2C }
  - { offsetInCU: 0xDE0A, offset: 0x55F0C, size: 0x8, addend: 0x0, symName: __ZNSt3__16vectorI12tSyntaxNode_NS_9allocatorIS1_EEE21_ConstructTransactionC2B7v160006ERS4_m, symObjAddr: 0x2798, symBinAddr: 0x10001EE30, symSize: 0x44 }
  - { offsetInCU: 0xDE74, offset: 0x55F76, size: 0x8, addend: 0x0, symName: __ZNKSt3__114__copy_trivialclB7v160006IK12tSyntaxNode_S2_Li0EEENS_4pairIPT_PT0_EES6_S6_S8_, symObjAddr: 0x29B8, symBinAddr: 0x10001F050, symSize: 0x48 }
  - { offsetInCU: 0xDEF8, offset: 0x55FFA, size: 0x8, addend: 0x0, symName: __ZNSt3__14pairIPK12tSyntaxNode_S3_EC1B7v160006IS3_S3_LPv0EEEOT_OT0_, symObjAddr: 0x2B20, symBinAddr: 0x10001F1B8, symSize: 0x3C }
  - { offsetInCU: 0xDF55, offset: 0x56057, size: 0x8, addend: 0x0, symName: __ZNSt3__14pairIPK12tSyntaxNode_S3_EC2B7v160006IS3_S3_LPv0EEEOT_OT0_, symObjAddr: 0x2B5C, symBinAddr: 0x10001F1F4, symSize: 0x34 }
  - { offsetInCU: 0xDFB2, offset: 0x560B4, size: 0x8, addend: 0x0, symName: __ZNSt3__118__unwrap_iter_implIPK12tSyntaxNode_Lb1EE8__unwrapB7v160006ES3_, symObjAddr: 0x2B90, symBinAddr: 0x10001F228, symSize: 0x24 }
  - { offsetInCU: 0xDFDF, offset: 0x560E1, size: 0x8, addend: 0x0, symName: __ZNSt3__14pairIPK12tSyntaxNode_PS1_EC1B7v160006IRS3_S4_LPv0EEEOT_OT0_, symObjAddr: 0x2C84, symBinAddr: 0x10001F31C, symSize: 0x3C }
  - { offsetInCU: 0xE03C, offset: 0x5613E, size: 0x8, addend: 0x0, symName: __ZNSt3__14pairIPK12tSyntaxNode_PS1_EC2B7v160006IRS3_S4_LPv0EEEOT_OT0_, symObjAddr: 0x2CC0, symBinAddr: 0x10001F358, symSize: 0x34 }
  - { offsetInCU: 0xE099, offset: 0x5619B, size: 0x8, addend: 0x0, symName: __ZNSt3__118__unwrap_iter_implIP12tSyntaxNode_Lb1EE8__unwrapB7v160006ES2_, symObjAddr: 0x2CF4, symBinAddr: 0x10001F38C, symSize: 0x24 }
  - { offsetInCU: 0xE0BC, offset: 0x561BE, size: 0x8, addend: 0x0, symName: __ZNSt3__14pairIPK12tSyntaxNode_PS1_EC1B7v160006IS3_S4_LPv0EEEOT_OT0_, symObjAddr: 0x2D18, symBinAddr: 0x10001F3B0, symSize: 0x3C }
  - { offsetInCU: 0xE119, offset: 0x5621B, size: 0x8, addend: 0x0, symName: __ZNSt3__14pairIPK12tSyntaxNode_PS1_EC2B7v160006IS3_S4_LPv0EEEOT_OT0_, symObjAddr: 0x2D54, symBinAddr: 0x10001F3EC, symSize: 0x34 }
  - { offsetInCU: 0xE176, offset: 0x56278, size: 0x8, addend: 0x0, symName: __ZNSt3__118__unwrap_iter_implIPK12tSyntaxNode_Lb1EE8__rewrapB7v160006ES3_S3_, symObjAddr: 0x2DC4, symBinAddr: 0x10001F45C, symSize: 0x50 }
  - { offsetInCU: 0xE1A7, offset: 0x562A9, size: 0x8, addend: 0x0, symName: __ZNSt3__118__unwrap_iter_implIP12tSyntaxNode_Lb1EE8__rewrapB7v160006ES2_S2_, symObjAddr: 0x2E14, symBinAddr: 0x10001F4AC, symSize: 0x50 }
  - { offsetInCU: 0xE1D8, offset: 0x562DA, size: 0x8, addend: 0x0, symName: __ZNSt3__16vectorI12tSyntaxNode_NS_9allocatorIS1_EEE21_ConstructTransactionD2B7v160006Ev, symObjAddr: 0x2E64, symBinAddr: 0x10001F4FC, symSize: 0x20 }
  - { offsetInCU: 0xE201, offset: 0x56303, size: 0x8, addend: 0x0, symName: __ZNSt3__128__exception_guard_exceptionsINS_6vectorI12tSyntaxNode_NS_9allocatorIS2_EEE16__destroy_vectorEED2B7v160006Ev, symObjAddr: 0x2E84, symBinAddr: 0x10001F51C, symSize: 0x50 }
  - { offsetInCU: 0xE22A, offset: 0x5632C, size: 0x8, addend: 0x0, symName: __ZNSt3__16vectorI12tSyntaxNode_NS_9allocatorIS1_EEEC2ERKS4_, symObjAddr: 0x3260, symBinAddr: 0x10001F56C, symSize: 0x110 }
  - { offsetInCU: 0xE287, offset: 0x56389, size: 0x8, addend: 0x0, symName: __ZNSt3__116allocator_traitsINS_9allocatorI12tSyntaxNode_EEE37select_on_container_copy_constructionB7v160006IS3_vvEES3_RKS3_, symObjAddr: 0x3370, symBinAddr: 0x10001F67C, symSize: 0x10 }
  - { offsetInCU: 0xE2BB, offset: 0x563BD, size: 0x8, addend: 0x0, symName: __ZNSt3__117__compressed_pairIP12tSyntaxNode_NS_9allocatorIS1_EEEC1B7v160006IDnS4_EEOT_OT0_, symObjAddr: 0x3380, symBinAddr: 0x10001F68C, symSize: 0x3C }
  - { offsetInCU: 0xE311, offset: 0x56413, size: 0x8, addend: 0x0, symName: __ZNSt3__16vectorI12tSyntaxNode_NS_9allocatorIS1_EEE18__construct_at_endIPS1_Li0EEEvT_S7_m, symObjAddr: 0x33BC, symBinAddr: 0x10001F6C8, symSize: 0x8C }
  - { offsetInCU: 0xE383, offset: 0x56485, size: 0x8, addend: 0x0, symName: __ZNSt3__117__compressed_pairIP12tSyntaxNode_NS_9allocatorIS1_EEEC2B7v160006IDnS4_EEOT_OT0_, symObjAddr: 0x3448, symBinAddr: 0x10001F754, symSize: 0x44 }
  - { offsetInCU: 0xE3DA, offset: 0x564DC, size: 0x8, addend: 0x0, symName: __ZNSt3__122__compressed_pair_elemINS_9allocatorI12tSyntaxNode_EELi1ELb1EEC2B7v160006IS3_vEEOT_, symObjAddr: 0x348C, symBinAddr: 0x10001F798, symSize: 0x18 }
  - { offsetInCU: 0xE41B, offset: 0x5651D, size: 0x8, addend: 0x0, symName: __ZNSt3__129_AllocatorDestroyRangeReverseINS_9allocatorI12tSyntaxNode_EEPS2_EC1B7v160006ERS3_RS4_S7_, symObjAddr: 0x35E4, symBinAddr: 0x10001F8F0, symSize: 0x44 }
  - { offsetInCU: 0xE471, offset: 0x56573, size: 0x8, addend: 0x0, symName: __ZNSt3__116allocator_traitsINS_9allocatorI12tSyntaxNode_EEE9constructB7v160006IS2_JRS2_EvEEvRS3_PT_DpOT0_, symObjAddr: 0x3628, symBinAddr: 0x10001F934, symSize: 0x34 }
  - { offsetInCU: 0xE4C8, offset: 0x565CA, size: 0x8, addend: 0x0, symName: __ZNSt3__128__exception_guard_exceptionsINS_29_AllocatorDestroyRangeReverseINS_9allocatorI12tSyntaxNode_EEPS3_EEE10__completeB7v160006Ev, symObjAddr: 0x365C, symBinAddr: 0x10001F968, symSize: 0x1C }
  - { offsetInCU: 0xE4EC, offset: 0x565EE, size: 0x8, addend: 0x0, symName: __ZNSt3__128__exception_guard_exceptionsINS_29_AllocatorDestroyRangeReverseINS_9allocatorI12tSyntaxNode_EEPS3_EEED1B7v160006Ev, symObjAddr: 0x3678, symBinAddr: 0x10001F984, symSize: 0x2C }
  - { offsetInCU: 0xE515, offset: 0x56617, size: 0x8, addend: 0x0, symName: __ZNSt3__128__exception_guard_exceptionsINS_29_AllocatorDestroyRangeReverseINS_9allocatorI12tSyntaxNode_EEPS3_EEEC1B7v160006ES6_, symObjAddr: 0x36A4, symBinAddr: 0x10001F9B0, symSize: 0x34 }
  - { offsetInCU: 0xE54D, offset: 0x5664F, size: 0x8, addend: 0x0, symName: __ZNSt3__128__exception_guard_exceptionsINS_29_AllocatorDestroyRangeReverseINS_9allocatorI12tSyntaxNode_EEPS3_EEEC2B7v160006ES6_, symObjAddr: 0x36D8, symBinAddr: 0x10001F9E4, symSize: 0x30 }
  - { offsetInCU: 0xE585, offset: 0x56687, size: 0x8, addend: 0x0, symName: __ZNSt3__129_AllocatorDestroyRangeReverseINS_9allocatorI12tSyntaxNode_EEPS2_EC2B7v160006ERS3_RS4_S7_, symObjAddr: 0x3708, symBinAddr: 0x10001FA14, symSize: 0x38 }
  - { offsetInCU: 0xE5DB, offset: 0x566DD, size: 0x8, addend: 0x0, symName: __ZNSt3__19allocatorI12tSyntaxNode_E9constructB7v160006IS1_JRS1_EEEvPT_DpOT0_, symObjAddr: 0x3740, symBinAddr: 0x10001FA4C, symSize: 0x28 }
  - { offsetInCU: 0xE62F, offset: 0x56731, size: 0x8, addend: 0x0, symName: __ZNSt3__128__exception_guard_exceptionsINS_29_AllocatorDestroyRangeReverseINS_9allocatorI12tSyntaxNode_EEPS3_EEED2B7v160006Ev, symObjAddr: 0x3768, symBinAddr: 0x10001FA74, symSize: 0x50 }
  - { offsetInCU: 0xE658, offset: 0x5675A, size: 0x8, addend: 0x0, symName: __ZNKSt3__129_AllocatorDestroyRangeReverseINS_9allocatorI12tSyntaxNode_EEPS2_EclB7v160006Ev, symObjAddr: 0x37B8, symBinAddr: 0x10001FAC4, symSize: 0x68 }
  - { offsetInCU: 0xE67C, offset: 0x5677E, size: 0x8, addend: 0x0, symName: __ZNSt3__116reverse_iteratorIP12tSyntaxNode_EC1B7v160006ES2_, symObjAddr: 0x3890, symBinAddr: 0x10001FB9C, symSize: 0x34 }
  - { offsetInCU: 0xE6B3, offset: 0x567B5, size: 0x8, addend: 0x0, symName: __ZNSt3__116reverse_iteratorIP12tSyntaxNode_EppB7v160006Ev, symObjAddr: 0x3930, symBinAddr: 0x10001FC3C, symSize: 0x20 }
  - { offsetInCU: 0xE6D7, offset: 0x567D9, size: 0x8, addend: 0x0, symName: __ZNKSt3__116reverse_iteratorIP12tSyntaxNode_E4baseB7v160006Ev, symObjAddr: 0x3950, symBinAddr: 0x10001FC5C, symSize: 0x18 }
  - { offsetInCU: 0xE700, offset: 0x56802, size: 0x8, addend: 0x0, symName: __ZNSt3__119__to_address_helperINS_16reverse_iteratorIP12tSyntaxNode_EEvE6__callB7v160006ERKS4_, symObjAddr: 0x3968, symBinAddr: 0x10001FC74, symSize: 0x38 }
  - { offsetInCU: 0xE723, offset: 0x56825, size: 0x8, addend: 0x0, symName: __ZNKSt3__116reverse_iteratorIP12tSyntaxNode_EptB7v160006Ev, symObjAddr: 0x39A0, symBinAddr: 0x10001FCAC, symSize: 0x24 }
  - { offsetInCU: 0xE747, offset: 0x56849, size: 0x8, addend: 0x0, symName: __ZNKSt3__116reverse_iteratorIP12tSyntaxNode_EdeB7v160006Ev, symObjAddr: 0x39C4, symBinAddr: 0x10001FCD0, symSize: 0x28 }
  - { offsetInCU: 0xE779, offset: 0x5687B, size: 0x8, addend: 0x0, symName: __ZNSt3__116reverse_iteratorIP12tSyntaxNode_EC2B7v160006ES2_, symObjAddr: 0x39EC, symBinAddr: 0x10001FCF8, symSize: 0x28 }
  - { offsetInCU: 0xE7B0, offset: 0x568B2, size: 0x8, addend: 0x0, symName: __ZNSt3__16vectorI7tSyntaxNS_9allocatorIS1_EEEC2B7v160006ESt16initializer_listIS1_E, symObjAddr: 0x3A14, symBinAddr: 0x10001FD20, symSize: 0x124 }
  - { offsetInCU: 0xE7FF, offset: 0x56901, size: 0x8, addend: 0x0, symName: __ZNSt3__117__compressed_pairIP7tSyntaxNS_9allocatorIS1_EEEC1B7v160006IDnNS_18__default_init_tagEEEOT_OT0_, symObjAddr: 0x3B38, symBinAddr: 0x10001FE44, symSize: 0x3C }
  - { offsetInCU: 0xE856, offset: 0x56958, size: 0x8, addend: 0x0, symName: __ZNKSt16initializer_listI7tSyntaxE4sizeB7v160006Ev, symObjAddr: 0x3BF8, symBinAddr: 0x10001FED0, symSize: 0x18 }
  - { offsetInCU: 0xE87A, offset: 0x5697C, size: 0x8, addend: 0x0, symName: __ZNSt3__16vectorI7tSyntaxNS_9allocatorIS1_EEE11__vallocateB7v160006Em, symObjAddr: 0x3C10, symBinAddr: 0x10001FEE8, symSize: 0xAC }
  - { offsetInCU: 0xE8BB, offset: 0x569BD, size: 0x8, addend: 0x0, symName: __ZNSt3__16vectorI7tSyntaxNS_9allocatorIS1_EEE18__construct_at_endIPKS1_Li0EEEvT_S8_m, symObjAddr: 0x3CBC, symBinAddr: 0x10001FF94, symSize: 0x8C }
  - { offsetInCU: 0xE92D, offset: 0x56A2F, size: 0x8, addend: 0x0, symName: __ZNKSt16initializer_listI7tSyntaxE5beginB7v160006Ev, symObjAddr: 0x3D48, symBinAddr: 0x100020020, symSize: 0x18 }
  - { offsetInCU: 0xE951, offset: 0x56A53, size: 0x8, addend: 0x0, symName: __ZNKSt16initializer_listI7tSyntaxE3endB7v160006Ev, symObjAddr: 0x3D60, symBinAddr: 0x100020038, symSize: 0x20 }
  - { offsetInCU: 0xE975, offset: 0x56A77, size: 0x8, addend: 0x0, symName: __ZNSt3__128__exception_guard_exceptionsINS_6vectorI7tSyntaxNS_9allocatorIS2_EEE16__destroy_vectorEE10__completeB7v160006Ev, symObjAddr: 0x3D80, symBinAddr: 0x100020058, symSize: 0x1C }
  - { offsetInCU: 0xE999, offset: 0x56A9B, size: 0x8, addend: 0x0, symName: __ZNSt3__128__exception_guard_exceptionsINS_6vectorI7tSyntaxNS_9allocatorIS2_EEE16__destroy_vectorEED1B7v160006Ev, symObjAddr: 0x3D9C, symBinAddr: 0x100020074, symSize: 0x2C }
  - { offsetInCU: 0xE9C2, offset: 0x56AC4, size: 0x8, addend: 0x0, symName: __ZNSt3__117__compressed_pairIP7tSyntaxNS_9allocatorIS1_EEEC2B7v160006IDnNS_18__default_init_tagEEEOT_OT0_, symObjAddr: 0x3DC8, symBinAddr: 0x1000200A0, symSize: 0x40 }
  - { offsetInCU: 0xEA19, offset: 0x56B1B, size: 0x8, addend: 0x0, symName: __ZNSt3__122__compressed_pair_elemIP7tSyntaxLi0ELb0EEC2B7v160006IDnvEEOT_, symObjAddr: 0x3E08, symBinAddr: 0x1000200E0, symSize: 0x1C }
  - { offsetInCU: 0xEA5A, offset: 0x56B5C, size: 0x8, addend: 0x0, symName: __ZNSt3__122__compressed_pair_elemINS_9allocatorI7tSyntaxEELi1ELb1EEC2B7v160006ENS_18__default_init_tagE, symObjAddr: 0x3E24, symBinAddr: 0x1000200FC, symSize: 0x2C }
  - { offsetInCU: 0xEA8D, offset: 0x56B8F, size: 0x8, addend: 0x0, symName: __ZNSt3__19allocatorI7tSyntaxEC2B7v160006Ev, symObjAddr: 0x3E50, symBinAddr: 0x100020128, symSize: 0x2C }
  - { offsetInCU: 0xEAB6, offset: 0x56BB8, size: 0x8, addend: 0x0, symName: __ZNSt3__116__non_trivial_ifILb1ENS_9allocatorI7tSyntaxEEEC2B7v160006Ev, symObjAddr: 0x3E7C, symBinAddr: 0x100020154, symSize: 0x14 }
  - { offsetInCU: 0xEADF, offset: 0x56BE1, size: 0x8, addend: 0x0, symName: __ZNSt3__128__exception_guard_exceptionsINS_6vectorI7tSyntaxNS_9allocatorIS2_EEE16__destroy_vectorEEC1B7v160006ES6_, symObjAddr: 0x3E90, symBinAddr: 0x100020168, symSize: 0x34 }
  - { offsetInCU: 0xEB16, offset: 0x56C18, size: 0x8, addend: 0x0, symName: __ZNSt3__128__exception_guard_exceptionsINS_6vectorI7tSyntaxNS_9allocatorIS2_EEE16__destroy_vectorEEC2B7v160006ES6_, symObjAddr: 0x3EC4, symBinAddr: 0x10002019C, symSize: 0x24 }
  - { offsetInCU: 0xEB4C, offset: 0x56C4E, size: 0x8, addend: 0x0, symName: __ZNKSt3__16vectorI7tSyntaxNS_9allocatorIS1_EEE8max_sizeEv, symObjAddr: 0x3F08, symBinAddr: 0x1000201C0, symSize: 0x60 }
  - { offsetInCU: 0xEB73, offset: 0x56C75, size: 0x8, addend: 0x0, symName: __ZNKSt3__16vectorI7tSyntaxNS_9allocatorIS1_EEE20__throw_length_errorB7v160006Ev, symObjAddr: 0x3F68, symBinAddr: 0x100020220, symSize: 0x1C }
  - { offsetInCU: 0xEB97, offset: 0x56C99, size: 0x8, addend: 0x0, symName: __ZNSt3__16vectorI7tSyntaxNS_9allocatorIS1_EEE9__end_capB7v160006Ev, symObjAddr: 0x3FEC, symBinAddr: 0x10002027C, symSize: 0x28 }
  - { offsetInCU: 0xEBBB, offset: 0x56CBD, size: 0x8, addend: 0x0, symName: __ZNKSt3__16vectorI7tSyntaxNS_9allocatorIS1_EEE14__annotate_newB7v160006Em, symObjAddr: 0x4014, symBinAddr: 0x1000202A4, symSize: 0xAC }
  - { offsetInCU: 0xEBF8, offset: 0x56CFA, size: 0x8, addend: 0x0, symName: __ZNSt3__116allocator_traitsINS_9allocatorI7tSyntaxEEE8max_sizeB7v160006IS3_vEEmRKS3_, symObjAddr: 0x40C0, symBinAddr: 0x100020350, symSize: 0x24 }
  - { offsetInCU: 0xEC26, offset: 0x56D28, size: 0x8, addend: 0x0, symName: __ZNKSt3__16vectorI7tSyntaxNS_9allocatorIS1_EEE7__allocB7v160006Ev, symObjAddr: 0x40E4, symBinAddr: 0x100020374, symSize: 0x28 }
  - { offsetInCU: 0xEC4A, offset: 0x56D4C, size: 0x8, addend: 0x0, symName: __ZNKSt3__19allocatorI7tSyntaxE8max_sizeB7v160006Ev, symObjAddr: 0x410C, symBinAddr: 0x10002039C, symSize: 0x14 }
  - { offsetInCU: 0xEC6E, offset: 0x56D70, size: 0x8, addend: 0x0, symName: __ZNKSt3__117__compressed_pairIP7tSyntaxNS_9allocatorIS1_EEE6secondB7v160006Ev, symObjAddr: 0x4120, symBinAddr: 0x1000203B0, symSize: 0x24 }
  - { offsetInCU: 0xEC92, offset: 0x56D94, size: 0x8, addend: 0x0, symName: __ZNKSt3__122__compressed_pair_elemINS_9allocatorI7tSyntaxEELi1ELb1EE5__getB7v160006Ev, symObjAddr: 0x4144, symBinAddr: 0x1000203D4, symSize: 0x14 }
  - { offsetInCU: 0xECB6, offset: 0x56DB8, size: 0x8, addend: 0x0, symName: __ZNSt3__19allocatorI7tSyntaxE8allocateB7v160006Em, symObjAddr: 0x4158, symBinAddr: 0x1000203E8, symSize: 0x58 }
  - { offsetInCU: 0xECE8, offset: 0x56DEA, size: 0x8, addend: 0x0, symName: __ZNSt3__117__compressed_pairIP7tSyntaxNS_9allocatorIS1_EEE5firstB7v160006Ev, symObjAddr: 0x41E8, symBinAddr: 0x100020440, symSize: 0x24 }
  - { offsetInCU: 0xED0C, offset: 0x56E0E, size: 0x8, addend: 0x0, symName: __ZNSt3__122__compressed_pair_elemIP7tSyntaxLi0ELb0EE5__getB7v160006Ev, symObjAddr: 0x420C, symBinAddr: 0x100020464, symSize: 0x14 }
  - { offsetInCU: 0xED49, offset: 0x56E4B, size: 0x8, addend: 0x0, symName: __ZNSt3__16vectorI7tSyntaxNS_9allocatorIS1_EEE21_ConstructTransactionC1B7v160006ERS4_m, symObjAddr: 0x431C, symBinAddr: 0x100020478, symSize: 0x3C }
  - { offsetInCU: 0xED90, offset: 0x56E92, size: 0x8, addend: 0x0, symName: __ZNSt3__16vectorI7tSyntaxNS_9allocatorIS1_EEE21_ConstructTransactionD1B7v160006Ev, symObjAddr: 0x444C, symBinAddr: 0x1000205A8, symSize: 0x2C }
  - { offsetInCU: 0xEDB9, offset: 0x56EBB, size: 0x8, addend: 0x0, symName: __ZNSt3__16vectorI7tSyntaxNS_9allocatorIS1_EEE21_ConstructTransactionC2B7v160006ERS4_m, symObjAddr: 0x4478, symBinAddr: 0x1000205D4, symSize: 0x44 }
  - { offsetInCU: 0xEE00, offset: 0x56F02, size: 0x8, addend: 0x0, symName: __ZNSt3__129_AllocatorDestroyRangeReverseINS_9allocatorI7tSyntaxEEPS2_EC1B7v160006ERS3_RS4_S7_, symObjAddr: 0x4508, symBinAddr: 0x100020664, symSize: 0x44 }
  - { offsetInCU: 0xEE56, offset: 0x56F58, size: 0x8, addend: 0x0, symName: __ZNSt3__116allocator_traitsINS_9allocatorI7tSyntaxEEE9constructB7v160006IS2_JRKS2_EvEEvRS3_PT_DpOT0_, symObjAddr: 0x454C, symBinAddr: 0x1000206A8, symSize: 0x34 }
  - { offsetInCU: 0xEEAD, offset: 0x56FAF, size: 0x8, addend: 0x0, symName: __ZNSt3__128__exception_guard_exceptionsINS_29_AllocatorDestroyRangeReverseINS_9allocatorI7tSyntaxEEPS3_EEE10__completeB7v160006Ev, symObjAddr: 0x4580, symBinAddr: 0x1000206DC, symSize: 0x1C }
  - { offsetInCU: 0xEED1, offset: 0x56FD3, size: 0x8, addend: 0x0, symName: __ZNSt3__128__exception_guard_exceptionsINS_29_AllocatorDestroyRangeReverseINS_9allocatorI7tSyntaxEEPS3_EEED1B7v160006Ev, symObjAddr: 0x459C, symBinAddr: 0x1000206F8, symSize: 0x2C }
  - { offsetInCU: 0xEEFA, offset: 0x56FFC, size: 0x8, addend: 0x0, symName: __ZNSt3__128__exception_guard_exceptionsINS_29_AllocatorDestroyRangeReverseINS_9allocatorI7tSyntaxEEPS3_EEEC1B7v160006ES6_, symObjAddr: 0x45C8, symBinAddr: 0x100020724, symSize: 0x34 }
  - { offsetInCU: 0xEF32, offset: 0x57034, size: 0x8, addend: 0x0, symName: __ZNSt3__128__exception_guard_exceptionsINS_29_AllocatorDestroyRangeReverseINS_9allocatorI7tSyntaxEEPS3_EEEC2B7v160006ES6_, symObjAddr: 0x45FC, symBinAddr: 0x100020758, symSize: 0x30 }
  - { offsetInCU: 0xEF6A, offset: 0x5706C, size: 0x8, addend: 0x0, symName: __ZNSt3__129_AllocatorDestroyRangeReverseINS_9allocatorI7tSyntaxEEPS2_EC2B7v160006ERS3_RS4_S7_, symObjAddr: 0x462C, symBinAddr: 0x100020788, symSize: 0x38 }
  - { offsetInCU: 0xEFC0, offset: 0x570C2, size: 0x8, addend: 0x0, symName: __ZNSt3__19allocatorI7tSyntaxE9constructB7v160006IS1_JRKS1_EEEvPT_DpOT0_, symObjAddr: 0x4664, symBinAddr: 0x1000207C0, symSize: 0x30 }
  - { offsetInCU: 0xF014, offset: 0x57116, size: 0x8, addend: 0x0, symName: __ZN7tSyntaxC1ERKS_, symObjAddr: 0x4694, symBinAddr: 0x1000207F0, symSize: 0x34 }
  - { offsetInCU: 0xF047, offset: 0x57149, size: 0x8, addend: 0x0, symName: __ZN7tSyntaxC2ERKS_, symObjAddr: 0x46C8, symBinAddr: 0x100020824, symSize: 0x48 }
  - { offsetInCU: 0xF07A, offset: 0x5717C, size: 0x8, addend: 0x0, symName: __ZNSt3__128__exception_guard_exceptionsINS_29_AllocatorDestroyRangeReverseINS_9allocatorI7tSyntaxEEPS3_EEED2B7v160006Ev, symObjAddr: 0x4710, symBinAddr: 0x10002086C, symSize: 0x50 }
  - { offsetInCU: 0xF0A3, offset: 0x571A5, size: 0x8, addend: 0x0, symName: __ZNKSt3__129_AllocatorDestroyRangeReverseINS_9allocatorI7tSyntaxEEPS2_EclB7v160006Ev, symObjAddr: 0x4760, symBinAddr: 0x1000208BC, symSize: 0x68 }
  - { offsetInCU: 0xF0C7, offset: 0x571C9, size: 0x8, addend: 0x0, symName: __ZNSt3__116reverse_iteratorIP7tSyntaxEC1B7v160006ES2_, symObjAddr: 0x4838, symBinAddr: 0x100020994, symSize: 0x34 }
  - { offsetInCU: 0xF0FE, offset: 0x57200, size: 0x8, addend: 0x0, symName: __ZNSt3__116reverse_iteratorIP7tSyntaxEppB7v160006Ev, symObjAddr: 0x4904, symBinAddr: 0x100020A34, symSize: 0x20 }
  - { offsetInCU: 0xF122, offset: 0x57224, size: 0x8, addend: 0x0, symName: __ZNKSt3__116reverse_iteratorIP7tSyntaxE4baseB7v160006Ev, symObjAddr: 0x4924, symBinAddr: 0x100020A54, symSize: 0x18 }
  - { offsetInCU: 0xF14B, offset: 0x5724D, size: 0x8, addend: 0x0, symName: __ZNSt3__119__to_address_helperINS_16reverse_iteratorIP7tSyntaxEEvE6__callB7v160006ERKS4_, symObjAddr: 0x4964, symBinAddr: 0x100020A6C, symSize: 0x38 }
  - { offsetInCU: 0xF16E, offset: 0x57270, size: 0x8, addend: 0x0, symName: __ZNKSt3__116reverse_iteratorIP7tSyntaxEptB7v160006Ev, symObjAddr: 0x499C, symBinAddr: 0x100020AA4, symSize: 0x24 }
  - { offsetInCU: 0xF192, offset: 0x57294, size: 0x8, addend: 0x0, symName: __ZNKSt3__116reverse_iteratorIP7tSyntaxEdeB7v160006Ev, symObjAddr: 0x49C0, symBinAddr: 0x100020AC8, symSize: 0x28 }
  - { offsetInCU: 0xF1C4, offset: 0x572C6, size: 0x8, addend: 0x0, symName: __ZNSt3__116reverse_iteratorIP7tSyntaxEC2B7v160006ES2_, symObjAddr: 0x49E8, symBinAddr: 0x100020AF0, symSize: 0x28 }
  - { offsetInCU: 0xF1FB, offset: 0x572FD, size: 0x8, addend: 0x0, symName: __ZNSt3__16vectorI7tSyntaxNS_9allocatorIS1_EEE21_ConstructTransactionD2B7v160006Ev, symObjAddr: 0x4A10, symBinAddr: 0x100020B18, symSize: 0x20 }
  - { offsetInCU: 0xF224, offset: 0x57326, size: 0x8, addend: 0x0, symName: __ZNSt3__128__exception_guard_exceptionsINS_6vectorI7tSyntaxNS_9allocatorIS2_EEE16__destroy_vectorEED2B7v160006Ev, symObjAddr: 0x4A30, symBinAddr: 0x100020B38, symSize: 0x50 }
  - { offsetInCU: 0xF24D, offset: 0x5734F, size: 0x8, addend: 0x0, symName: __ZNSt3__16vectorI7tSyntaxNS_9allocatorIS1_EEEC2B7v160006Ev, symObjAddr: 0x4D50, symBinAddr: 0x100020B88, symSize: 0x54 }
  - { offsetInCU: 0xF276, offset: 0x57378, size: 0x8, addend: 0x0, symName: __ZNSt3__16vectorI7tSyntaxNS_9allocatorIS1_EEE22__construct_one_at_endB7v160006IJRKS1_EEEvDpOT_, symObjAddr: 0x4DA4, symBinAddr: 0x100020BDC, symSize: 0x90 }
  - { offsetInCU: 0xF2C2, offset: 0x573C4, size: 0x8, addend: 0x0, symName: __ZNSt3__16vectorI7tSyntaxNS_9allocatorIS1_EEE21__push_back_slow_pathIRKS1_EEvOT_, symObjAddr: 0x4E34, symBinAddr: 0x100020C6C, symSize: 0xD8 }
  - { offsetInCU: 0xF31E, offset: 0x57420, size: 0x8, addend: 0x0, symName: __ZNKSt3__16vectorI7tSyntaxNS_9allocatorIS1_EEE11__recommendB7v160006Em, symObjAddr: 0x4F0C, symBinAddr: 0x100020D44, symSize: 0xB4 }
  - { offsetInCU: 0xF372, offset: 0x57474, size: 0x8, addend: 0x0, symName: __ZNSt3__114__split_bufferI7tSyntaxRNS_9allocatorIS1_EEEC1EmmS4_, symObjAddr: 0x4FC0, symBinAddr: 0x100020DF8, symSize: 0x44 }
  - { offsetInCU: 0xF3C6, offset: 0x574C8, size: 0x8, addend: 0x0, symName: __ZNSt3__114__split_bufferI7tSyntaxRNS_9allocatorIS1_EEED1Ev, symObjAddr: 0x511C, symBinAddr: 0x100020F54, symSize: 0x2C }
  - { offsetInCU: 0xF3F0, offset: 0x574F2, size: 0x8, addend: 0x0, symName: __ZNSt3__114__split_bufferI7tSyntaxRNS_9allocatorIS1_EEEC2EmmS4_, symObjAddr: 0x51C8, symBinAddr: 0x100020F80, symSize: 0xD4 }
  - { offsetInCU: 0xF462, offset: 0x57564, size: 0x8, addend: 0x0, symName: __ZNSt3__117__compressed_pairIP7tSyntaxRNS_9allocatorIS1_EEEC1B7v160006IDnS5_EEOT_OT0_, symObjAddr: 0x529C, symBinAddr: 0x100021054, symSize: 0x3C }
  - { offsetInCU: 0xF4B9, offset: 0x575BB, size: 0x8, addend: 0x0, symName: __ZNSt3__114__split_bufferI7tSyntaxRNS_9allocatorIS1_EEE7__allocB7v160006Ev, symObjAddr: 0x52D8, symBinAddr: 0x100021090, symSize: 0x28 }
  - { offsetInCU: 0xF4DD, offset: 0x575DF, size: 0x8, addend: 0x0, symName: __ZNSt3__114__split_bufferI7tSyntaxRNS_9allocatorIS1_EEE9__end_capB7v160006Ev, symObjAddr: 0x5300, symBinAddr: 0x1000210B8, symSize: 0x28 }
  - { offsetInCU: 0xF501, offset: 0x57603, size: 0x8, addend: 0x0, symName: __ZNSt3__117__compressed_pairIP7tSyntaxRNS_9allocatorIS1_EEEC2B7v160006IDnS5_EEOT_OT0_, symObjAddr: 0x5328, symBinAddr: 0x1000210E0, symSize: 0x48 }
  - { offsetInCU: 0xF558, offset: 0x5765A, size: 0x8, addend: 0x0, symName: __ZNSt3__122__compressed_pair_elemIRNS_9allocatorI7tSyntaxEELi1ELb0EEC2B7v160006IS4_vEEOT_, symObjAddr: 0x5370, symBinAddr: 0x100021128, symSize: 0x20 }
  - { offsetInCU: 0xF599, offset: 0x5769B, size: 0x8, addend: 0x0, symName: __ZNSt3__117__compressed_pairIP7tSyntaxRNS_9allocatorIS1_EEE6secondB7v160006Ev, symObjAddr: 0x5390, symBinAddr: 0x100021148, symSize: 0x28 }
  - { offsetInCU: 0xF5BD, offset: 0x576BF, size: 0x8, addend: 0x0, symName: __ZNSt3__122__compressed_pair_elemIRNS_9allocatorI7tSyntaxEELi1ELb0EE5__getB7v160006Ev, symObjAddr: 0x53B8, symBinAddr: 0x100021170, symSize: 0x18 }
  - { offsetInCU: 0xF5E1, offset: 0x576E3, size: 0x8, addend: 0x0, symName: __ZNSt3__117__compressed_pairIP7tSyntaxRNS_9allocatorIS1_EEE5firstB7v160006Ev, symObjAddr: 0x53D0, symBinAddr: 0x100021188, symSize: 0x24 }
  - { offsetInCU: 0xF605, offset: 0x57707, size: 0x8, addend: 0x0, symName: __ZNSt3__129_AllocatorDestroyRangeReverseINS_9allocatorI7tSyntaxEENS_16reverse_iteratorIPS2_EEEC1B7v160006ERS3_RS6_S9_, symObjAddr: 0x55A8, symBinAddr: 0x100021360, symSize: 0x44 }
  - { offsetInCU: 0xF660, offset: 0x57762, size: 0x8, addend: 0x0, symName: __ZNSt3__116allocator_traitsINS_9allocatorI7tSyntaxEEE9constructB7v160006IS2_JS2_EvEEvRS3_PT_DpOT0_, symObjAddr: 0x55EC, symBinAddr: 0x1000213A4, symSize: 0x34 }
  - { offsetInCU: 0xF6B7, offset: 0x577B9, size: 0x8, addend: 0x0, symName: __ZNSt3__128__exception_guard_exceptionsINS_29_AllocatorDestroyRangeReverseINS_9allocatorI7tSyntaxEENS_16reverse_iteratorIPS3_EEEEE10__completeB7v160006Ev, symObjAddr: 0x5620, symBinAddr: 0x1000213D8, symSize: 0x1C }
  - { offsetInCU: 0xF6DB, offset: 0x577DD, size: 0x8, addend: 0x0, symName: __ZNSt3__128__exception_guard_exceptionsINS_29_AllocatorDestroyRangeReverseINS_9allocatorI7tSyntaxEENS_16reverse_iteratorIPS3_EEEEED1B7v160006Ev, symObjAddr: 0x563C, symBinAddr: 0x1000213F4, symSize: 0x2C }
  - { offsetInCU: 0xF704, offset: 0x57806, size: 0x8, addend: 0x0, symName: __ZNSt3__128__exception_guard_exceptionsINS_29_AllocatorDestroyRangeReverseINS_9allocatorI7tSyntaxEENS_16reverse_iteratorIPS3_EEEEEC1B7v160006ES8_, symObjAddr: 0x5668, symBinAddr: 0x100021420, symSize: 0x34 }
  - { offsetInCU: 0xF73C, offset: 0x5783E, size: 0x8, addend: 0x0, symName: __ZNSt3__128__exception_guard_exceptionsINS_29_AllocatorDestroyRangeReverseINS_9allocatorI7tSyntaxEENS_16reverse_iteratorIPS3_EEEEEC2B7v160006ES8_, symObjAddr: 0x569C, symBinAddr: 0x100021454, symSize: 0x30 }
  - { offsetInCU: 0xF774, offset: 0x57876, size: 0x8, addend: 0x0, symName: __ZNSt3__129_AllocatorDestroyRangeReverseINS_9allocatorI7tSyntaxEENS_16reverse_iteratorIPS2_EEEC2B7v160006ERS3_RS6_S9_, symObjAddr: 0x56CC, symBinAddr: 0x100021484, symSize: 0x38 }
  - { offsetInCU: 0xF7CA, offset: 0x578CC, size: 0x8, addend: 0x0, symName: __ZNSt3__19allocatorI7tSyntaxE9constructB7v160006IS1_JS1_EEEvPT_DpOT0_, symObjAddr: 0x5704, symBinAddr: 0x1000214BC, symSize: 0x30 }
  - { offsetInCU: 0xF81E, offset: 0x57920, size: 0x8, addend: 0x0, symName: __ZN7tSyntaxC1EOS_, symObjAddr: 0x5734, symBinAddr: 0x1000214EC, symSize: 0x34 }
  - { offsetInCU: 0xF851, offset: 0x57953, size: 0x8, addend: 0x0, symName: __ZN7tSyntaxC2EOS_, symObjAddr: 0x5768, symBinAddr: 0x100021520, symSize: 0x48 }
  - { offsetInCU: 0xF884, offset: 0x57986, size: 0x8, addend: 0x0, symName: __ZNSt3__16vectorI12tSyntaxNode_NS_9allocatorIS1_EEEC1B7v160006EOS4_, symObjAddr: 0x57B0, symBinAddr: 0x100021568, symSize: 0x34 }
  - { offsetInCU: 0xF8BD, offset: 0x579BF, size: 0x8, addend: 0x0, symName: __ZNSt3__16vectorI12tSyntaxNode_NS_9allocatorIS1_EEEC2B7v160006EOS4_, symObjAddr: 0x57E4, symBinAddr: 0x10002159C, symSize: 0xDC }
  - { offsetInCU: 0xF8F6, offset: 0x579F8, size: 0x8, addend: 0x0, symName: __ZNSt3__128__exception_guard_exceptionsINS_29_AllocatorDestroyRangeReverseINS_9allocatorI7tSyntaxEENS_16reverse_iteratorIPS3_EEEEED2B7v160006Ev, symObjAddr: 0x58D4, symBinAddr: 0x10002168C, symSize: 0x50 }
  - { offsetInCU: 0xF91F, offset: 0x57A21, size: 0x8, addend: 0x0, symName: __ZNKSt3__129_AllocatorDestroyRangeReverseINS_9allocatorI7tSyntaxEENS_16reverse_iteratorIPS2_EEEclB7v160006Ev, symObjAddr: 0x5924, symBinAddr: 0x1000216DC, symSize: 0xB4 }
  - { offsetInCU: 0xF944, offset: 0x57A46, size: 0x8, addend: 0x0, symName: __ZNSt3__116reverse_iteratorINS0_IP7tSyntaxEEEC1B7v160006ES3_, symObjAddr: 0x5A48, symBinAddr: 0x100021800, symSize: 0x3C }
  - { offsetInCU: 0xF97B, offset: 0x57A7D, size: 0x8, addend: 0x0, symName: __ZNSt3__116reverse_iteratorINS0_IP7tSyntaxEEEppB7v160006Ev, symObjAddr: 0x5B08, symBinAddr: 0x1000218C0, symSize: 0x30 }
  - { offsetInCU: 0xF99F, offset: 0x57AA1, size: 0x8, addend: 0x0, symName: __ZNKSt3__116reverse_iteratorINS0_IP7tSyntaxEEE4baseB7v160006Ev, symObjAddr: 0x5B38, symBinAddr: 0x1000218F0, symSize: 0x24 }
  - { offsetInCU: 0xF9C8, offset: 0x57ACA, size: 0x8, addend: 0x0, symName: __ZNSt3__119__to_address_helperINS_16reverse_iteratorINS1_IP7tSyntaxEEEEvE6__callB7v160006ERKS5_, symObjAddr: 0x5B5C, symBinAddr: 0x100021914, symSize: 0x38 }
  - { offsetInCU: 0xF9EB, offset: 0x57AED, size: 0x8, addend: 0x0, symName: __ZNKSt3__116reverse_iteratorINS0_IP7tSyntaxEEEptB7v160006Ev, symObjAddr: 0x5B94, symBinAddr: 0x10002194C, symSize: 0x24 }
  - { offsetInCU: 0xFA0F, offset: 0x57B11, size: 0x8, addend: 0x0, symName: __ZNKSt3__116reverse_iteratorINS0_IP7tSyntaxEEEdeB7v160006Ev, symObjAddr: 0x5BB8, symBinAddr: 0x100021970, symSize: 0x34 }
  - { offsetInCU: 0xFA41, offset: 0x57B43, size: 0x8, addend: 0x0, symName: __ZNSt3__116reverse_iteratorIP7tSyntaxEmmB7v160006Ev, symObjAddr: 0x5BEC, symBinAddr: 0x1000219A4, symSize: 0x20 }
  - { offsetInCU: 0xFA65, offset: 0x57B67, size: 0x8, addend: 0x0, symName: __ZNSt3__116reverse_iteratorINS0_IP7tSyntaxEEEC2B7v160006ES3_, symObjAddr: 0x5C0C, symBinAddr: 0x1000219C4, symSize: 0x2C }
  - { offsetInCU: 0xFA9C, offset: 0x57B9E, size: 0x8, addend: 0x0, symName: __ZNSt3__114__split_bufferI7tSyntaxRNS_9allocatorIS1_EEED2Ev, symObjAddr: 0x5C38, symBinAddr: 0x1000219F0, symSize: 0x8C }
  - { offsetInCU: 0xFAC6, offset: 0x57BC8, size: 0x8, addend: 0x0, symName: __ZNSt3__114__split_bufferI7tSyntaxRNS_9allocatorIS1_EEE5clearB7v160006Ev, symObjAddr: 0x5CC4, symBinAddr: 0x100021A7C, symSize: 0x28 }
  - { offsetInCU: 0xFAEA, offset: 0x57BEC, size: 0x8, addend: 0x0, symName: __ZNKSt3__114__split_bufferI7tSyntaxRNS_9allocatorIS1_EEE8capacityB7v160006Ev, symObjAddr: 0x5CEC, symBinAddr: 0x100021AA4, symSize: 0x40 }
  - { offsetInCU: 0xFB0E, offset: 0x57C10, size: 0x8, addend: 0x0, symName: __ZNSt3__114__split_bufferI7tSyntaxRNS_9allocatorIS1_EEE17__destruct_at_endB7v160006EPS1_, symObjAddr: 0x5D2C, symBinAddr: 0x100021AE4, symSize: 0x2C }
  - { offsetInCU: 0xFB3F, offset: 0x57C41, size: 0x8, addend: 0x0, symName: __ZNSt3__114__split_bufferI7tSyntaxRNS_9allocatorIS1_EEE17__destruct_at_endB7v160006EPS1_NS_17integral_constantIbLb0EEE, symObjAddr: 0x5D58, symBinAddr: 0x100021B10, symSize: 0x80 }
  - { offsetInCU: 0xFB7E, offset: 0x57C80, size: 0x8, addend: 0x0, symName: __ZNKSt3__114__split_bufferI7tSyntaxRNS_9allocatorIS1_EEE9__end_capB7v160006Ev, symObjAddr: 0x5DD8, symBinAddr: 0x100021B90, symSize: 0x28 }
  - { offsetInCU: 0xFBA2, offset: 0x57CA4, size: 0x8, addend: 0x0, symName: __ZNKSt3__117__compressed_pairIP7tSyntaxRNS_9allocatorIS1_EEE5firstB7v160006Ev, symObjAddr: 0x5E00, symBinAddr: 0x100021BB8, symSize: 0x24 }
  - { offsetInCU: 0xFBC6, offset: 0x57CC8, size: 0x8, addend: 0x0, symName: __ZNSt3__14pairIKiNS_12basic_stringIcNS_11char_traitsIcEENS_9allocatorIcEEEEEC2B7v160006IiRA6_KcLPv0EEEOT_OT0_, symObjAddr: 0x5E24, symBinAddr: 0x100021BDC, symSize: 0x48 }
  - { offsetInCU: 0xFC23, offset: 0x57D25, size: 0x8, addend: 0x0, symName: __ZNSt3__14pairIKiNS_12basic_stringIcNS_11char_traitsIcEENS_9allocatorIcEEEEEC2B7v160006IiRA8_KcLPv0EEEOT_OT0_, symObjAddr: 0x5E6C, symBinAddr: 0x100021C24, symSize: 0x48 }
  - { offsetInCU: 0xFC80, offset: 0x57D82, size: 0x8, addend: 0x0, symName: __ZNSt3__14pairIKiNS_12basic_stringIcNS_11char_traitsIcEENS_9allocatorIcEEEEEC2B7v160006IiRA13_KcLPv0EEEOT_OT0_, symObjAddr: 0x5EB4, symBinAddr: 0x100021C6C, symSize: 0x48 }
  - { offsetInCU: 0xFCDD, offset: 0x57DDF, size: 0x8, addend: 0x0, symName: __ZNSt3__14pairIKiNS_12basic_stringIcNS_11char_traitsIcEENS_9allocatorIcEEEEEC2B7v160006IiRA9_KcLPv0EEEOT_OT0_, symObjAddr: 0x5EFC, symBinAddr: 0x100021CB4, symSize: 0x48 }
  - { offsetInCU: 0xFD3A, offset: 0x57E3C, size: 0x8, addend: 0x0, symName: __ZNSt3__14pairIKiNS_12basic_stringIcNS_11char_traitsIcEENS_9allocatorIcEEEEEC2B7v160006IiRA11_KcLPv0EEEOT_OT0_, symObjAddr: 0x5F44, symBinAddr: 0x100021CFC, symSize: 0x48 }
  - { offsetInCU: 0xFD97, offset: 0x57E99, size: 0x8, addend: 0x0, symName: __ZNSt3__14pairIKiNS_12basic_stringIcNS_11char_traitsIcEENS_9allocatorIcEEEEEC2B7v160006IiRA7_KcLPv0EEEOT_OT0_, symObjAddr: 0x5F8C, symBinAddr: 0x100021D44, symSize: 0x48 }
  - { offsetInCU: 0xFDF4, offset: 0x57EF6, size: 0x8, addend: 0x0, symName: __ZNSt3__14pairIKiNS_12basic_stringIcNS_11char_traitsIcEENS_9allocatorIcEEEEEC2B7v160006IiRA10_KcLPv0EEEOT_OT0_, symObjAddr: 0x5FD4, symBinAddr: 0x100021D8C, symSize: 0x48 }
  - { offsetInCU: 0xFE51, offset: 0x57F53, size: 0x8, addend: 0x0, symName: __ZNSt3__14pairIKiNS_12basic_stringIcNS_11char_traitsIcEENS_9allocatorIcEEEEEC2B7v160006IiRA15_KcLPv0EEEOT_OT0_, symObjAddr: 0x601C, symBinAddr: 0x100021DD4, symSize: 0x48 }
  - { offsetInCU: 0xFEAE, offset: 0x57FB0, size: 0x8, addend: 0x0, symName: __ZNSt3__14pairIKiNS_12basic_stringIcNS_11char_traitsIcEENS_9allocatorIcEEEEEC2B7v160006IiRA16_KcLPv0EEEOT_OT0_, symObjAddr: 0x6064, symBinAddr: 0x100021E1C, symSize: 0x48 }
  - { offsetInCU: 0xFF0B, offset: 0x5800D, size: 0x8, addend: 0x0, symName: __ZNSt3__14pairIKiNS_12basic_stringIcNS_11char_traitsIcEENS_9allocatorIcEEEEEC2B7v160006IiRA18_KcLPv0EEEOT_OT0_, symObjAddr: 0x60AC, symBinAddr: 0x100021E64, symSize: 0x48 }
  - { offsetInCU: 0xFF68, offset: 0x5806A, size: 0x8, addend: 0x0, symName: __ZNSt3__14pairIKiNS_12basic_stringIcNS_11char_traitsIcEENS_9allocatorIcEEEEEC2B7v160006IiRA17_KcLPv0EEEOT_OT0_, symObjAddr: 0x60F4, symBinAddr: 0x100021EAC, symSize: 0x48 }
  - { offsetInCU: 0xFFC5, offset: 0x580C7, size: 0x8, addend: 0x0, symName: __ZNSt3__14pairIKiNS_12basic_stringIcNS_11char_traitsIcEENS_9allocatorIcEEEEEC2B7v160006IiRA14_KcLPv0EEEOT_OT0_, symObjAddr: 0x613C, symBinAddr: 0x100021EF4, symSize: 0x48 }
  - { offsetInCU: 0x10022, offset: 0x58124, size: 0x8, addend: 0x0, symName: __ZNSt3__13mapIiNS_12basic_stringIcNS_11char_traitsIcEENS_9allocatorIcEEEENS_4lessIiEENS4_INS_4pairIKiS6_EEEEEC2B7v160006ESt16initializer_listISB_ERKS8_, symObjAddr: 0x6184, symBinAddr: 0x100021F3C, symSize: 0xA4 }
  - { offsetInCU: 0x10069, offset: 0x5816B, size: 0x8, addend: 0x0, symName: __ZNSt3__119__map_value_compareIiNS_12__value_typeIiNS_12basic_stringIcNS_11char_traitsIcEENS_9allocatorIcEEEEEENS_4lessIiEELb1EEC1B7v160006ESA_, symObjAddr: 0x6228, symBinAddr: 0x100021FE0, symSize: 0x2C }
  - { offsetInCU: 0x100A1, offset: 0x581A3, size: 0x8, addend: 0x0, symName: __ZNSt3__16__treeINS_12__value_typeIiNS_12basic_stringIcNS_11char_traitsIcEENS_9allocatorIcEEEEEENS_19__map_value_compareIiS8_NS_4lessIiEELb1EEENS5_IS8_EEEC1ERKSC_, symObjAddr: 0x6254, symBinAddr: 0x10002200C, symSize: 0x34 }
  - { offsetInCU: 0x100DA, offset: 0x581DC, size: 0x8, addend: 0x0, symName: __ZNSt3__13mapIiNS_12basic_stringIcNS_11char_traitsIcEENS_9allocatorIcEEEENS_4lessIiEENS4_INS_4pairIKiS6_EEEEE6insertB7v160006IPKSB_EEvT_SH_, symObjAddr: 0x6288, symBinAddr: 0x100022040, symSize: 0x8C }
  - { offsetInCU: 0x10143, offset: 0x58245, size: 0x8, addend: 0x0, symName: __ZNKSt16initializer_listINSt3__14pairIKiNS0_12basic_stringIcNS0_11char_traitsIcEENS0_9allocatorIcEEEEEEE5beginB7v160006Ev, symObjAddr: 0x6314, symBinAddr: 0x1000220CC, symSize: 0x18 }
  - { offsetInCU: 0x10167, offset: 0x58269, size: 0x8, addend: 0x0, symName: __ZNKSt16initializer_listINSt3__14pairIKiNS0_12basic_stringIcNS0_11char_traitsIcEENS0_9allocatorIcEEEEEEE3endB7v160006Ev, symObjAddr: 0x632C, symBinAddr: 0x1000220E4, symSize: 0x20 }
  - { offsetInCU: 0x1018B, offset: 0x5828D, size: 0x8, addend: 0x0, symName: __ZNSt3__16__treeINS_12__value_typeIiNS_12basic_stringIcNS_11char_traitsIcEENS_9allocatorIcEEEEEENS_19__map_value_compareIiS8_NS_4lessIiEELb1EEENS5_IS8_EEED1Ev, symObjAddr: 0x634C, symBinAddr: 0x100022104, symSize: 0x2C }
  - { offsetInCU: 0x101B5, offset: 0x582B7, size: 0x8, addend: 0x0, symName: __ZNSt3__119__map_value_compareIiNS_12__value_typeIiNS_12basic_stringIcNS_11char_traitsIcEENS_9allocatorIcEEEEEENS_4lessIiEELb1EEC2B7v160006ESA_, symObjAddr: 0x6378, symBinAddr: 0x100022130, symSize: 0x14 }
  - { offsetInCU: 0x101ED, offset: 0x582EF, size: 0x8, addend: 0x0, symName: __ZNSt3__16__treeINS_12__value_typeIiNS_12basic_stringIcNS_11char_traitsIcEENS_9allocatorIcEEEEEENS_19__map_value_compareIiS8_NS_4lessIiEELb1EEENS5_IS8_EEEC2ERKSC_, symObjAddr: 0x638C, symBinAddr: 0x100022144, symSize: 0x7C }
  - { offsetInCU: 0x10226, offset: 0x58328, size: 0x8, addend: 0x0, symName: __ZNSt3__117__compressed_pairINS_15__tree_end_nodeIPNS_16__tree_node_baseIPvEEEENS_9allocatorINS_11__tree_nodeINS_12__value_typeIiNS_12basic_stringIcNS_11char_traitsIcEENS7_IcEEEEEES3_EEEEEC1B7v160006ILb1EvEEv, symObjAddr: 0x6408, symBinAddr: 0x1000221C0, symSize: 0x2C }
  - { offsetInCU: 0x1025A, offset: 0x5835C, size: 0x8, addend: 0x0, symName: __ZNSt3__117__compressed_pairImNS_19__map_value_compareIiNS_12__value_typeIiNS_12basic_stringIcNS_11char_traitsIcEENS_9allocatorIcEEEEEENS_4lessIiEELb1EEEEC1B7v160006IiRKSC_EEOT_OT0_, symObjAddr: 0x6434, symBinAddr: 0x1000221EC, symSize: 0x3C }
  - { offsetInCU: 0x102B1, offset: 0x583B3, size: 0x8, addend: 0x0, symName: __ZNSt3__16__treeINS_12__value_typeIiNS_12basic_stringIcNS_11char_traitsIcEENS_9allocatorIcEEEEEENS_19__map_value_compareIiS8_NS_4lessIiEELb1EEENS5_IS8_EEE10__end_nodeB7v160006Ev, symObjAddr: 0x6470, symBinAddr: 0x100022228, symSize: 0x2C }
  - { offsetInCU: 0x102D5, offset: 0x583D7, size: 0x8, addend: 0x0, symName: __ZNSt3__16__treeINS_12__value_typeIiNS_12basic_stringIcNS_11char_traitsIcEENS_9allocatorIcEEEEEENS_19__map_value_compareIiS8_NS_4lessIiEELb1EEENS5_IS8_EEE12__begin_nodeB7v160006Ev, symObjAddr: 0x649C, symBinAddr: 0x100022254, symSize: 0x14 }
  - { offsetInCU: 0x102F9, offset: 0x583FB, size: 0x8, addend: 0x0, symName: __ZNSt3__117__compressed_pairINS_15__tree_end_nodeIPNS_16__tree_node_baseIPvEEEENS_9allocatorINS_11__tree_nodeINS_12__value_typeIiNS_12basic_stringIcNS_11char_traitsIcEENS7_IcEEEEEES3_EEEEEC2B7v160006ILb1EvEEv, symObjAddr: 0x64B0, symBinAddr: 0x100022268, symSize: 0x34 }
  - { offsetInCU: 0x1032D, offset: 0x5842F, size: 0x8, addend: 0x0, symName: __ZNSt3__122__compressed_pair_elemINS_9allocatorINS_11__tree_nodeINS_12__value_typeIiNS_12basic_stringIcNS_11char_traitsIcEENS1_IcEEEEEEPvEEEELi1ELb1EEC2B7v160006ENS_16__value_init_tagE, symObjAddr: 0x6510, symBinAddr: 0x10002229C, symSize: 0x2C }
  - { offsetInCU: 0x10360, offset: 0x58462, size: 0x8, addend: 0x0, symName: __ZNSt3__19allocatorINS_11__tree_nodeINS_12__value_typeIiNS_12basic_stringIcNS_11char_traitsIcEENS0_IcEEEEEEPvEEEC2B7v160006Ev, symObjAddr: 0x6580, symBinAddr: 0x1000222C8, symSize: 0x2C }
  - { offsetInCU: 0x10389, offset: 0x5848B, size: 0x8, addend: 0x0, symName: __ZNSt3__116__non_trivial_ifILb1ENS_9allocatorINS_11__tree_nodeINS_12__value_typeIiNS_12basic_stringIcNS_11char_traitsIcEENS1_IcEEEEEEPvEEEEEC2B7v160006Ev, symObjAddr: 0x65AC, symBinAddr: 0x1000222F4, symSize: 0x14 }
  - { offsetInCU: 0x103B2, offset: 0x584B4, size: 0x8, addend: 0x0, symName: __ZNSt3__117__compressed_pairImNS_19__map_value_compareIiNS_12__value_typeIiNS_12basic_stringIcNS_11char_traitsIcEENS_9allocatorIcEEEEEENS_4lessIiEELb1EEEEC2B7v160006IiRKSC_EEOT_OT0_, symObjAddr: 0x65C0, symBinAddr: 0x100022308, symSize: 0x44 }
  - { offsetInCU: 0x10409, offset: 0x5850B, size: 0x8, addend: 0x0, symName: __ZNSt3__122__compressed_pair_elemINS_19__map_value_compareIiNS_12__value_typeIiNS_12basic_stringIcNS_11char_traitsIcEENS_9allocatorIcEEEEEENS_4lessIiEELb1EEELi1ELb1EEC2B7v160006IRKSC_vEEOT_, symObjAddr: 0x6628, symBinAddr: 0x10002234C, symSize: 0x18 }
  - { offsetInCU: 0x1044A, offset: 0x5854C, size: 0x8, addend: 0x0, symName: __ZNSt3__117__compressed_pairINS_15__tree_end_nodeIPNS_16__tree_node_baseIPvEEEENS_9allocatorINS_11__tree_nodeINS_12__value_typeIiNS_12basic_stringIcNS_11char_traitsIcEENS7_IcEEEEEES3_EEEEE5firstB7v160006Ev, symObjAddr: 0x6654, symBinAddr: 0x100022364, symSize: 0x24 }
  - { offsetInCU: 0x1046E, offset: 0x58570, size: 0x8, addend: 0x0, symName: __ZNKSt3__13mapIiNS_12basic_stringIcNS_11char_traitsIcEENS_9allocatorIcEEEENS_4lessIiEENS4_INS_4pairIKiS6_EEEEE4cendB7v160006Ev, symObjAddr: 0x668C, symBinAddr: 0x100022388, symSize: 0x2C }
  - { offsetInCU: 0x10492, offset: 0x58594, size: 0x8, addend: 0x0, symName: __ZNSt3__13mapIiNS_12basic_stringIcNS_11char_traitsIcEENS_9allocatorIcEEEENS_4lessIiEENS4_INS_4pairIKiS6_EEEEE6insertB7v160006ENS_20__map_const_iteratorINS_21__tree_const_iteratorINS_12__value_typeIiS6_EEPNS_11__tree_nodeISH_PvEElEEEERKSB_, symObjAddr: 0x66B8, symBinAddr: 0x1000223B4, symSize: 0x50 }
  - { offsetInCU: 0x104D4, offset: 0x585D6, size: 0x8, addend: 0x0, symName: __ZNSt3__120__map_const_iteratorINS_21__tree_const_iteratorINS_12__value_typeIiNS_12basic_stringIcNS_11char_traitsIcEENS_9allocatorIcEEEEEEPNS_11__tree_nodeIS9_PvEElEEEC1B7v160006ESE_, symObjAddr: 0x6708, symBinAddr: 0x100022404, symSize: 0x34 }
  - { offsetInCU: 0x1050C, offset: 0x5860E, size: 0x8, addend: 0x0, symName: __ZNKSt3__13mapIiNS_12basic_stringIcNS_11char_traitsIcEENS_9allocatorIcEEEENS_4lessIiEENS4_INS_4pairIKiS6_EEEEE3endB7v160006Ev, symObjAddr: 0x673C, symBinAddr: 0x100022438, symSize: 0x38 }
  - { offsetInCU: 0x10530, offset: 0x58632, size: 0x8, addend: 0x0, symName: __ZNKSt3__16__treeINS_12__value_typeIiNS_12basic_stringIcNS_11char_traitsIcEENS_9allocatorIcEEEEEENS_19__map_value_compareIiS8_NS_4lessIiEELb1EEENS5_IS8_EEE3endB7v160006Ev, symObjAddr: 0x6774, symBinAddr: 0x100022470, symSize: 0x34 }
  - { offsetInCU: 0x10554, offset: 0x58656, size: 0x8, addend: 0x0, symName: __ZNKSt3__16__treeINS_12__value_typeIiNS_12basic_stringIcNS_11char_traitsIcEENS_9allocatorIcEEEEEENS_19__map_value_compareIiS8_NS_4lessIiEELb1EEENS5_IS8_EEE10__end_nodeB7v160006Ev, symObjAddr: 0x67A8, symBinAddr: 0x1000224A4, symSize: 0x2C }
  - { offsetInCU: 0x10578, offset: 0x5867A, size: 0x8, addend: 0x0, symName: __ZNSt3__121__tree_const_iteratorINS_12__value_typeIiNS_12basic_stringIcNS_11char_traitsIcEENS_9allocatorIcEEEEEEPNS_11__tree_nodeIS8_PvEElEC1B7v160006EPNS_15__tree_end_nodeIPNS_16__tree_node_baseISA_EEEE, symObjAddr: 0x67D4, symBinAddr: 0x1000224D0, symSize: 0x34 }
  - { offsetInCU: 0x105B0, offset: 0x586B2, size: 0x8, addend: 0x0, symName: __ZNKSt3__117__compressed_pairINS_15__tree_end_nodeIPNS_16__tree_node_baseIPvEEEENS_9allocatorINS_11__tree_nodeINS_12__value_typeIiNS_12basic_stringIcNS_11char_traitsIcEENS7_IcEEEEEES3_EEEEE5firstB7v160006Ev, symObjAddr: 0x6808, symBinAddr: 0x100022504, symSize: 0x24 }
  - { offsetInCU: 0x105D4, offset: 0x586D6, size: 0x8, addend: 0x0, symName: __ZNSt3__121__tree_const_iteratorINS_12__value_typeIiNS_12basic_stringIcNS_11char_traitsIcEENS_9allocatorIcEEEEEEPNS_11__tree_nodeIS8_PvEElEC2B7v160006EPNS_15__tree_end_nodeIPNS_16__tree_node_baseISA_EEEE, symObjAddr: 0x6840, symBinAddr: 0x100022528, symSize: 0x20 }
  - { offsetInCU: 0x1060C, offset: 0x5870E, size: 0x8, addend: 0x0, symName: __ZNSt3__16__treeINS_12__value_typeIiNS_12basic_stringIcNS_11char_traitsIcEENS_9allocatorIcEEEEEENS_19__map_value_compareIiS8_NS_4lessIiEELb1EEENS5_IS8_EEE15__insert_uniqueB7v160006ENS_21__tree_const_iteratorIS8_PNS_11__tree_nodeIS8_PvEElEERKNS_4pairIKiS7_EE, symObjAddr: 0x6860, symBinAddr: 0x100022548, symSize: 0x64 }
  - { offsetInCU: 0x1064E, offset: 0x58750, size: 0x8, addend: 0x0, symName: __ZNSt3__114__map_iteratorINS_15__tree_iteratorINS_12__value_typeIiNS_12basic_stringIcNS_11char_traitsIcEENS_9allocatorIcEEEEEEPNS_11__tree_nodeIS9_PvEElEEEC1B7v160006ESE_, symObjAddr: 0x68C4, symBinAddr: 0x1000225AC, symSize: 0x34 }
  - { offsetInCU: 0x10685, offset: 0x58787, size: 0x8, addend: 0x0, symName: __ZNSt3__16__treeINS_12__value_typeIiNS_12basic_stringIcNS_11char_traitsIcEENS_9allocatorIcEEEEEENS_19__map_value_compareIiS8_NS_4lessIiEELb1EEENS5_IS8_EEE30__emplace_hint_unique_key_argsIiJRKNS_4pairIKiS7_EEEEENSG_INS_15__tree_iteratorIS8_PNS_11__tree_nodeIS8_PvEElEEbEENS_21__tree_const_iteratorIS8_SP_lEERKT_DpOT0_, symObjAddr: 0x68F8, symBinAddr: 0x1000225E0, symSize: 0x104 }
  - { offsetInCU: 0x10750, offset: 0x58852, size: 0x8, addend: 0x0, symName: __ZNSt3__122__tree_key_value_typesINS_12__value_typeIiNS_12basic_stringIcNS_11char_traitsIcEENS_9allocatorIcEEEEEEE9__get_keyB7v160006IKNS_4pairIKiS7_EEEENS_9enable_ifIXsr17__is_same_uncvrefIT_SD_EE5valueERSC_E4typeERSG_, symObjAddr: 0x69FC, symBinAddr: 0x1000226E4, symSize: 0x14 }
  - { offsetInCU: 0x1077C, offset: 0x5887E, size: 0x8, addend: 0x0, symName: __ZNSt3__16__treeINS_12__value_typeIiNS_12basic_stringIcNS_11char_traitsIcEENS_9allocatorIcEEEEEENS_19__map_value_compareIiS8_NS_4lessIiEELb1EEENS5_IS8_EEE12__find_equalIiEERPNS_16__tree_node_baseIPvEENS_21__tree_const_iteratorIS8_PNS_11__tree_nodeIS8_SH_EElEERPNS_15__tree_end_nodeISJ_EESK_RKT_, symObjAddr: 0x6A10, symBinAddr: 0x1000226F8, symSize: 0x304 }
  - { offsetInCU: 0x10825, offset: 0x58927, size: 0x8, addend: 0x0, symName: __ZNSt3__16__treeINS_12__value_typeIiNS_12basic_stringIcNS_11char_traitsIcEENS_9allocatorIcEEEEEENS_19__map_value_compareIiS8_NS_4lessIiEELb1EEENS5_IS8_EEE16__construct_nodeIJRKNS_4pairIKiS7_EEEEENS_10unique_ptrINS_11__tree_nodeIS8_PvEENS_22__tree_node_destructorINS5_ISO_EEEEEEDpOT_, symObjAddr: 0x6D14, symBinAddr: 0x1000229FC, symSize: 0x110 }
  - { offsetInCU: 0x10884, offset: 0x58986, size: 0x8, addend: 0x0, symName: __ZNSt3__16__treeINS_12__value_typeIiNS_12basic_stringIcNS_11char_traitsIcEENS_9allocatorIcEEEEEENS_19__map_value_compareIiS8_NS_4lessIiEELb1EEENS5_IS8_EEE16__insert_node_atEPNS_15__tree_end_nodeIPNS_16__tree_node_baseIPvEEEERSJ_SJ_, symObjAddr: 0x6E24, symBinAddr: 0x100022B0C, symSize: 0xCC }
  - { offsetInCU: 0x108D8, offset: 0x589DA, size: 0x8, addend: 0x0, symName: __ZNKSt3__110unique_ptrINS_11__tree_nodeINS_12__value_typeIiNS_12basic_stringIcNS_11char_traitsIcEENS_9allocatorIcEEEEEEPvEENS_22__tree_node_destructorINS6_ISB_EEEEE3getB7v160006Ev, symObjAddr: 0x6EF0, symBinAddr: 0x100022BD8, symSize: 0x28 }
  - { offsetInCU: 0x108FC, offset: 0x589FE, size: 0x8, addend: 0x0, symName: __ZNSt3__110unique_ptrINS_11__tree_nodeINS_12__value_typeIiNS_12basic_stringIcNS_11char_traitsIcEENS_9allocatorIcEEEEEEPvEENS_22__tree_node_destructorINS6_ISB_EEEEE7releaseB7v160006Ev, symObjAddr: 0x6F18, symBinAddr: 0x100022C00, symSize: 0x44 }
  - { offsetInCU: 0x1092F, offset: 0x58A31, size: 0x8, addend: 0x0, symName: __ZNSt3__110unique_ptrINS_11__tree_nodeINS_12__value_typeIiNS_12basic_stringIcNS_11char_traitsIcEENS_9allocatorIcEEEEEEPvEENS_22__tree_node_destructorINS6_ISB_EEEEED1B7v160006Ev, symObjAddr: 0x6F5C, symBinAddr: 0x100022C44, symSize: 0x2C }
  - { offsetInCU: 0x10958, offset: 0x58A5A, size: 0x8, addend: 0x0, symName: __ZNSt3__115__tree_iteratorINS_12__value_typeIiNS_12basic_stringIcNS_11char_traitsIcEENS_9allocatorIcEEEEEEPNS_11__tree_nodeIS8_PvEElEC1B7v160006ESC_, symObjAddr: 0x6F88, symBinAddr: 0x100022C70, symSize: 0x34 }
  - { offsetInCU: 0x1099A, offset: 0x58A9C, size: 0x8, addend: 0x0, symName: __ZNSt3__14pairINS_15__tree_iteratorINS_12__value_typeIiNS_12basic_stringIcNS_11char_traitsIcEENS_9allocatorIcEEEEEEPNS_11__tree_nodeIS9_PvEElEEbEC1B7v160006ISE_RbLSB_0EEEOT_OT0_, symObjAddr: 0x6FBC, symBinAddr: 0x100022CA4, symSize: 0x3C }
  - { offsetInCU: 0x109F7, offset: 0x58AF9, size: 0x8, addend: 0x0, symName: __ZNSt3__16__treeINS_12__value_typeIiNS_12basic_stringIcNS_11char_traitsIcEENS_9allocatorIcEEEEEENS_19__map_value_compareIiS8_NS_4lessIiEELb1EEENS5_IS8_EEE3endB7v160006Ev, symObjAddr: 0x7028, symBinAddr: 0x100022D10, symSize: 0x34 }
  - { offsetInCU: 0x10A1B, offset: 0x58B1D, size: 0x8, addend: 0x0, symName: __ZNSt3__121__tree_const_iteratorINS_12__value_typeIiNS_12basic_stringIcNS_11char_traitsIcEENS_9allocatorIcEEEEEEPNS_11__tree_nodeIS8_PvEElEC1B7v160006ENS_15__tree_iteratorIS8_SC_lEE, symObjAddr: 0x705C, symBinAddr: 0x100022D44, symSize: 0x34 }
  - { offsetInCU: 0x10A53, offset: 0x58B55, size: 0x8, addend: 0x0, symName: __ZNSt3__16__treeINS_12__value_typeIiNS_12basic_stringIcNS_11char_traitsIcEENS_9allocatorIcEEEEEENS_19__map_value_compareIiS8_NS_4lessIiEELb1EEENS5_IS8_EEE10value_compB7v160006Ev, symObjAddr: 0x7090, symBinAddr: 0x100022D78, symSize: 0x28 }
  - { offsetInCU: 0x10A77, offset: 0x58B79, size: 0x8, addend: 0x0, symName: __ZNKSt3__119__map_value_compareIiNS_12__value_typeIiNS_12basic_stringIcNS_11char_traitsIcEENS_9allocatorIcEEEEEENS_4lessIiEELb1EEclB7v160006ERKiRKS8_, symObjAddr: 0x70B8, symBinAddr: 0x100022DA0, symSize: 0x50 }
  - { offsetInCU: 0x10AB9, offset: 0x58BBB, size: 0x8, addend: 0x0, symName: __ZNKSt3__121__tree_const_iteratorINS_12__value_typeIiNS_12basic_stringIcNS_11char_traitsIcEENS_9allocatorIcEEEEEEPNS_11__tree_nodeIS8_PvEElEdeB7v160006Ev, symObjAddr: 0x7108, symBinAddr: 0x100022DF0, symSize: 0x28 }
  - { offsetInCU: 0x10ADD, offset: 0x58BDF, size: 0x8, addend: 0x0, symName: __ZNSt3__16__treeINS_12__value_typeIiNS_12basic_stringIcNS_11char_traitsIcEENS_9allocatorIcEEEEEENS_19__map_value_compareIiS8_NS_4lessIiEELb1EEENS5_IS8_EEE5beginB7v160006Ev, symObjAddr: 0x7130, symBinAddr: 0x100022E18, symSize: 0x34 }
  - { offsetInCU: 0x10B01, offset: 0x58C03, size: 0x8, addend: 0x0, symName: __ZNKSt3__119__map_value_compareIiNS_12__value_typeIiNS_12basic_stringIcNS_11char_traitsIcEENS_9allocatorIcEEEEEENS_4lessIiEELb1EEclB7v160006ERKS8_RKi, symObjAddr: 0x7164, symBinAddr: 0x100022E4C, symSize: 0x48 }
  - { offsetInCU: 0x10B43, offset: 0x58C45, size: 0x8, addend: 0x0, symName: __ZNSt3__121__tree_const_iteratorINS_12__value_typeIiNS_12basic_stringIcNS_11char_traitsIcEENS_9allocatorIcEEEEEEPNS_11__tree_nodeIS8_PvEElEmmB7v160006Ev, symObjAddr: 0x71AC, symBinAddr: 0x100022E94, symSize: 0x38 }
  - { offsetInCU: 0x10B66, offset: 0x58C68, size: 0x8, addend: 0x0, symName: __ZNSt3__16__treeINS_12__value_typeIiNS_12basic_stringIcNS_11char_traitsIcEENS_9allocatorIcEEEEEENS_19__map_value_compareIiS8_NS_4lessIiEELb1EEENS5_IS8_EEE12__find_equalIiEERPNS_16__tree_node_baseIPvEERPNS_15__tree_end_nodeISJ_EERKT_, symObjAddr: 0x71E4, symBinAddr: 0x100022ECC, symSize: 0x184 }
  - { offsetInCU: 0x10BD2, offset: 0x58CD4, size: 0x8, addend: 0x0, symName: __ZNKSt3__121__tree_const_iteratorINS_12__value_typeIiNS_12basic_stringIcNS_11char_traitsIcEENS_9allocatorIcEEEEEEPNS_11__tree_nodeIS8_PvEElE8__get_npB7v160006Ev, symObjAddr: 0x73B8, symBinAddr: 0x1000230A0, symSize: 0x18 }
  - { offsetInCU: 0x10BF6, offset: 0x58CF8, size: 0x8, addend: 0x0, symName: __ZNSt3__115__tree_iteratorINS_12__value_typeIiNS_12basic_stringIcNS_11char_traitsIcEENS_9allocatorIcEEEEEEPNS_11__tree_nodeIS8_PvEElEC1B7v160006EPNS_15__tree_end_nodeIPNS_16__tree_node_baseISA_EEEE, symObjAddr: 0x73D0, symBinAddr: 0x1000230B8, symSize: 0x34 }
  - { offsetInCU: 0x10C2E, offset: 0x58D30, size: 0x8, addend: 0x0, symName: __ZNSt3__115__tree_iteratorINS_12__value_typeIiNS_12basic_stringIcNS_11char_traitsIcEENS_9allocatorIcEEEEEEPNS_11__tree_nodeIS8_PvEElEC2B7v160006EPNS_15__tree_end_nodeIPNS_16__tree_node_baseISA_EEEE, symObjAddr: 0x7404, symBinAddr: 0x1000230EC, symSize: 0x20 }
  - { offsetInCU: 0x10C66, offset: 0x58D68, size: 0x8, addend: 0x0, symName: __ZNSt3__121__tree_const_iteratorINS_12__value_typeIiNS_12basic_stringIcNS_11char_traitsIcEENS_9allocatorIcEEEEEEPNS_11__tree_nodeIS8_PvEElEC2B7v160006ENS_15__tree_iteratorIS8_SC_lEE, symObjAddr: 0x7424, symBinAddr: 0x10002310C, symSize: 0x20 }
  - { offsetInCU: 0x10C9E, offset: 0x58DA0, size: 0x8, addend: 0x0, symName: __ZNSt3__117__compressed_pairImNS_19__map_value_compareIiNS_12__value_typeIiNS_12basic_stringIcNS_11char_traitsIcEENS_9allocatorIcEEEEEENS_4lessIiEELb1EEEE6secondB7v160006Ev, symObjAddr: 0x7444, symBinAddr: 0x10002312C, symSize: 0x24 }
  - { offsetInCU: 0x10CC2, offset: 0x58DC4, size: 0x8, addend: 0x0, symName: __ZNSt3__122__compressed_pair_elemINS_19__map_value_compareIiNS_12__value_typeIiNS_12basic_stringIcNS_11char_traitsIcEENS_9allocatorIcEEEEEENS_4lessIiEELb1EEELi1ELb1EE5__getB7v160006Ev, symObjAddr: 0x7468, symBinAddr: 0x100023150, symSize: 0x14 }
  - { offsetInCU: 0x10CE6, offset: 0x58DE8, size: 0x8, addend: 0x0, symName: __ZNKSt3__14lessIiEclB7v160006ERKiS3_, symObjAddr: 0x747C, symBinAddr: 0x100023164, symSize: 0x34 }
  - { offsetInCU: 0x10D28, offset: 0x58E2A, size: 0x8, addend: 0x0, symName: __ZNKSt3__112__value_typeIiNS_12basic_stringIcNS_11char_traitsIcEENS_9allocatorIcEEEEE11__get_valueB7v160006Ev, symObjAddr: 0x74B0, symBinAddr: 0x100023198, symSize: 0x14 }
  - { offsetInCU: 0x10D4C, offset: 0x58E4E, size: 0x8, addend: 0x0, symName: __ZNKSt3__16__treeINS_12__value_typeIiNS_12basic_stringIcNS_11char_traitsIcEENS_9allocatorIcEEEEEENS_19__map_value_compareIiS8_NS_4lessIiEELb1EEENS5_IS8_EEE6__rootB7v160006Ev, symObjAddr: 0x75EC, symBinAddr: 0x100023290, symSize: 0x28 }
  - { offsetInCU: 0x10D70, offset: 0x58E72, size: 0x8, addend: 0x0, symName: __ZNKSt3__16__treeINS_12__value_typeIiNS_12basic_stringIcNS_11char_traitsIcEENS_9allocatorIcEEEEEENS_19__map_value_compareIiS8_NS_4lessIiEELb1EEENS5_IS8_EEE10__root_ptrEv, symObjAddr: 0x7614, symBinAddr: 0x1000232B8, symSize: 0x24 }
  - { offsetInCU: 0x10D94, offset: 0x58E96, size: 0x8, addend: 0x0, symName: __ZNSt3__121__tree_const_iteratorINS_12__value_typeIiNS_12basic_stringIcNS_11char_traitsIcEENS_9allocatorIcEEEEEEPNS_11__tree_nodeIS8_PvEElEppB7v160006Ev, symObjAddr: 0x7740, symBinAddr: 0x1000233E4, symSize: 0x38 }
  - { offsetInCU: 0x10DB8, offset: 0x58EBA, size: 0x8, addend: 0x0, symName: __ZNSt3__16__treeINS_12__value_typeIiNS_12basic_stringIcNS_11char_traitsIcEENS_9allocatorIcEEEEEENS_19__map_value_compareIiS8_NS_4lessIiEELb1EEENS5_IS8_EEE12__node_allocB7v160006Ev, symObjAddr: 0x7838, symBinAddr: 0x10002341C, symSize: 0x28 }
  - { offsetInCU: 0x10DDC, offset: 0x58EDE, size: 0x8, addend: 0x0, symName: __ZNSt3__116allocator_traitsINS_9allocatorINS_11__tree_nodeINS_12__value_typeIiNS_12basic_stringIcNS_11char_traitsIcEENS1_IcEEEEEEPvEEEEE8allocateB7v160006ERSC_m, symObjAddr: 0x7860, symBinAddr: 0x100023444, symSize: 0x2C }
  - { offsetInCU: 0x10E0F, offset: 0x58F11, size: 0x8, addend: 0x0, symName: __ZNSt3__122__tree_node_destructorINS_9allocatorINS_11__tree_nodeINS_12__value_typeIiNS_12basic_stringIcNS_11char_traitsIcEENS1_IcEEEEEEPvEEEEEC1B7v160006ERSC_b, symObjAddr: 0x788C, symBinAddr: 0x100023470, symSize: 0x48 }
  - { offsetInCU: 0x10E5B, offset: 0x58F5D, size: 0x8, addend: 0x0, symName: __ZNSt3__110unique_ptrINS_11__tree_nodeINS_12__value_typeIiNS_12basic_stringIcNS_11char_traitsIcEENS_9allocatorIcEEEEEEPvEENS_22__tree_node_destructorINS6_ISB_EEEEEC1B7v160006ILb1EvEEPSB_NS_16__dependent_typeINS_27__unique_ptr_deleter_sfinaeISE_EEXT_EE20__good_rval_ref_typeE, symObjAddr: 0x78D4, symBinAddr: 0x1000234B8, symSize: 0x3C }
  - { offsetInCU: 0x10EAB, offset: 0x58FAD, size: 0x8, addend: 0x0, symName: __ZNSt3__116allocator_traitsINS_9allocatorINS_11__tree_nodeINS_12__value_typeIiNS_12basic_stringIcNS_11char_traitsIcEENS1_IcEEEEEEPvEEEEE9constructB7v160006INS_4pairIKiS8_EEJRKSH_EvEEvRSC_PT_DpOT0_, symObjAddr: 0x7910, symBinAddr: 0x1000234F4, symSize: 0x34 }
  - { offsetInCU: 0x10F02, offset: 0x59004, size: 0x8, addend: 0x0, symName: __ZNSt3__122__tree_key_value_typesINS_12__value_typeIiNS_12basic_stringIcNS_11char_traitsIcEENS_9allocatorIcEEEEEEE9__get_ptrB7v160006ERS8_, symObjAddr: 0x7944, symBinAddr: 0x100023528, symSize: 0x24 }
  - { offsetInCU: 0x10F26, offset: 0x59028, size: 0x8, addend: 0x0, symName: __ZNKSt3__110unique_ptrINS_11__tree_nodeINS_12__value_typeIiNS_12basic_stringIcNS_11char_traitsIcEENS_9allocatorIcEEEEEEPvEENS_22__tree_node_destructorINS6_ISB_EEEEEptB7v160006Ev, symObjAddr: 0x7968, symBinAddr: 0x10002354C, symSize: 0x28 }
  - { offsetInCU: 0x10F4A, offset: 0x5904C, size: 0x8, addend: 0x0, symName: __ZNSt3__110unique_ptrINS_11__tree_nodeINS_12__value_typeIiNS_12basic_stringIcNS_11char_traitsIcEENS_9allocatorIcEEEEEEPvEENS_22__tree_node_destructorINS6_ISB_EEEEE11get_deleterB7v160006Ev, symObjAddr: 0x7990, symBinAddr: 0x100023574, symSize: 0x24 }
  - { offsetInCU: 0x10F6E, offset: 0x59070, size: 0x8, addend: 0x0, symName: __ZNSt3__117__compressed_pairINS_15__tree_end_nodeIPNS_16__tree_node_baseIPvEEEENS_9allocatorINS_11__tree_nodeINS_12__value_typeIiNS_12basic_stringIcNS_11char_traitsIcEENS7_IcEEEEEES3_EEEEE6secondB7v160006Ev, symObjAddr: 0x79B4, symBinAddr: 0x100023598, symSize: 0x24 }
  - { offsetInCU: 0x10F92, offset: 0x59094, size: 0x8, addend: 0x0, symName: __ZNSt3__122__compressed_pair_elemINS_9allocatorINS_11__tree_nodeINS_12__value_typeIiNS_12basic_stringIcNS_11char_traitsIcEENS1_IcEEEEEEPvEEEELi1ELb1EE5__getB7v160006Ev, symObjAddr: 0x79D8, symBinAddr: 0x1000235BC, symSize: 0x14 }
  - { offsetInCU: 0x10FB6, offset: 0x590B8, size: 0x8, addend: 0x0, symName: __ZNSt3__19allocatorINS_11__tree_nodeINS_12__value_typeIiNS_12basic_stringIcNS_11char_traitsIcEENS0_IcEEEEEEPvEEE8allocateB7v160006Em, symObjAddr: 0x79EC, symBinAddr: 0x1000235D0, symSize: 0x58 }
  - { offsetInCU: 0x10FF2, offset: 0x590F4, size: 0x8, addend: 0x0, symName: __ZNSt3__116allocator_traitsINS_9allocatorINS_11__tree_nodeINS_12__value_typeIiNS_12basic_stringIcNS_11char_traitsIcEENS1_IcEEEEEEPvEEEEE8max_sizeB7v160006ISC_vEEmRKSC_, symObjAddr: 0x7A44, symBinAddr: 0x100023628, symSize: 0x24 }
  - { offsetInCU: 0x11020, offset: 0x59122, size: 0x8, addend: 0x0, symName: __ZNKSt3__19allocatorINS_11__tree_nodeINS_12__value_typeIiNS_12basic_stringIcNS_11char_traitsIcEENS0_IcEEEEEEPvEEE8max_sizeB7v160006Ev, symObjAddr: 0x7A68, symBinAddr: 0x10002364C, symSize: 0x14 }
  - { offsetInCU: 0x11044, offset: 0x59146, size: 0x8, addend: 0x0, symName: __ZNSt3__122__tree_node_destructorINS_9allocatorINS_11__tree_nodeINS_12__value_typeIiNS_12basic_stringIcNS_11char_traitsIcEENS1_IcEEEEEEPvEEEEEC2B7v160006ERSC_b, symObjAddr: 0x7A7C, symBinAddr: 0x100023660, symSize: 0x38 }
  - { offsetInCU: 0x1108B, offset: 0x5918D, size: 0x8, addend: 0x0, symName: __ZNSt3__110unique_ptrINS_11__tree_nodeINS_12__value_typeIiNS_12basic_stringIcNS_11char_traitsIcEENS_9allocatorIcEEEEEEPvEENS_22__tree_node_destructorINS6_ISB_EEEEEC2B7v160006ILb1EvEEPSB_NS_16__dependent_typeINS_27__unique_ptr_deleter_sfinaeISE_EEXT_EE20__good_rval_ref_typeE, symObjAddr: 0x7AB4, symBinAddr: 0x100023698, symSize: 0x48 }
  - { offsetInCU: 0x110DB, offset: 0x591DD, size: 0x8, addend: 0x0, symName: __ZNSt3__117__compressed_pairIPNS_11__tree_nodeINS_12__value_typeIiNS_12basic_stringIcNS_11char_traitsIcEENS_9allocatorIcEEEEEEPvEENS_22__tree_node_destructorINS6_ISB_EEEEEC1B7v160006IRSC_SF_EEOT_OT0_, symObjAddr: 0x7AFC, symBinAddr: 0x1000236E0, symSize: 0x3C }
  - { offsetInCU: 0x11132, offset: 0x59234, size: 0x8, addend: 0x0, symName: __ZNSt3__117__compressed_pairIPNS_11__tree_nodeINS_12__value_typeIiNS_12basic_stringIcNS_11char_traitsIcEENS_9allocatorIcEEEEEEPvEENS_22__tree_node_destructorINS6_ISB_EEEEEC2B7v160006IRSC_SF_EEOT_OT0_, symObjAddr: 0x7B38, symBinAddr: 0x10002371C, symSize: 0x48 }
  - { offsetInCU: 0x11189, offset: 0x5928B, size: 0x8, addend: 0x0, symName: __ZNSt3__122__compressed_pair_elemIPNS_11__tree_nodeINS_12__value_typeIiNS_12basic_stringIcNS_11char_traitsIcEENS_9allocatorIcEEEEEEPvEELi0ELb0EEC2B7v160006IRSC_vEEOT_, symObjAddr: 0x7B80, symBinAddr: 0x100023764, symSize: 0x24 }
  - { offsetInCU: 0x111CA, offset: 0x592CC, size: 0x8, addend: 0x0, symName: __ZNSt3__122__compressed_pair_elemINS_22__tree_node_destructorINS_9allocatorINS_11__tree_nodeINS_12__value_typeIiNS_12basic_stringIcNS_11char_traitsIcEENS2_IcEEEEEEPvEEEEEELi1ELb0EEC2B7v160006ISE_vEEOT_, symObjAddr: 0x7BA4, symBinAddr: 0x100023788, symSize: 0x24 }
  - { offsetInCU: 0x1120B, offset: 0x5930D, size: 0x8, addend: 0x0, symName: __ZNSt3__19allocatorINS_11__tree_nodeINS_12__value_typeIiNS_12basic_stringIcNS_11char_traitsIcEENS0_IcEEEEEEPvEEE9constructB7v160006INS_4pairIKiS7_EEJRKSF_EEEvPT_DpOT0_, symObjAddr: 0x7BC8, symBinAddr: 0x1000237AC, symSize: 0x30 }
  - { offsetInCU: 0x1125F, offset: 0x59361, size: 0x8, addend: 0x0, symName: __ZNSt3__14pairIKiNS_12basic_stringIcNS_11char_traitsIcEENS_9allocatorIcEEEEEC1ERKS8_, symObjAddr: 0x7BF8, symBinAddr: 0x1000237DC, symSize: 0x34 }
  - { offsetInCU: 0x11292, offset: 0x59394, size: 0x8, addend: 0x0, symName: __ZNSt3__14pairIKiNS_12basic_stringIcNS_11char_traitsIcEENS_9allocatorIcEEEEEC2ERKS8_, symObjAddr: 0x7C2C, symBinAddr: 0x100023810, symSize: 0x48 }
  - { offsetInCU: 0x112C5, offset: 0x593C7, size: 0x8, addend: 0x0, symName: __ZNSt3__112__value_typeIiNS_12basic_stringIcNS_11char_traitsIcEENS_9allocatorIcEEEEE11__get_valueB7v160006Ev, symObjAddr: 0x7C74, symBinAddr: 0x100023858, symSize: 0x14 }
  - { offsetInCU: 0x112E9, offset: 0x593EB, size: 0x8, addend: 0x0, symName: __ZNKSt3__117__compressed_pairIPNS_11__tree_nodeINS_12__value_typeIiNS_12basic_stringIcNS_11char_traitsIcEENS_9allocatorIcEEEEEEPvEENS_22__tree_node_destructorINS6_ISB_EEEEE5firstB7v160006Ev, symObjAddr: 0x7C88, symBinAddr: 0x10002386C, symSize: 0x24 }
  - { offsetInCU: 0x1130D, offset: 0x5940F, size: 0x8, addend: 0x0, symName: __ZNKSt3__122__compressed_pair_elemIPNS_11__tree_nodeINS_12__value_typeIiNS_12basic_stringIcNS_11char_traitsIcEENS_9allocatorIcEEEEEEPvEELi0ELb0EE5__getB7v160006Ev, symObjAddr: 0x7CAC, symBinAddr: 0x100023890, symSize: 0x14 }
  - { offsetInCU: 0x11331, offset: 0x59433, size: 0x8, addend: 0x0, symName: __ZNSt3__117__compressed_pairIPNS_11__tree_nodeINS_12__value_typeIiNS_12basic_stringIcNS_11char_traitsIcEENS_9allocatorIcEEEEEEPvEENS_22__tree_node_destructorINS6_ISB_EEEEE6secondB7v160006Ev, symObjAddr: 0x7CC0, symBinAddr: 0x1000238A4, symSize: 0x28 }
  - { offsetInCU: 0x11355, offset: 0x59457, size: 0x8, addend: 0x0, symName: __ZNSt3__122__compressed_pair_elemINS_22__tree_node_destructorINS_9allocatorINS_11__tree_nodeINS_12__value_typeIiNS_12basic_stringIcNS_11char_traitsIcEENS2_IcEEEEEEPvEEEEEELi1ELb0EE5__getB7v160006Ev, symObjAddr: 0x7CE8, symBinAddr: 0x1000238CC, symSize: 0x14 }
  - { offsetInCU: 0x11379, offset: 0x5947B, size: 0x8, addend: 0x0, symName: __ZNSt3__16__treeINS_12__value_typeIiNS_12basic_stringIcNS_11char_traitsIcEENS_9allocatorIcEEEEEENS_19__map_value_compareIiS8_NS_4lessIiEELb1EEENS5_IS8_EEE4sizeB7v160006Ev, symObjAddr: 0x7F78, symBinAddr: 0x1000238E0, symSize: 0x28 }
  - { offsetInCU: 0x1139D, offset: 0x5949F, size: 0x8, addend: 0x0, symName: __ZNSt3__117__compressed_pairImNS_19__map_value_compareIiNS_12__value_typeIiNS_12basic_stringIcNS_11char_traitsIcEENS_9allocatorIcEEEEEENS_4lessIiEELb1EEEE5firstB7v160006Ev, symObjAddr: 0x8164, symBinAddr: 0x100023908, symSize: 0x24 }
  - { offsetInCU: 0x113C1, offset: 0x594C3, size: 0x8, addend: 0x0, symName: __ZNSt3__117__compressed_pairIPNS_11__tree_nodeINS_12__value_typeIiNS_12basic_stringIcNS_11char_traitsIcEENS_9allocatorIcEEEEEEPvEENS_22__tree_node_destructorINS6_ISB_EEEEE5firstB7v160006Ev, symObjAddr: 0x819C, symBinAddr: 0x10002392C, symSize: 0x24 }
  - { offsetInCU: 0x113E5, offset: 0x594E7, size: 0x8, addend: 0x0, symName: __ZNSt3__122__compressed_pair_elemIPNS_11__tree_nodeINS_12__value_typeIiNS_12basic_stringIcNS_11char_traitsIcEENS_9allocatorIcEEEEEEPvEELi0ELb0EE5__getB7v160006Ev, symObjAddr: 0x81C0, symBinAddr: 0x100023950, symSize: 0x14 }
  - { offsetInCU: 0x11409, offset: 0x5950B, size: 0x8, addend: 0x0, symName: __ZNSt3__110unique_ptrINS_11__tree_nodeINS_12__value_typeIiNS_12basic_stringIcNS_11char_traitsIcEENS_9allocatorIcEEEEEEPvEENS_22__tree_node_destructorINS6_ISB_EEEEED2B7v160006Ev, symObjAddr: 0x81D4, symBinAddr: 0x100023964, symSize: 0x30 }
  - { offsetInCU: 0x11432, offset: 0x59534, size: 0x8, addend: 0x0, symName: __ZNSt3__110unique_ptrINS_11__tree_nodeINS_12__value_typeIiNS_12basic_stringIcNS_11char_traitsIcEENS_9allocatorIcEEEEEEPvEENS_22__tree_node_destructorINS6_ISB_EEEEE5resetB7v160006EPSB_, symObjAddr: 0x8204, symBinAddr: 0x100023994, symSize: 0x78 }
  - { offsetInCU: 0x11474, offset: 0x59576, size: 0x8, addend: 0x0, symName: __ZNSt3__122__tree_node_destructorINS_9allocatorINS_11__tree_nodeINS_12__value_typeIiNS_12basic_stringIcNS_11char_traitsIcEENS1_IcEEEEEEPvEEEEEclB7v160006EPSB_, symObjAddr: 0x827C, symBinAddr: 0x100023A0C, symSize: 0x98 }
  - { offsetInCU: 0x114A7, offset: 0x595A9, size: 0x8, addend: 0x0, symName: __ZNSt3__116allocator_traitsINS_9allocatorINS_11__tree_nodeINS_12__value_typeIiNS_12basic_stringIcNS_11char_traitsIcEENS1_IcEEEEEEPvEEEEE7destroyB7v160006INS_4pairIKiS8_EEvvEEvRSC_PT_, symObjAddr: 0x8314, symBinAddr: 0x100023AA4, symSize: 0x28 }
  - { offsetInCU: 0x114E2, offset: 0x595E4, size: 0x8, addend: 0x0, symName: __ZNSt3__116allocator_traitsINS_9allocatorINS_11__tree_nodeINS_12__value_typeIiNS_12basic_stringIcNS_11char_traitsIcEENS1_IcEEEEEEPvEEEEE10deallocateB7v160006ERSC_PSB_m, symObjAddr: 0x833C, symBinAddr: 0x100023ACC, symSize: 0x34 }
  - { offsetInCU: 0x11524, offset: 0x59626, size: 0x8, addend: 0x0, symName: __ZNSt3__19allocatorINS_11__tree_nodeINS_12__value_typeIiNS_12basic_stringIcNS_11char_traitsIcEENS0_IcEEEEEEPvEEE10deallocateB7v160006EPSA_m, symObjAddr: 0x8370, symBinAddr: 0x100023B00, symSize: 0x40 }
  - { offsetInCU: 0x11564, offset: 0x59666, size: 0x8, addend: 0x0, symName: __ZNSt3__115__tree_iteratorINS_12__value_typeIiNS_12basic_stringIcNS_11char_traitsIcEENS_9allocatorIcEEEEEEPNS_11__tree_nodeIS8_PvEElEC2B7v160006ESC_, symObjAddr: 0x83B0, symBinAddr: 0x100023B40, symSize: 0x20 }
  - { offsetInCU: 0x1159C, offset: 0x5969E, size: 0x8, addend: 0x0, symName: __ZNSt3__14pairINS_15__tree_iteratorINS_12__value_typeIiNS_12basic_stringIcNS_11char_traitsIcEENS_9allocatorIcEEEEEEPNS_11__tree_nodeIS9_PvEElEEbEC2B7v160006ISE_RbLSB_0EEEOT_OT0_, symObjAddr: 0x83D0, symBinAddr: 0x100023B60, symSize: 0x38 }
  - { offsetInCU: 0x115F9, offset: 0x596FB, size: 0x8, addend: 0x0, symName: __ZNSt3__114__map_iteratorINS_15__tree_iteratorINS_12__value_typeIiNS_12basic_stringIcNS_11char_traitsIcEENS_9allocatorIcEEEEEEPNS_11__tree_nodeIS9_PvEElEEEC2B7v160006ESE_, symObjAddr: 0x8408, symBinAddr: 0x100023B98, symSize: 0x20 }
  - { offsetInCU: 0x11631, offset: 0x59733, size: 0x8, addend: 0x0, symName: __ZNSt3__120__map_const_iteratorINS_21__tree_const_iteratorINS_12__value_typeIiNS_12basic_stringIcNS_11char_traitsIcEENS_9allocatorIcEEEEEEPNS_11__tree_nodeIS9_PvEElEEEC2B7v160006ESE_, symObjAddr: 0x8428, symBinAddr: 0x100023BB8, symSize: 0x20 }
  - { offsetInCU: 0x11669, offset: 0x5976B, size: 0x8, addend: 0x0, symName: __ZNSt3__16__treeINS_12__value_typeIiNS_12basic_stringIcNS_11char_traitsIcEENS_9allocatorIcEEEEEENS_19__map_value_compareIiS8_NS_4lessIiEELb1EEENS5_IS8_EEED2Ev, symObjAddr: 0x8448, symBinAddr: 0x100023BD8, symSize: 0x38 }
  - { offsetInCU: 0x11692, offset: 0x59794, size: 0x8, addend: 0x0, symName: __ZNSt3__16__treeINS_12__value_typeIiNS_12basic_stringIcNS_11char_traitsIcEENS_9allocatorIcEEEEEENS_19__map_value_compareIiS8_NS_4lessIiEELb1EEENS5_IS8_EEE7destroyEPNS_11__tree_nodeIS8_PvEE, symObjAddr: 0x8480, symBinAddr: 0x100023C10, symSize: 0xA8 }
  - { offsetInCU: 0x116DD, offset: 0x597DF, size: 0x8, addend: 0x0, symName: __ZNSt3__13mapIiNS_12basic_stringIcNS_11char_traitsIcEENS_9allocatorIcEEEENS_4lessIiEENS4_INS_4pairIKiS6_EEEEED2B7v160006Ev, symObjAddr: 0x8528, symBinAddr: 0x100023CB8, symSize: 0x2C }
  - { offsetInCU: 0x11714, offset: 0x59816, size: 0x8, addend: 0x0, symName: __ZNSt3__16__treeINS_12__value_typeIiNS_12basic_stringIcNS_11char_traitsIcEENS_9allocatorIcEEEEEENS_19__map_value_compareIiS8_NS_4lessIiEELb1EEENS5_IS8_EEE25__emplace_unique_key_argsIiJRKNS_21piecewise_construct_tENS_5tupleIJRKiEEENSJ_IJEEEEEENS_4pairINS_15__tree_iteratorIS8_PNS_11__tree_nodeIS8_PvEElEEbEERKT_DpOT0_, symObjAddr: 0x8554, symBinAddr: 0x100023CE4, symSize: 0x100 }
  - { offsetInCU: 0x117E9, offset: 0x598EB, size: 0x8, addend: 0x0, symName: __ZNKSt3__115__tree_iteratorINS_12__value_typeIiNS_12basic_stringIcNS_11char_traitsIcEENS_9allocatorIcEEEEEEPNS_11__tree_nodeIS8_PvEElEptB7v160006Ev, symObjAddr: 0x8684, symBinAddr: 0x100023E10, symSize: 0x2C }
  - { offsetInCU: 0x1180C, offset: 0x5990E, size: 0x8, addend: 0x0, symName: __ZNSt3__16__treeINS_12__value_typeIiNS_12basic_stringIcNS_11char_traitsIcEENS_9allocatorIcEEEEEENS_19__map_value_compareIiS8_NS_4lessIiEELb1EEENS5_IS8_EEE16__construct_nodeIJRKNS_21piecewise_construct_tENS_5tupleIJRKiEEENSJ_IJEEEEEENS_10unique_ptrINS_11__tree_nodeIS8_PvEENS_22__tree_node_destructorINS5_ISR_EEEEEEDpOT_, symObjAddr: 0x86B0, symBinAddr: 0x100023E3C, symSize: 0x120 }
  - { offsetInCU: 0x11894, offset: 0x59996, size: 0x8, addend: 0x0, symName: __ZNSt3__116allocator_traitsINS_9allocatorINS_11__tree_nodeINS_12__value_typeIiNS_12basic_stringIcNS_11char_traitsIcEENS1_IcEEEEEEPvEEEEE9constructB7v160006INS_4pairIKiS8_EEJRKNS_21piecewise_construct_tENS_5tupleIJRSG_EEENSL_IJEEEEvEEvRSC_PT_DpOT0_, symObjAddr: 0x87D0, symBinAddr: 0x100023F5C, symSize: 0x44 }
  - { offsetInCU: 0x11913, offset: 0x59A15, size: 0x8, addend: 0x0, symName: __ZNSt3__19allocatorINS_11__tree_nodeINS_12__value_typeIiNS_12basic_stringIcNS_11char_traitsIcEENS0_IcEEEEEEPvEEE9constructB7v160006INS_4pairIKiS7_EEJRKNS_21piecewise_construct_tENS_5tupleIJRSE_EEENSJ_IJEEEEEEvPT_DpOT0_, symObjAddr: 0x8814, symBinAddr: 0x100023FA0, symSize: 0x44 }
  - { offsetInCU: 0x1198D, offset: 0x59A8F, size: 0x8, addend: 0x0, symName: __ZNSt3__14pairIKiNS_12basic_stringIcNS_11char_traitsIcEENS_9allocatorIcEEEEEC1B7v160006IJRS1_EJEEENS_21piecewise_construct_tENS_5tupleIJDpT_EEENSC_IJDpT0_EEE, symObjAddr: 0x8858, symBinAddr: 0x100023FE4, symSize: 0x44 }
  - { offsetInCU: 0x119F3, offset: 0x59AF5, size: 0x8, addend: 0x0, symName: __ZNSt3__14pairIKiNS_12basic_stringIcNS_11char_traitsIcEENS_9allocatorIcEEEEEC1B7v160006IJRS1_EJEJLm0EEJEEENS_21piecewise_construct_tERNS_5tupleIJDpT_EEERNSC_IJDpT0_EEENS_15__tuple_indicesIJXspT1_EEEENSL_IJXspT2_EEEE, symObjAddr: 0x889C, symBinAddr: 0x100024028, symSize: 0x3C }
  - { offsetInCU: 0x11A82, offset: 0x59B84, size: 0x8, addend: 0x0, symName: __ZNSt3__14pairIKiNS_12basic_stringIcNS_11char_traitsIcEENS_9allocatorIcEEEEEC2B7v160006IJRS1_EJEJLm0EEJEEENS_21piecewise_construct_tERNS_5tupleIJDpT_EEERNSC_IJDpT0_EEENS_15__tuple_indicesIJXspT1_EEEENSL_IJXspT2_EEEE, symObjAddr: 0x88D8, symBinAddr: 0x100024064, symSize: 0x4C }
  - { offsetInCU: 0x11B11, offset: 0x59C13, size: 0x8, addend: 0x0, symName: __ZNSt3__112__tuple_leafILm0ERKiLb0EE3getB7v160006Ev, symObjAddr: 0x8974, symBinAddr: 0x1000240D4, symSize: 0x18 }
  - { offsetInCU: 0x11B35, offset: 0x59C37, size: 0x8, addend: 0x0, symName: __ZNSt3__15tupleIJRKiEEC1B7v160006INS_4_AndELi0EEES2_, symObjAddr: 0x8A1C, symBinAddr: 0x1000240EC, symSize: 0x34 }
  - { offsetInCU: 0x11B7D, offset: 0x59C7F, size: 0x8, addend: 0x0, symName: __ZNSt3__15tupleIJRKiEEC2B7v160006INS_4_AndELi0EEES2_, symObjAddr: 0x8A50, symBinAddr: 0x100024120, symSize: 0x34 }
  - { offsetInCU: 0x11BC5, offset: 0x59CC7, size: 0x8, addend: 0x0, symName: __ZNSt3__112__tuple_implINS_15__tuple_indicesIJLm0EEEEJRKiEEC1B7v160006IJLm0EEJS4_EJEJEJS4_EEENS1_IJXspT_EEEENS_13__tuple_typesIJDpT0_EEENS1_IJXspT1_EEEENS8_IJDpT2_EEEDpOT3_, symObjAddr: 0x8A84, symBinAddr: 0x100024154, symSize: 0x34 }
  - { offsetInCU: 0x11C59, offset: 0x59D5B, size: 0x8, addend: 0x0, symName: __ZNSt3__112__tuple_implINS_15__tuple_indicesIJLm0EEEEJRKiEEC2B7v160006IJLm0EEJS4_EJEJEJS4_EEENS1_IJXspT_EEEENS_13__tuple_typesIJDpT0_EEENS1_IJXspT1_EEEENS8_IJDpT2_EEEDpOT3_, symObjAddr: 0x8AB8, symBinAddr: 0x100024188, symSize: 0x34 }
  - { offsetInCU: 0x11CED, offset: 0x59DEF, size: 0x8, addend: 0x0, symName: __ZNSt3__112__tuple_leafILm0ERKiLb0EEC2B7v160006IS2_vEEOT_, symObjAddr: 0x8AEC, symBinAddr: 0x1000241BC, symSize: 0x20 }
  - { offsetInCU: 0x11D2F, offset: 0x59E31, size: 0x8, addend: 0x0, symName: __ZNSt3__114pointer_traitsIPNS_12__value_typeIiNS_12basic_stringIcNS_11char_traitsIcEENS_9allocatorIcEEEEEEE10pointer_toB7v160006ERS8_, symObjAddr: 0x8B0C, symBinAddr: 0x1000241DC, symSize: 0x14 }
  - { offsetInCU: 0x11D52, offset: 0x59E54, size: 0x8, addend: 0x0, symName: __ZNKSt3__115__tree_iteratorINS_12__value_typeIiNS_12basic_stringIcNS_11char_traitsIcEENS_9allocatorIcEEEEEEPNS_11__tree_nodeIS8_PvEElE8__get_npB7v160006Ev, symObjAddr: 0x8B20, symBinAddr: 0x1000241F0, symSize: 0x18 }
  - { offsetInCU: 0x52, offset: 0x5A05A, size: 0x8, addend: 0x0, symName: _TestStatements, symObjAddr: 0x1C3B0, symBinAddr: 0x1000356B8, symSize: 0x0 }
  - { offsetInCU: 0x3C54, offset: 0x5DC5C, size: 0x8, addend: 0x0, symName: __ZNSt3__122__make_exception_guardB7v160006INS_6vectorI13TestStatementNS_9allocatorIS2_EEE16__destroy_vectorEEENS_28__exception_guard_exceptionsIT_EES8_, symObjAddr: 0x424, symBinAddr: 0x100026778, symSize: 0x40 }
  - { offsetInCU: 0x3C89, offset: 0x5DC91, size: 0x8, addend: 0x0, symName: __ZNSt3__119__debug_db_insert_cB7v160006INS_6vectorI13TestStatementNS_9allocatorIS2_EEEEEEvPT_, symObjAddr: 0x498, symBinAddr: 0x1000267EC, symSize: 0x10 }
  - { offsetInCU: 0x3CBA, offset: 0x5DCC2, size: 0x8, addend: 0x0, symName: __ZNSt3__119__allocate_at_leastB7v160006INS_9allocatorI13TestStatementEEEENS_19__allocation_resultINS_16allocator_traitsIT_E7pointerEEERS6_m, symObjAddr: 0x844, symBinAddr: 0x100026B98, symSize: 0x40 }
  - { offsetInCU: 0x3CFD, offset: 0x5DD05, size: 0x8, addend: 0x0, symName: __ZNSt3__112__to_addressB7v160006I13TestStatementEEPT_S3_, symObjAddr: 0xDC0, symBinAddr: 0x100026EE0, symSize: 0x14 }
  - { offsetInCU: 0x3D32, offset: 0x5DD3A, size: 0x8, addend: 0x0, symName: __ZNSt3__130__uninitialized_allocator_copyB7v160006INS_9allocatorI13TestStatementEEPKS2_S5_PS2_EET2_RT_T0_T1_S7_, symObjAddr: 0xE70, symBinAddr: 0x100026F90, symSize: 0xF4 }
  - { offsetInCU: 0x3DD0, offset: 0x5DDD8, size: 0x8, addend: 0x0, symName: __ZNSt3__122__make_exception_guardB7v160006INS_29_AllocatorDestroyRangeReverseINS_9allocatorI13TestStatementEEPS3_EEEENS_28__exception_guard_exceptionsIT_EES8_, symObjAddr: 0xFDC, symBinAddr: 0x1000270FC, symSize: 0x4C }
  - { offsetInCU: 0x3E06, offset: 0x5DE0E, size: 0x8, addend: 0x0, symName: __ZNSt3__119__allocator_destroyB7v160006INS_9allocatorI13TestStatementEENS_16reverse_iteratorIPS2_EES6_EEvRT_T0_T1_, symObjAddr: 0x12F4, symBinAddr: 0x100027414, symSize: 0x70 }
  - { offsetInCU: 0x3E69, offset: 0x5DE71, size: 0x8, addend: 0x0, symName: __ZNSt3__1neB7v160006IP13TestStatementS2_EEbRKNS_16reverse_iteratorIT_EERKNS3_IT0_EE, symObjAddr: 0x1398, symBinAddr: 0x1000274B8, symSize: 0x48 }
  - { offsetInCU: 0x3EB5, offset: 0x5DEBD, size: 0x8, addend: 0x0, symName: __ZNSt3__112__to_addressB7v160006INS_16reverse_iteratorIP13TestStatementEEvEENS_5decayIDTclsr19__to_address_helperIT_EE6__callclsr3stdE7declvalIRKS6_EEEEE4typeES8_, symObjAddr: 0x140C, symBinAddr: 0x10002752C, symSize: 0x24 }
  - { offsetInCU: 0x3F14, offset: 0x5DF1C, size: 0x8, addend: 0x0, symName: __ZNSt3__118__debug_db_erase_cB7v160006INS_6vectorI13TestStatementNS_9allocatorIS2_EEEEEEvPT_, symObjAddr: 0x171C, symBinAddr: 0x10002783C, symSize: 0x10 }
  - { offsetInCU: 0x5FF9, offset: 0x60001, size: 0x8, addend: 0x0, symName: __ZN13TestStatementD1Ev, symObjAddr: 0x34, symBinAddr: 0x100026554, symSize: 0x2C }
  - { offsetInCU: 0x6023, offset: 0x6002B, size: 0x8, addend: 0x0, symName: __ZNSt3__16vectorI13TestStatementNS_9allocatorIS1_EEEC1B7v160006ESt16initializer_listIS1_E, symObjAddr: 0x60, symBinAddr: 0x100026580, symSize: 0x3C }
  - { offsetInCU: 0x605C, offset: 0x60064, size: 0x8, addend: 0x0, symName: __ZNSt3__16vectorI13TestStatementNS_9allocatorIS1_EEED1B7v160006Ev, symObjAddr: 0x9C, symBinAddr: 0x1000265BC, symSize: 0x2C }
  - { offsetInCU: 0x6085, offset: 0x6008D, size: 0x8, addend: 0x0, symName: __ZN13TestStatementD2Ev, symObjAddr: 0xC8, symBinAddr: 0x1000265E8, symSize: 0x30 }
  - { offsetInCU: 0x60B4, offset: 0x600BC, size: 0x8, addend: 0x0, symName: __ZNSt3__16vectorI13TestStatementNS_9allocatorIS1_EEEC2B7v160006ESt16initializer_listIS1_E, symObjAddr: 0x2C4, symBinAddr: 0x100026618, symSize: 0x124 }
  - { offsetInCU: 0x6108, offset: 0x60110, size: 0x8, addend: 0x0, symName: __ZNSt3__117__compressed_pairIP13TestStatementNS_9allocatorIS1_EEEC1B7v160006IDnNS_18__default_init_tagEEEOT_OT0_, symObjAddr: 0x3E8, symBinAddr: 0x10002673C, symSize: 0x3C }
  - { offsetInCU: 0x615F, offset: 0x60167, size: 0x8, addend: 0x0, symName: __ZNSt3__16vectorI13TestStatementNS_9allocatorIS1_EEE16__destroy_vectorC1ERS4_, symObjAddr: 0x464, symBinAddr: 0x1000267B8, symSize: 0x34 }
  - { offsetInCU: 0x6197, offset: 0x6019F, size: 0x8, addend: 0x0, symName: __ZNKSt16initializer_listI13TestStatementE4sizeB7v160006Ev, symObjAddr: 0x4A8, symBinAddr: 0x1000267FC, symSize: 0x18 }
  - { offsetInCU: 0x61BB, offset: 0x601C3, size: 0x8, addend: 0x0, symName: __ZNSt3__16vectorI13TestStatementNS_9allocatorIS1_EEE11__vallocateB7v160006Em, symObjAddr: 0x4C0, symBinAddr: 0x100026814, symSize: 0xB4 }
  - { offsetInCU: 0x61FD, offset: 0x60205, size: 0x8, addend: 0x0, symName: __ZNSt3__16vectorI13TestStatementNS_9allocatorIS1_EEE18__construct_at_endIPKS1_Li0EEEvT_S8_m, symObjAddr: 0x574, symBinAddr: 0x1000268C8, symSize: 0x8C }
  - { offsetInCU: 0x626E, offset: 0x60276, size: 0x8, addend: 0x0, symName: __ZNKSt16initializer_listI13TestStatementE5beginB7v160006Ev, symObjAddr: 0x600, symBinAddr: 0x100026954, symSize: 0x18 }
  - { offsetInCU: 0x6292, offset: 0x6029A, size: 0x8, addend: 0x0, symName: __ZNKSt16initializer_listI13TestStatementE3endB7v160006Ev, symObjAddr: 0x618, symBinAddr: 0x10002696C, symSize: 0x28 }
  - { offsetInCU: 0x62B6, offset: 0x602BE, size: 0x8, addend: 0x0, symName: __ZNSt3__128__exception_guard_exceptionsINS_6vectorI13TestStatementNS_9allocatorIS2_EEE16__destroy_vectorEE10__completeB7v160006Ev, symObjAddr: 0x640, symBinAddr: 0x100026994, symSize: 0x1C }
  - { offsetInCU: 0x62DA, offset: 0x602E2, size: 0x8, addend: 0x0, symName: __ZNSt3__128__exception_guard_exceptionsINS_6vectorI13TestStatementNS_9allocatorIS2_EEE16__destroy_vectorEED1B7v160006Ev, symObjAddr: 0x65C, symBinAddr: 0x1000269B0, symSize: 0x2C }
  - { offsetInCU: 0x6303, offset: 0x6030B, size: 0x8, addend: 0x0, symName: __ZNSt3__117__compressed_pairIP13TestStatementNS_9allocatorIS1_EEEC2B7v160006IDnNS_18__default_init_tagEEEOT_OT0_, symObjAddr: 0x688, symBinAddr: 0x1000269DC, symSize: 0x40 }
  - { offsetInCU: 0x635A, offset: 0x60362, size: 0x8, addend: 0x0, symName: __ZNSt3__122__compressed_pair_elemIP13TestStatementLi0ELb0EEC2B7v160006IDnvEEOT_, symObjAddr: 0x6C8, symBinAddr: 0x100026A1C, symSize: 0x1C }
  - { offsetInCU: 0x639B, offset: 0x603A3, size: 0x8, addend: 0x0, symName: __ZNSt3__122__compressed_pair_elemINS_9allocatorI13TestStatementEELi1ELb1EEC2B7v160006ENS_18__default_init_tagE, symObjAddr: 0x6E4, symBinAddr: 0x100026A38, symSize: 0x2C }
  - { offsetInCU: 0x63CE, offset: 0x603D6, size: 0x8, addend: 0x0, symName: __ZNSt3__19allocatorI13TestStatementEC2B7v160006Ev, symObjAddr: 0x710, symBinAddr: 0x100026A64, symSize: 0x2C }
  - { offsetInCU: 0x63F7, offset: 0x603FF, size: 0x8, addend: 0x0, symName: __ZNSt3__116__non_trivial_ifILb1ENS_9allocatorI13TestStatementEEEC2B7v160006Ev, symObjAddr: 0x73C, symBinAddr: 0x100026A90, symSize: 0x14 }
  - { offsetInCU: 0x6420, offset: 0x60428, size: 0x8, addend: 0x0, symName: __ZNSt3__128__exception_guard_exceptionsINS_6vectorI13TestStatementNS_9allocatorIS2_EEE16__destroy_vectorEEC1B7v160006ES6_, symObjAddr: 0x750, symBinAddr: 0x100026AA4, symSize: 0x34 }
  - { offsetInCU: 0x6457, offset: 0x6045F, size: 0x8, addend: 0x0, symName: __ZNSt3__128__exception_guard_exceptionsINS_6vectorI13TestStatementNS_9allocatorIS2_EEE16__destroy_vectorEEC2B7v160006ES6_, symObjAddr: 0x784, symBinAddr: 0x100026AD8, symSize: 0x24 }
  - { offsetInCU: 0x648E, offset: 0x60496, size: 0x8, addend: 0x0, symName: __ZNSt3__16vectorI13TestStatementNS_9allocatorIS1_EEE16__destroy_vectorC2ERS4_, symObjAddr: 0x7A8, symBinAddr: 0x100026AFC, symSize: 0x20 }
  - { offsetInCU: 0x64C6, offset: 0x604CE, size: 0x8, addend: 0x0, symName: __ZNKSt3__16vectorI13TestStatementNS_9allocatorIS1_EEE8max_sizeEv, symObjAddr: 0x7C8, symBinAddr: 0x100026B1C, symSize: 0x60 }
  - { offsetInCU: 0x64EC, offset: 0x604F4, size: 0x8, addend: 0x0, symName: __ZNKSt3__16vectorI13TestStatementNS_9allocatorIS1_EEE20__throw_length_errorB7v160006Ev, symObjAddr: 0x828, symBinAddr: 0x100026B7C, symSize: 0x1C }
  - { offsetInCU: 0x6510, offset: 0x60518, size: 0x8, addend: 0x0, symName: __ZNSt3__16vectorI13TestStatementNS_9allocatorIS1_EEE7__allocB7v160006Ev, symObjAddr: 0x884, symBinAddr: 0x100026BD8, symSize: 0x28 }
  - { offsetInCU: 0x6534, offset: 0x6053C, size: 0x8, addend: 0x0, symName: __ZNSt3__16vectorI13TestStatementNS_9allocatorIS1_EEE9__end_capB7v160006Ev, symObjAddr: 0x8AC, symBinAddr: 0x100026C00, symSize: 0x28 }
  - { offsetInCU: 0x6558, offset: 0x60560, size: 0x8, addend: 0x0, symName: __ZNKSt3__16vectorI13TestStatementNS_9allocatorIS1_EEE14__annotate_newB7v160006Em, symObjAddr: 0x8D4, symBinAddr: 0x100026C28, symSize: 0xC8 }
  - { offsetInCU: 0x6595, offset: 0x6059D, size: 0x8, addend: 0x0, symName: __ZNSt3__116allocator_traitsINS_9allocatorI13TestStatementEEE8max_sizeB7v160006IS3_vEEmRKS3_, symObjAddr: 0x9C8, symBinAddr: 0x100026CF0, symSize: 0x24 }
  - { offsetInCU: 0x65C3, offset: 0x605CB, size: 0x8, addend: 0x0, symName: __ZNKSt3__16vectorI13TestStatementNS_9allocatorIS1_EEE7__allocB7v160006Ev, symObjAddr: 0x9EC, symBinAddr: 0x100026D14, symSize: 0x28 }
  - { offsetInCU: 0x65E7, offset: 0x605EF, size: 0x8, addend: 0x0, symName: __ZNKSt3__19allocatorI13TestStatementE8max_sizeB7v160006Ev, symObjAddr: 0xAB0, symBinAddr: 0x100026D3C, symSize: 0x18 }
  - { offsetInCU: 0x660B, offset: 0x60613, size: 0x8, addend: 0x0, symName: __ZNKSt3__117__compressed_pairIP13TestStatementNS_9allocatorIS1_EEE6secondB7v160006Ev, symObjAddr: 0xAC8, symBinAddr: 0x100026D54, symSize: 0x24 }
  - { offsetInCU: 0x662F, offset: 0x60637, size: 0x8, addend: 0x0, symName: __ZNKSt3__122__compressed_pair_elemINS_9allocatorI13TestStatementEELi1ELb1EE5__getB7v160006Ev, symObjAddr: 0xAEC, symBinAddr: 0x100026D78, symSize: 0x14 }
  - { offsetInCU: 0x6653, offset: 0x6065B, size: 0x8, addend: 0x0, symName: __ZNSt3__19allocatorI13TestStatementE8allocateB7v160006Em, symObjAddr: 0xBEC, symBinAddr: 0x100026D8C, symSize: 0x5C }
  - { offsetInCU: 0x6685, offset: 0x6068D, size: 0x8, addend: 0x0, symName: __ZNSt3__117__compressed_pairIP13TestStatementNS_9allocatorIS1_EEE6secondB7v160006Ev, symObjAddr: 0xCC8, symBinAddr: 0x100026DE8, symSize: 0x24 }
  - { offsetInCU: 0x66A9, offset: 0x606B1, size: 0x8, addend: 0x0, symName: __ZNSt3__122__compressed_pair_elemINS_9allocatorI13TestStatementEELi1ELb1EE5__getB7v160006Ev, symObjAddr: 0xCEC, symBinAddr: 0x100026E0C, symSize: 0x14 }
  - { offsetInCU: 0x66CD, offset: 0x606D5, size: 0x8, addend: 0x0, symName: __ZNSt3__117__compressed_pairIP13TestStatementNS_9allocatorIS1_EEE5firstB7v160006Ev, symObjAddr: 0xD00, symBinAddr: 0x100026E20, symSize: 0x24 }
  - { offsetInCU: 0x66F1, offset: 0x606F9, size: 0x8, addend: 0x0, symName: __ZNSt3__122__compressed_pair_elemIP13TestStatementLi0ELb0EE5__getB7v160006Ev, symObjAddr: 0xD24, symBinAddr: 0x100026E44, symSize: 0x14 }
  - { offsetInCU: 0x6715, offset: 0x6071D, size: 0x8, addend: 0x0, symName: __ZNKSt3__16vectorI13TestStatementNS_9allocatorIS1_EEE31__annotate_contiguous_containerB7v160006EPKvS6_S6_S6_, symObjAddr: 0xD38, symBinAddr: 0x100026E58, symSize: 0x20 }
  - { offsetInCU: 0x6769, offset: 0x60771, size: 0x8, addend: 0x0, symName: __ZNKSt3__16vectorI13TestStatementNS_9allocatorIS1_EEE4dataB7v160006Ev, symObjAddr: 0xD58, symBinAddr: 0x100026E78, symSize: 0x28 }
  - { offsetInCU: 0x678D, offset: 0x60795, size: 0x8, addend: 0x0, symName: __ZNKSt3__16vectorI13TestStatementNS_9allocatorIS1_EEE8capacityB7v160006Ev, symObjAddr: 0xD80, symBinAddr: 0x100026EA0, symSize: 0x40 }
  - { offsetInCU: 0x67B1, offset: 0x607B9, size: 0x8, addend: 0x0, symName: __ZNKSt3__16vectorI13TestStatementNS_9allocatorIS1_EEE9__end_capB7v160006Ev, symObjAddr: 0xDD4, symBinAddr: 0x100026EF4, symSize: 0x28 }
  - { offsetInCU: 0x67D5, offset: 0x607DD, size: 0x8, addend: 0x0, symName: __ZNKSt3__117__compressed_pairIP13TestStatementNS_9allocatorIS1_EEE5firstB7v160006Ev, symObjAddr: 0xDFC, symBinAddr: 0x100026F1C, symSize: 0x24 }
  - { offsetInCU: 0x67F9, offset: 0x60801, size: 0x8, addend: 0x0, symName: __ZNKSt3__122__compressed_pair_elemIP13TestStatementLi0ELb0EE5__getB7v160006Ev, symObjAddr: 0xE20, symBinAddr: 0x100026F40, symSize: 0x14 }
  - { offsetInCU: 0x6836, offset: 0x6083E, size: 0x8, addend: 0x0, symName: __ZNSt3__16vectorI13TestStatementNS_9allocatorIS1_EEE21_ConstructTransactionC1B7v160006ERS4_m, symObjAddr: 0xE34, symBinAddr: 0x100026F54, symSize: 0x3C }
  - { offsetInCU: 0x687D, offset: 0x60885, size: 0x8, addend: 0x0, symName: __ZNSt3__16vectorI13TestStatementNS_9allocatorIS1_EEE21_ConstructTransactionD1B7v160006Ev, symObjAddr: 0xF64, symBinAddr: 0x100027084, symSize: 0x2C }
  - { offsetInCU: 0x68A6, offset: 0x608AE, size: 0x8, addend: 0x0, symName: __ZNSt3__16vectorI13TestStatementNS_9allocatorIS1_EEE21_ConstructTransactionC2B7v160006ERS4_m, symObjAddr: 0xF90, symBinAddr: 0x1000270B0, symSize: 0x4C }
  - { offsetInCU: 0x68ED, offset: 0x608F5, size: 0x8, addend: 0x0, symName: __ZNSt3__129_AllocatorDestroyRangeReverseINS_9allocatorI13TestStatementEEPS2_EC1B7v160006ERS3_RS4_S7_, symObjAddr: 0x1028, symBinAddr: 0x100027148, symSize: 0x44 }
  - { offsetInCU: 0x6943, offset: 0x6094B, size: 0x8, addend: 0x0, symName: __ZNSt3__116allocator_traitsINS_9allocatorI13TestStatementEEE9constructB7v160006IS2_JRKS2_EvEEvRS3_PT_DpOT0_, symObjAddr: 0x106C, symBinAddr: 0x10002718C, symSize: 0x34 }
  - { offsetInCU: 0x699A, offset: 0x609A2, size: 0x8, addend: 0x0, symName: __ZNSt3__128__exception_guard_exceptionsINS_29_AllocatorDestroyRangeReverseINS_9allocatorI13TestStatementEEPS3_EEE10__completeB7v160006Ev, symObjAddr: 0x10A0, symBinAddr: 0x1000271C0, symSize: 0x1C }
  - { offsetInCU: 0x69BE, offset: 0x609C6, size: 0x8, addend: 0x0, symName: __ZNSt3__128__exception_guard_exceptionsINS_29_AllocatorDestroyRangeReverseINS_9allocatorI13TestStatementEEPS3_EEED1B7v160006Ev, symObjAddr: 0x10BC, symBinAddr: 0x1000271DC, symSize: 0x2C }
  - { offsetInCU: 0x69E7, offset: 0x609EF, size: 0x8, addend: 0x0, symName: __ZNSt3__128__exception_guard_exceptionsINS_29_AllocatorDestroyRangeReverseINS_9allocatorI13TestStatementEEPS3_EEEC1B7v160006ES6_, symObjAddr: 0x10E8, symBinAddr: 0x100027208, symSize: 0x34 }
  - { offsetInCU: 0x6A1F, offset: 0x60A27, size: 0x8, addend: 0x0, symName: __ZNSt3__128__exception_guard_exceptionsINS_29_AllocatorDestroyRangeReverseINS_9allocatorI13TestStatementEEPS3_EEEC2B7v160006ES6_, symObjAddr: 0x111C, symBinAddr: 0x10002723C, symSize: 0x30 }
  - { offsetInCU: 0x6A57, offset: 0x60A5F, size: 0x8, addend: 0x0, symName: __ZNSt3__129_AllocatorDestroyRangeReverseINS_9allocatorI13TestStatementEEPS2_EC2B7v160006ERS3_RS4_S7_, symObjAddr: 0x114C, symBinAddr: 0x10002726C, symSize: 0x38 }
  - { offsetInCU: 0x6AAD, offset: 0x60AB5, size: 0x8, addend: 0x0, symName: __ZNSt3__19allocatorI13TestStatementE9constructB7v160006IS1_JRKS1_EEEvPT_DpOT0_, symObjAddr: 0x1184, symBinAddr: 0x1000272A4, symSize: 0x30 }
  - { offsetInCU: 0x6B01, offset: 0x60B09, size: 0x8, addend: 0x0, symName: __ZN13TestStatementC1ERKS_, symObjAddr: 0x11B4, symBinAddr: 0x1000272D4, symSize: 0x34 }
  - { offsetInCU: 0x6B34, offset: 0x60B3C, size: 0x8, addend: 0x0, symName: __ZN13TestStatementC2ERKS_, symObjAddr: 0x11E8, symBinAddr: 0x100027308, symSize: 0x54 }
  - { offsetInCU: 0x6B67, offset: 0x60B6F, size: 0x8, addend: 0x0, symName: __ZNSt3__128__exception_guard_exceptionsINS_29_AllocatorDestroyRangeReverseINS_9allocatorI13TestStatementEEPS3_EEED2B7v160006Ev, symObjAddr: 0x123C, symBinAddr: 0x10002735C, symSize: 0x50 }
  - { offsetInCU: 0x6B90, offset: 0x60B98, size: 0x8, addend: 0x0, symName: __ZNKSt3__129_AllocatorDestroyRangeReverseINS_9allocatorI13TestStatementEEPS2_EclB7v160006Ev, symObjAddr: 0x128C, symBinAddr: 0x1000273AC, symSize: 0x68 }
  - { offsetInCU: 0x6BB4, offset: 0x60BBC, size: 0x8, addend: 0x0, symName: __ZNSt3__116reverse_iteratorIP13TestStatementEC1B7v160006ES2_, symObjAddr: 0x1364, symBinAddr: 0x100027484, symSize: 0x34 }
  - { offsetInCU: 0x6BEB, offset: 0x60BF3, size: 0x8, addend: 0x0, symName: __ZNSt3__116allocator_traitsINS_9allocatorI13TestStatementEEE7destroyB7v160006IS2_vEEvRS3_PT_, symObjAddr: 0x13E0, symBinAddr: 0x100027500, symSize: 0x2C }
  - { offsetInCU: 0x6C28, offset: 0x60C30, size: 0x8, addend: 0x0, symName: __ZNSt3__116reverse_iteratorIP13TestStatementEppB7v160006Ev, symObjAddr: 0x1430, symBinAddr: 0x100027550, symSize: 0x20 }
  - { offsetInCU: 0x6C4C, offset: 0x60C54, size: 0x8, addend: 0x0, symName: __ZNKSt3__116reverse_iteratorIP13TestStatementE4baseB7v160006Ev, symObjAddr: 0x1450, symBinAddr: 0x100027570, symSize: 0x18 }
  - { offsetInCU: 0x6C70, offset: 0x60C78, size: 0x8, addend: 0x0, symName: __ZNSt3__19allocatorI13TestStatementE7destroyB7v160006EPS1_, symObjAddr: 0x1468, symBinAddr: 0x100027588, symSize: 0x28 }
  - { offsetInCU: 0x6CA7, offset: 0x60CAF, size: 0x8, addend: 0x0, symName: __ZNSt3__119__to_address_helperINS_16reverse_iteratorIP13TestStatementEEvE6__callB7v160006ERKS4_, symObjAddr: 0x1490, symBinAddr: 0x1000275B0, symSize: 0x38 }
  - { offsetInCU: 0x6CCA, offset: 0x60CD2, size: 0x8, addend: 0x0, symName: __ZNKSt3__116reverse_iteratorIP13TestStatementEptB7v160006Ev, symObjAddr: 0x14C8, symBinAddr: 0x1000275E8, symSize: 0x24 }
  - { offsetInCU: 0x6CEE, offset: 0x60CF6, size: 0x8, addend: 0x0, symName: __ZNKSt3__116reverse_iteratorIP13TestStatementEdeB7v160006Ev, symObjAddr: 0x14EC, symBinAddr: 0x10002760C, symSize: 0x28 }
  - { offsetInCU: 0x6D20, offset: 0x60D28, size: 0x8, addend: 0x0, symName: __ZNSt3__116reverse_iteratorIP13TestStatementEC2B7v160006ES2_, symObjAddr: 0x1514, symBinAddr: 0x100027634, symSize: 0x28 }
  - { offsetInCU: 0x6D57, offset: 0x60D5F, size: 0x8, addend: 0x0, symName: __ZNSt3__16vectorI13TestStatementNS_9allocatorIS1_EEE21_ConstructTransactionD2B7v160006Ev, symObjAddr: 0x153C, symBinAddr: 0x10002765C, symSize: 0x20 }
  - { offsetInCU: 0x6D80, offset: 0x60D88, size: 0x8, addend: 0x0, symName: __ZNSt3__128__exception_guard_exceptionsINS_6vectorI13TestStatementNS_9allocatorIS2_EEE16__destroy_vectorEED2B7v160006Ev, symObjAddr: 0x155C, symBinAddr: 0x10002767C, symSize: 0x50 }
  - { offsetInCU: 0x6DA9, offset: 0x60DB1, size: 0x8, addend: 0x0, symName: __ZNSt3__16vectorI13TestStatementNS_9allocatorIS1_EEE16__destroy_vectorclB7v160006Ev, symObjAddr: 0x15AC, symBinAddr: 0x1000276CC, symSize: 0x9C }
  - { offsetInCU: 0x6DCD, offset: 0x60DD5, size: 0x8, addend: 0x0, symName: __ZNKSt3__16vectorI13TestStatementNS_9allocatorIS1_EEE17__annotate_deleteB7v160006Ev, symObjAddr: 0x1648, symBinAddr: 0x100027768, symSize: 0xD4 }
  - { offsetInCU: 0x6DF1, offset: 0x60DF9, size: 0x8, addend: 0x0, symName: __ZNSt3__16vectorI13TestStatementNS_9allocatorIS1_EEE7__clearB7v160006Ev, symObjAddr: 0x172C, symBinAddr: 0x10002784C, symSize: 0x28 }
  - { offsetInCU: 0x6E15, offset: 0x60E1D, size: 0x8, addend: 0x0, symName: __ZNSt3__116allocator_traitsINS_9allocatorI13TestStatementEEE10deallocateB7v160006ERS3_PS2_m, symObjAddr: 0x1754, symBinAddr: 0x100027874, symSize: 0x34 }
  - { offsetInCU: 0x6E57, offset: 0x60E5F, size: 0x8, addend: 0x0, symName: __ZNKSt3__16vectorI13TestStatementNS_9allocatorIS1_EEE4sizeB7v160006Ev, symObjAddr: 0x1788, symBinAddr: 0x1000278A8, symSize: 0x28 }
  - { offsetInCU: 0x6E7B, offset: 0x60E83, size: 0x8, addend: 0x0, symName: __ZNSt3__16vectorI13TestStatementNS_9allocatorIS1_EEE22__base_destruct_at_endB7v160006EPS1_, symObjAddr: 0x17B0, symBinAddr: 0x1000278D0, symSize: 0x8C }
  - { offsetInCU: 0x6EBD, offset: 0x60EC5, size: 0x8, addend: 0x0, symName: __ZNSt3__19allocatorI13TestStatementE10deallocateB7v160006EPS1_m, symObjAddr: 0x183C, symBinAddr: 0x10002795C, symSize: 0x44 }
  - { offsetInCU: 0x6EFD, offset: 0x60F05, size: 0x8, addend: 0x0, symName: __ZNSt3__16vectorI13TestStatementNS_9allocatorIS1_EEED2B7v160006Ev, symObjAddr: 0x18FC, symBinAddr: 0x1000279A0, symSize: 0x44 }
  - { offsetInCU: 0x4634, offset: 0x655B7, size: 0x8, addend: 0x0, symName: __ZNSt3__1miB7v160006IPK5TokenS3_EEDTmicldtfp_4baseEcldtfp0_4baseEERKNS_11__wrap_iterIT_EERKNS5_IT0_EE, symObjAddr: 0x24E8, symBinAddr: 0x100029460, symSize: 0x48 }
  - { offsetInCU: 0x4680, offset: 0x65603, size: 0x8, addend: 0x0, symName: __ZNSt3__14moveB7v160006IP5TokenS2_EET0_T_S4_S3_, symObjAddr: 0x25BC, symBinAddr: 0x100029534, symSize: 0x40 }
  - { offsetInCU: 0x46DA, offset: 0x6565D, size: 0x8, addend: 0x0, symName: __ZNSt3__16__moveB7v160006INS_17_ClassicAlgPolicyEP5TokenS3_S3_EENS_4pairIT0_T2_EES5_T1_S6_, symObjAddr: 0x27A0, symBinAddr: 0x100029718, symSize: 0x44 }
  - { offsetInCU: 0x4746, offset: 0x656C9, size: 0x8, addend: 0x0, symName: __ZNSt3__123__dispatch_copy_or_moveB7v160006INS_17_ClassicAlgPolicyENS_11__move_loopIS1_EENS_14__move_trivialEP5TokenS6_S6_EENS_4pairIT2_T4_EES8_T3_S9_, symObjAddr: 0x27E4, symBinAddr: 0x10002975C, symSize: 0x44 }
  - { offsetInCU: 0x47C4, offset: 0x65747, size: 0x8, addend: 0x0, symName: __ZNSt3__121__unwrap_and_dispatchB7v160006INS_10__overloadINS_11__move_loopINS_17_ClassicAlgPolicyEEENS_14__move_trivialEEEP5TokenS8_S8_Li0EEENS_4pairIT0_T2_EESA_T1_SB_, symObjAddr: 0x2828, symBinAddr: 0x1000297A0, symSize: 0xB4 }
  - { offsetInCU: 0x4852, offset: 0x657D5, size: 0x8, addend: 0x0, symName: __ZNSt3__114__unwrap_rangeB7v160006IP5TokenS2_EENS_4pairIT0_S4_EET_S6_, symObjAddr: 0x28DC, symBinAddr: 0x100029854, symSize: 0x60 }
  - { offsetInCU: 0x49C4, offset: 0x65947, size: 0x8, addend: 0x0, symName: __ZNSt3__113__unwrap_iterB7v160006IP5TokenNS_18__unwrap_iter_implIS2_Lb1EEELi0EEEDTclsrT0_8__unwrapclsr3stdE7declvalIT_EEEES6_, symObjAddr: 0x29CC, symBinAddr: 0x100029944, symSize: 0x24 }
  - { offsetInCU: 0x4A08, offset: 0x6598B, size: 0x8, addend: 0x0, symName: __ZNSt3__19make_pairB7v160006IP5TokenS2_EENS_4pairINS_18__unwrap_ref_decayIT_E4typeENS4_IT0_E4typeEEEOS5_OS8_, symObjAddr: 0x29F0, symBinAddr: 0x100029968, symSize: 0x38 }
  - { offsetInCU: 0x4A57, offset: 0x659DA, size: 0x8, addend: 0x0, symName: __ZNSt3__114__rewrap_rangeB7v160006IP5TokenS2_EET_S3_T0_, symObjAddr: 0x2A28, symBinAddr: 0x1000299A0, symSize: 0x2C }
  - { offsetInCU: 0x4AA3, offset: 0x65A26, size: 0x8, addend: 0x0, symName: __ZNSt3__113__rewrap_iterB7v160006IP5TokenS2_NS_18__unwrap_iter_implIS2_Lb1EEEEET_S5_T0_, symObjAddr: 0x2A54, symBinAddr: 0x1000299CC, symSize: 0x3C }
  - { offsetInCU: 0x4BB5, offset: 0x65B38, size: 0x8, addend: 0x0, symName: __ZNSt3__142__uninitialized_allocator_move_if_noexceptB7v160006INS_9allocatorI5TokenEENS_16reverse_iteratorIPS2_EES6_S6_EET2_RT_T0_T1_S7_, symObjAddr: 0x3800, symBinAddr: 0x10002A1D4, symSize: 0x12C }
  - { offsetInCU: 0x4C55, offset: 0x65BD8, size: 0x8, addend: 0x0, symName: __ZNSt3__14swapB7v160006IP5TokenEENS_9enable_ifIXaasr21is_move_constructibleIT_EE5valuesr18is_move_assignableIS4_EE5valueEvE4typeERS4_S7_, symObjAddr: 0x3978, symBinAddr: 0x10002A300, symSize: 0x3C }
  - { offsetInCU: 0x4CA6, offset: 0x65C29, size: 0x8, addend: 0x0, symName: __ZNSt3__125__debug_db_invalidate_allB7v160006INS_6vectorI5TokenNS_9allocatorIS2_EEEEEEvPT_, symObjAddr: 0x3A60, symBinAddr: 0x10002A33C, symSize: 0x10 }
  - { offsetInCU: 0x4CD7, offset: 0x65C5A, size: 0x8, addend: 0x0, symName: __ZNSt3__122__make_exception_guardB7v160006INS_29_AllocatorDestroyRangeReverseINS_9allocatorI5TokenEENS_16reverse_iteratorIPS3_EEEEEENS_28__exception_guard_exceptionsIT_EESA_, symObjAddr: 0x3A70, symBinAddr: 0x10002A34C, symSize: 0x4C }
  - { offsetInCU: 0x4D0D, offset: 0x65C90, size: 0x8, addend: 0x0, symName: __ZNSt3__119__allocator_destroyB7v160006INS_9allocatorI5TokenEENS_16reverse_iteratorINS4_IPS2_EEEES7_EEvRT_T0_T1_, symObjAddr: 0x3FF8, symBinAddr: 0x10002A6A4, symSize: 0x70 }
  - { offsetInCU: 0x4D72, offset: 0x65CF5, size: 0x8, addend: 0x0, symName: __ZNSt3__1neB7v160006INS_16reverse_iteratorIP5TokenEES4_EEbRKNS1_IT_EERKNS1_IT0_EE, symObjAddr: 0x40A4, symBinAddr: 0x10002A750, symSize: 0x60 }
  - { offsetInCU: 0x4DBE, offset: 0x65D41, size: 0x8, addend: 0x0, symName: __ZNSt3__112__to_addressB7v160006INS_16reverse_iteratorINS1_IP5TokenEEEEvEENS_5decayIDTclsr19__to_address_helperIT_EE6__callclsr3stdE7declvalIRKS7_EEEEE4typeES9_, symObjAddr: 0x4104, symBinAddr: 0x10002A7B0, symSize: 0x24 }
  - { offsetInCU: 0x514C, offset: 0x660CF, size: 0x8, addend: 0x0, symName: __ZNSt3__16vectorI5TokenNS_9allocatorIS1_EEE26__swap_out_circular_bufferERNS_14__split_bufferIS1_RS3_EE, symObjAddr: 0x3030, symBinAddr: 0x100029E64, symSize: 0x118 }
  - { offsetInCU: 0x662A, offset: 0x675AD, size: 0x8, addend: 0x0, symName: __Z7isalphai, symObjAddr: 0x40C, symBinAddr: 0x1000280E0, symSize: 0x28 }
  - { offsetInCU: 0x6F52, offset: 0x67ED5, size: 0x8, addend: 0x0, symName: __Z16IsTokenSeparatorcc, symObjAddr: 0x0, symBinAddr: 0x100027D28, symSize: 0xE4 }
  - { offsetInCU: 0x6F8C, offset: 0x67F0F, size: 0x8, addend: 0x0, symName: __Z19IsValidVariableNameRNSt3__112basic_stringIcNS_11char_traitsIcEENS_9allocatorIcEEEE, symObjAddr: 0x260, symBinAddr: 0x100027F88, symSize: 0x144 }
  - { offsetInCU: 0x6FE3, offset: 0x67F66, size: 0x8, addend: 0x0, symName: __ZNSt3__112basic_stringIcNS_11char_traitsIcEENS_9allocatorIcEEEixB7v160006Em, symObjAddr: 0x434, symBinAddr: 0x100028108, symSize: 0x30 }
  - { offsetInCU: 0x7016, offset: 0x67F99, size: 0x8, addend: 0x0, symName: __ZN5Token10InitialiseEiRNSt3__112basic_stringIcNS0_11char_traitsIcEENS0_9allocatorIcEEEE, symObjAddr: 0x464, symBinAddr: 0x100028138, symSize: 0x174 }
  - { offsetInCU: 0x7190, offset: 0x68113, size: 0x8, addend: 0x0, symName: __ZN15TokenCollectionC2Ev, symObjAddr: 0x5D8, symBinAddr: 0x1000282AC, symSize: 0x2C }
  - { offsetInCU: 0x71BA, offset: 0x6813D, size: 0x8, addend: 0x0, symName: __ZNSt3__16vectorI5TokenNS_9allocatorIS1_EEEC1B7v160006Ev, symObjAddr: 0x604, symBinAddr: 0x1000282D8, symSize: 0x2C }
  - { offsetInCU: 0x71E3, offset: 0x68166, size: 0x8, addend: 0x0, symName: __ZN15TokenCollectionC1Ev, symObjAddr: 0x630, symBinAddr: 0x100028304, symSize: 0x2C }
  - { offsetInCU: 0x720D, offset: 0x68190, size: 0x8, addend: 0x0, symName: __ZN15TokenCollectionD2Ev, symObjAddr: 0x65C, symBinAddr: 0x100028330, symSize: 0x2C }
  - { offsetInCU: 0x7237, offset: 0x681BA, size: 0x8, addend: 0x0, symName: __ZN15TokenCollectionD1Ev, symObjAddr: 0x6B4, symBinAddr: 0x10002835C, symSize: 0x2C }
  - { offsetInCU: 0x7261, offset: 0x681E4, size: 0x8, addend: 0x0, symName: __ZN15TokenCollection8GetTokenEi, symObjAddr: 0x6E0, symBinAddr: 0x100028388, symSize: 0x40 }
  - { offsetInCU: 0x7296, offset: 0x68219, size: 0x8, addend: 0x0, symName: __ZN15TokenCollection11RemoveTokenEi, symObjAddr: 0x778, symBinAddr: 0x1000283C8, symSize: 0x64 }
  - { offsetInCU: 0x72CB, offset: 0x6824E, size: 0x8, addend: 0x0, symName: __ZNSt3__16vectorI5TokenNS_9allocatorIS1_EEE5eraseB7v160006ENS_11__wrap_iterIPKS1_EE, symObjAddr: 0x7DC, symBinAddr: 0x10002842C, symSize: 0xA4 }
  - { offsetInCU: 0x7328, offset: 0x682AB, size: 0x8, addend: 0x0, symName: __ZNSt3__111__wrap_iterIPK5TokenEC1B7v160006IPS1_EERKNS0_IT_EEPNS_9enable_ifIXsr14is_convertibleIS7_S3_EE5valueEvE4typeE, symObjAddr: 0x8EC, symBinAddr: 0x1000284D0, symSize: 0x3C }
  - { offsetInCU: 0x7372, offset: 0x682F5, size: 0x8, addend: 0x0, symName: __ZN15TokenCollection8AddTokenE5Token, symObjAddr: 0x928, symBinAddr: 0x10002850C, symSize: 0x2C }
  - { offsetInCU: 0x73A8, offset: 0x6832B, size: 0x8, addend: 0x0, symName: __ZNSt3__16vectorI5TokenNS_9allocatorIS1_EEE9push_backB7v160006ERKS1_, symObjAddr: 0x954, symBinAddr: 0x100028538, symSize: 0x6C }
  - { offsetInCU: 0x73DD, offset: 0x68360, size: 0x8, addend: 0x0, symName: __ZN15TokenCollection11AddNewTokenEiNSt3__112basic_stringIcNS0_11char_traitsIcEENS0_9allocatorIcEEEE, symObjAddr: 0x9C0, symBinAddr: 0x1000285A4, symSize: 0xA4 }
  - { offsetInCU: 0x743D, offset: 0x683C0, size: 0x8, addend: 0x0, symName: __ZN5TokenC1Ev, symObjAddr: 0xA64, symBinAddr: 0x100028648, symSize: 0x2C }
  - { offsetInCU: 0x7467, offset: 0x683EA, size: 0x8, addend: 0x0, symName: __ZN15TokenCollection5CountEv, symObjAddr: 0xABC, symBinAddr: 0x100028674, symSize: 0x24 }
  - { offsetInCU: 0x748E, offset: 0x68411, size: 0x8, addend: 0x0, symName: __ZN15TokenCollection9GetStringEv, symObjAddr: 0xB08, symBinAddr: 0x100028698, symSize: 0x2F8 }
  - { offsetInCU: 0x74E1, offset: 0x68464, size: 0x8, addend: 0x0, symName: __ZN15TokenCollection8TokeniseENSt3__112basic_stringIcNS0_11char_traitsIcEENS0_9allocatorIcEEEE, symObjAddr: 0x103C, symBinAddr: 0x100028990, symSize: 0x7F8 }
  - { offsetInCU: 0x7591, offset: 0x68514, size: 0x8, addend: 0x0, symName: __ZNSt3__16vectorI5TokenNS_9allocatorIS1_EEE5clearB7v160006Ev, symObjAddr: 0x1834, symBinAddr: 0x100029188, symSize: 0x4C }
  - { offsetInCU: 0x75CA, offset: 0x6854D, size: 0x8, addend: 0x0, symName: __ZN15TokenCollection13CheckBracketsEv, symObjAddr: 0x18D8, symBinAddr: 0x1000291D4, symSize: 0x178 }
  - { offsetInCU: 0x762C, offset: 0x685AF, size: 0x8, addend: 0x0, symName: __Z8__istypeim, symObjAddr: 0x1A50, symBinAddr: 0x10002934C, symSize: 0x8C }
  - { offsetInCU: 0x7666, offset: 0x685E9, size: 0x8, addend: 0x0, symName: __ZN5TokenC2Ev, symObjAddr: 0x1B48, symBinAddr: 0x1000293D8, symSize: 0x30 }
  - { offsetInCU: 0x7690, offset: 0x68613, size: 0x8, addend: 0x0, symName: __ZNSt3__16vectorI5TokenNS_9allocatorIS1_EEEC2B7v160006Ev, symObjAddr: 0x1D64, symBinAddr: 0x100029408, symSize: 0x58 }
  - { offsetInCU: 0x76BE, offset: 0x68641, size: 0x8, addend: 0x0, symName: __ZNKSt3__16vectorI5TokenNS_9allocatorIS1_EEE6cbeginB7v160006Ev, symObjAddr: 0x2530, symBinAddr: 0x1000294A8, symSize: 0x2C }
  - { offsetInCU: 0x76E2, offset: 0x68665, size: 0x8, addend: 0x0, symName: __ZNSt3__16vectorI5TokenNS_9allocatorIS1_EEE17__destruct_at_endB7v160006EPS1_, symObjAddr: 0x255C, symBinAddr: 0x1000294D4, symSize: 0x60 }
  - { offsetInCU: 0x7724, offset: 0x686A7, size: 0x8, addend: 0x0, symName: __ZNSt3__16vectorI5TokenNS_9allocatorIS1_EEE27__invalidate_iterators_pastB7v160006EPS1_, symObjAddr: 0x25FC, symBinAddr: 0x100029574, symSize: 0x14 }
  - { offsetInCU: 0x7759, offset: 0x686DC, size: 0x8, addend: 0x0, symName: __ZNKSt3__111__wrap_iterIPK5TokenE4baseB7v160006Ev, symObjAddr: 0x2610, symBinAddr: 0x100029588, symSize: 0x18 }
  - { offsetInCU: 0x777D, offset: 0x68700, size: 0x8, addend: 0x0, symName: __ZNKSt3__16vectorI5TokenNS_9allocatorIS1_EEE5beginB7v160006Ev, symObjAddr: 0x2628, symBinAddr: 0x1000295A0, symSize: 0x30 }
  - { offsetInCU: 0x77A3, offset: 0x68726, size: 0x8, addend: 0x0, symName: __ZNKSt3__16vectorI5TokenNS_9allocatorIS1_EEE11__make_iterB7v160006EPKS1_, symObjAddr: 0x2658, symBinAddr: 0x1000295D0, symSize: 0x34 }
  - { offsetInCU: 0x77D6, offset: 0x68759, size: 0x8, addend: 0x0, symName: __ZNSt3__111__wrap_iterIPK5TokenEC1B7v160006EPKvS3_, symObjAddr: 0x268C, symBinAddr: 0x100029604, symSize: 0x3C }
  - { offsetInCU: 0x781C, offset: 0x6879F, size: 0x8, addend: 0x0, symName: __ZNSt3__111__wrap_iterIPK5TokenEC2B7v160006EPKvS3_, symObjAddr: 0x26C8, symBinAddr: 0x100029640, symSize: 0x24 }
  - { offsetInCU: 0x7860, offset: 0x687E3, size: 0x8, addend: 0x0, symName: __ZNKSt3__16vectorI5TokenNS_9allocatorIS1_EEE17__annotate_shrinkB7v160006Em, symObjAddr: 0x26EC, symBinAddr: 0x100029664, symSize: 0xB4 }
  - { offsetInCU: 0x78B6, offset: 0x68839, size: 0x8, addend: 0x0, symName: __ZNKSt3__111__move_loopINS_17_ClassicAlgPolicyEEclB7v160006IP5TokenS5_S5_EENS_4pairIT_T1_EES7_T0_S8_, symObjAddr: 0x293C, symBinAddr: 0x1000298B4, symSize: 0x90 }
  - { offsetInCU: 0x7925, offset: 0x688A8, size: 0x8, addend: 0x0, symName: __ZNSt3__18_IterOpsINS_17_ClassicAlgPolicyEE11__iter_moveB7v160006IRP5TokenEENS_9enable_ifIXsr12is_referenceIDTdeclsr3stdE7declvalIRT_EEEEE5valueEDTclsr3stdE4movedeclsr3stdE7declvalIS9_EEEEE4typeEOS8_, symObjAddr: 0x2A90, symBinAddr: 0x100029A08, symSize: 0x28 }
  - { offsetInCU: 0x7950, offset: 0x688D3, size: 0x8, addend: 0x0, symName: __ZN5TokenaSEOS_, symObjAddr: 0x2AB8, symBinAddr: 0x100029A30, symSize: 0x48 }
  - { offsetInCU: 0x7981, offset: 0x68904, size: 0x8, addend: 0x0, symName: __ZNSt3__18_IterOpsINS_17_ClassicAlgPolicyEE25__validate_iter_referenceB7v160006IRP5TokenEEvv, symObjAddr: 0x2B00, symBinAddr: 0x100029A78, symSize: 0x4 }
  - { offsetInCU: 0x799F, offset: 0x68922, size: 0x8, addend: 0x0, symName: __ZNSt3__118__unwrap_iter_implIP5TokenLb1EE8__unwrapB7v160006ES2_, symObjAddr: 0x2B04, symBinAddr: 0x100029A7C, symSize: 0x24 }
  - { offsetInCU: 0x79C6, offset: 0x68949, size: 0x8, addend: 0x0, symName: __ZNSt3__14pairIP5TokenS2_EC1B7v160006IS2_S2_LPv0EEEOT_OT0_, symObjAddr: 0x2B28, symBinAddr: 0x100029AA0, symSize: 0x3C }
  - { offsetInCU: 0x7A24, offset: 0x689A7, size: 0x8, addend: 0x0, symName: __ZNSt3__14pairIP5TokenS2_EC2B7v160006IS2_S2_LPv0EEEOT_OT0_, symObjAddr: 0x2B64, symBinAddr: 0x100029ADC, symSize: 0x34 }
  - { offsetInCU: 0x7A81, offset: 0x68A04, size: 0x8, addend: 0x0, symName: __ZNSt3__118__unwrap_iter_implIP5TokenLb1EE8__rewrapB7v160006ES2_S2_, symObjAddr: 0x2B98, symBinAddr: 0x100029B10, symSize: 0x50 }
  - { offsetInCU: 0x7AB1, offset: 0x68A34, size: 0x8, addend: 0x0, symName: __ZNSt3__111__wrap_iterIPK5TokenEC2B7v160006IPS1_EERKNS0_IT_EEPNS_9enable_ifIXsr14is_convertibleIS7_S3_EE5valueEvE4typeE, symObjAddr: 0x2BE8, symBinAddr: 0x100029B60, symSize: 0x40 }
  - { offsetInCU: 0x7AFB, offset: 0x68A7E, size: 0x8, addend: 0x0, symName: __ZNSt3__16vectorI5TokenNS_9allocatorIS1_EEE22__construct_one_at_endB7v160006IJRKS1_EEEvDpOT_, symObjAddr: 0x2C68, symBinAddr: 0x100029BA0, symSize: 0x90 }
  - { offsetInCU: 0x7B48, offset: 0x68ACB, size: 0x8, addend: 0x0, symName: __ZNSt3__16vectorI5TokenNS_9allocatorIS1_EEE21__push_back_slow_pathIRKS1_EEvOT_, symObjAddr: 0x2CF8, symBinAddr: 0x100029C30, symSize: 0xD8 }
  - { offsetInCU: 0x7BBE, offset: 0x68B41, size: 0x8, addend: 0x0, symName: __ZNSt3__116allocator_traitsINS_9allocatorI5TokenEEE9constructB7v160006IS2_JRKS2_EvEEvRS3_PT_DpOT0_, symObjAddr: 0x2E44, symBinAddr: 0x100029D08, symSize: 0x34 }
  - { offsetInCU: 0x7C14, offset: 0x68B97, size: 0x8, addend: 0x0, symName: __ZNSt3__19allocatorI5TokenE9constructB7v160006IS1_JRKS1_EEEvPT_DpOT0_, symObjAddr: 0x2EE8, symBinAddr: 0x100029D3C, symSize: 0x30 }
  - { offsetInCU: 0x7C68, offset: 0x68BEB, size: 0x8, addend: 0x0, symName: __ZNKSt3__16vectorI5TokenNS_9allocatorIS1_EEE11__recommendB7v160006Em, symObjAddr: 0x2F38, symBinAddr: 0x100029D6C, symSize: 0xB4 }
  - { offsetInCU: 0x7CBC, offset: 0x68C3F, size: 0x8, addend: 0x0, symName: __ZNSt3__114__split_bufferI5TokenRNS_9allocatorIS1_EEEC1EmmS4_, symObjAddr: 0x2FEC, symBinAddr: 0x100029E20, symSize: 0x44 }
  - { offsetInCU: 0x7D10, offset: 0x68C93, size: 0x8, addend: 0x0, symName: __ZNSt3__114__split_bufferI5TokenRNS_9allocatorIS1_EEED1Ev, symObjAddr: 0x3148, symBinAddr: 0x100029F7C, symSize: 0x2C }
  - { offsetInCU: 0x7D44, offset: 0x68CC7, size: 0x8, addend: 0x0, symName: __ZNSt3__114__split_bufferI5TokenRNS_9allocatorIS1_EEEC2EmmS4_, symObjAddr: 0x34BC, symBinAddr: 0x100029FA8, symSize: 0xD4 }
  - { offsetInCU: 0x7DB5, offset: 0x68D38, size: 0x8, addend: 0x0, symName: __ZNSt3__117__compressed_pairIP5TokenRNS_9allocatorIS1_EEEC1B7v160006IDnS5_EEOT_OT0_, symObjAddr: 0x3590, symBinAddr: 0x10002A07C, symSize: 0x3C }
  - { offsetInCU: 0x7E0C, offset: 0x68D8F, size: 0x8, addend: 0x0, symName: __ZNSt3__114__split_bufferI5TokenRNS_9allocatorIS1_EEE7__allocB7v160006Ev, symObjAddr: 0x360C, symBinAddr: 0x10002A0B8, symSize: 0x28 }
  - { offsetInCU: 0x7E30, offset: 0x68DB3, size: 0x8, addend: 0x0, symName: __ZNSt3__114__split_bufferI5TokenRNS_9allocatorIS1_EEE9__end_capB7v160006Ev, symObjAddr: 0x3634, symBinAddr: 0x10002A0E0, symSize: 0x28 }
  - { offsetInCU: 0x7E54, offset: 0x68DD7, size: 0x8, addend: 0x0, symName: __ZNSt3__117__compressed_pairIP5TokenRNS_9allocatorIS1_EEEC2B7v160006IDnS5_EEOT_OT0_, symObjAddr: 0x365C, symBinAddr: 0x10002A108, symSize: 0x48 }
  - { offsetInCU: 0x7EAC, offset: 0x68E2F, size: 0x8, addend: 0x0, symName: __ZNSt3__122__compressed_pair_elemIRNS_9allocatorI5TokenEELi1ELb0EEC2B7v160006IS4_vEEOT_, symObjAddr: 0x36A4, symBinAddr: 0x10002A150, symSize: 0x20 }
  - { offsetInCU: 0x7EEC, offset: 0x68E6F, size: 0x8, addend: 0x0, symName: __ZNSt3__117__compressed_pairIP5TokenRNS_9allocatorIS1_EEE6secondB7v160006Ev, symObjAddr: 0x379C, symBinAddr: 0x10002A170, symSize: 0x28 }
  - { offsetInCU: 0x7F10, offset: 0x68E93, size: 0x8, addend: 0x0, symName: __ZNSt3__122__compressed_pair_elemIRNS_9allocatorI5TokenEELi1ELb0EE5__getB7v160006Ev, symObjAddr: 0x37C4, symBinAddr: 0x10002A198, symSize: 0x18 }
  - { offsetInCU: 0x7F34, offset: 0x68EB7, size: 0x8, addend: 0x0, symName: __ZNSt3__117__compressed_pairIP5TokenRNS_9allocatorIS1_EEE5firstB7v160006Ev, symObjAddr: 0x37DC, symBinAddr: 0x10002A1B0, symSize: 0x24 }
  - { offsetInCU: 0x7F58, offset: 0x68EDB, size: 0x8, addend: 0x0, symName: __ZNSt3__129_AllocatorDestroyRangeReverseINS_9allocatorI5TokenEENS_16reverse_iteratorIPS2_EEEC1B7v160006ERS3_RS6_S9_, symObjAddr: 0x3ABC, symBinAddr: 0x10002A398, symSize: 0x44 }
  - { offsetInCU: 0x7FAF, offset: 0x68F32, size: 0x8, addend: 0x0, symName: __ZNSt3__116allocator_traitsINS_9allocatorI5TokenEEE9constructB7v160006IS2_JS2_EvEEvRS3_PT_DpOT0_, symObjAddr: 0x3B48, symBinAddr: 0x10002A3DC, symSize: 0x34 }
  - { offsetInCU: 0x8005, offset: 0x68F88, size: 0x8, addend: 0x0, symName: __ZNSt3__128__exception_guard_exceptionsINS_29_AllocatorDestroyRangeReverseINS_9allocatorI5TokenEENS_16reverse_iteratorIPS3_EEEEE10__completeB7v160006Ev, symObjAddr: 0x3BE8, symBinAddr: 0x10002A410, symSize: 0x1C }
  - { offsetInCU: 0x8029, offset: 0x68FAC, size: 0x8, addend: 0x0, symName: __ZNSt3__128__exception_guard_exceptionsINS_29_AllocatorDestroyRangeReverseINS_9allocatorI5TokenEENS_16reverse_iteratorIPS3_EEEEED1B7v160006Ev, symObjAddr: 0x3C04, symBinAddr: 0x10002A42C, symSize: 0x2C }
  - { offsetInCU: 0x8052, offset: 0x68FD5, size: 0x8, addend: 0x0, symName: __ZNSt3__128__exception_guard_exceptionsINS_29_AllocatorDestroyRangeReverseINS_9allocatorI5TokenEENS_16reverse_iteratorIPS3_EEEEEC1B7v160006ES8_, symObjAddr: 0x3C30, symBinAddr: 0x10002A458, symSize: 0x34 }
  - { offsetInCU: 0x808B, offset: 0x6900E, size: 0x8, addend: 0x0, symName: __ZNSt3__128__exception_guard_exceptionsINS_29_AllocatorDestroyRangeReverseINS_9allocatorI5TokenEENS_16reverse_iteratorIPS3_EEEEEC2B7v160006ES8_, symObjAddr: 0x3C64, symBinAddr: 0x10002A48C, symSize: 0x30 }
  - { offsetInCU: 0x80C3, offset: 0x69046, size: 0x8, addend: 0x0, symName: __ZNSt3__129_AllocatorDestroyRangeReverseINS_9allocatorI5TokenEENS_16reverse_iteratorIPS2_EEEC2B7v160006ERS3_RS6_S9_, symObjAddr: 0x3C94, symBinAddr: 0x10002A4BC, symSize: 0x38 }
  - { offsetInCU: 0x8118, offset: 0x6909B, size: 0x8, addend: 0x0, symName: __ZNSt3__19allocatorI5TokenE9constructB7v160006IS1_JS1_EEEvPT_DpOT0_, symObjAddr: 0x3CCC, symBinAddr: 0x10002A4F4, symSize: 0x30 }
  - { offsetInCU: 0x816C, offset: 0x690EF, size: 0x8, addend: 0x0, symName: __ZN5TokenC1EOS_, symObjAddr: 0x3CFC, symBinAddr: 0x10002A524, symSize: 0x34 }
  - { offsetInCU: 0x819F, offset: 0x69122, size: 0x8, addend: 0x0, symName: __ZN5TokenC2EOS_, symObjAddr: 0x3D30, symBinAddr: 0x10002A558, symSize: 0x48 }
  - { offsetInCU: 0x81D2, offset: 0x69155, size: 0x8, addend: 0x0, symName: __ZNSt3__128__exception_guard_exceptionsINS_29_AllocatorDestroyRangeReverseINS_9allocatorI5TokenEENS_16reverse_iteratorIPS3_EEEEED2B7v160006Ev, symObjAddr: 0x3EF4, symBinAddr: 0x10002A5A0, symSize: 0x50 }
  - { offsetInCU: 0x81FB, offset: 0x6917E, size: 0x8, addend: 0x0, symName: __ZNKSt3__129_AllocatorDestroyRangeReverseINS_9allocatorI5TokenEENS_16reverse_iteratorIPS2_EEEclB7v160006Ev, symObjAddr: 0x3F44, symBinAddr: 0x10002A5F0, symSize: 0xB4 }
  - { offsetInCU: 0x8220, offset: 0x691A3, size: 0x8, addend: 0x0, symName: __ZNSt3__116reverse_iteratorINS0_IP5TokenEEEC1B7v160006ES3_, symObjAddr: 0x4068, symBinAddr: 0x10002A714, symSize: 0x3C }
  - { offsetInCU: 0x8257, offset: 0x691DA, size: 0x8, addend: 0x0, symName: __ZNSt3__116reverse_iteratorINS0_IP5TokenEEEppB7v160006Ev, symObjAddr: 0x4128, symBinAddr: 0x10002A7D4, symSize: 0x30 }
  - { offsetInCU: 0x827B, offset: 0x691FE, size: 0x8, addend: 0x0, symName: __ZNKSt3__116reverse_iteratorINS0_IP5TokenEEE4baseB7v160006Ev, symObjAddr: 0x4158, symBinAddr: 0x10002A804, symSize: 0x24 }
  - { offsetInCU: 0x82A5, offset: 0x69228, size: 0x8, addend: 0x0, symName: __ZNSt3__119__to_address_helperINS_16reverse_iteratorINS1_IP5TokenEEEEvE6__callB7v160006ERKS5_, symObjAddr: 0x417C, symBinAddr: 0x10002A828, symSize: 0x38 }
  - { offsetInCU: 0x82C7, offset: 0x6924A, size: 0x8, addend: 0x0, symName: __ZNKSt3__116reverse_iteratorINS0_IP5TokenEEEptB7v160006Ev, symObjAddr: 0x41B4, symBinAddr: 0x10002A860, symSize: 0x24 }
  - { offsetInCU: 0x82EB, offset: 0x6926E, size: 0x8, addend: 0x0, symName: __ZNKSt3__116reverse_iteratorINS0_IP5TokenEEEdeB7v160006Ev, symObjAddr: 0x41D8, symBinAddr: 0x10002A884, symSize: 0x34 }
  - { offsetInCU: 0x831D, offset: 0x692A0, size: 0x8, addend: 0x0, symName: __ZNSt3__116reverse_iteratorIP5TokenEmmB7v160006Ev, symObjAddr: 0x420C, symBinAddr: 0x10002A8B8, symSize: 0x20 }
  - { offsetInCU: 0x8342, offset: 0x692C5, size: 0x8, addend: 0x0, symName: __ZNSt3__116reverse_iteratorINS0_IP5TokenEEEC2B7v160006ES3_, symObjAddr: 0x422C, symBinAddr: 0x10002A8D8, symSize: 0x2C }
  - { offsetInCU: 0x8379, offset: 0x692FC, size: 0x8, addend: 0x0, symName: __ZNSt3__114__split_bufferI5TokenRNS_9allocatorIS1_EEED2Ev, symObjAddr: 0x4280, symBinAddr: 0x10002A904, symSize: 0x8C }
  - { offsetInCU: 0x83A2, offset: 0x69325, size: 0x8, addend: 0x0, symName: __ZNSt3__114__split_bufferI5TokenRNS_9allocatorIS1_EEE5clearB7v160006Ev, symObjAddr: 0x430C, symBinAddr: 0x10002A990, symSize: 0x28 }
  - { offsetInCU: 0x83C6, offset: 0x69349, size: 0x8, addend: 0x0, symName: __ZNKSt3__114__split_bufferI5TokenRNS_9allocatorIS1_EEE8capacityB7v160006Ev, symObjAddr: 0x4334, symBinAddr: 0x10002A9B8, symSize: 0x40 }
  - { offsetInCU: 0x83EA, offset: 0x6936D, size: 0x8, addend: 0x0, symName: __ZNSt3__114__split_bufferI5TokenRNS_9allocatorIS1_EEE17__destruct_at_endB7v160006EPS1_, symObjAddr: 0x4374, symBinAddr: 0x10002A9F8, symSize: 0x2C }
  - { offsetInCU: 0x841C, offset: 0x6939F, size: 0x8, addend: 0x0, symName: __ZNSt3__114__split_bufferI5TokenRNS_9allocatorIS1_EEE17__destruct_at_endB7v160006EPS1_NS_17integral_constantIbLb0EEE, symObjAddr: 0x43A0, symBinAddr: 0x10002AA24, symSize: 0x80 }
  - { offsetInCU: 0x845A, offset: 0x693DD, size: 0x8, addend: 0x0, symName: __ZNKSt3__114__split_bufferI5TokenRNS_9allocatorIS1_EEE9__end_capB7v160006Ev, symObjAddr: 0x4420, symBinAddr: 0x10002AAA4, symSize: 0x28 }
  - { offsetInCU: 0x847E, offset: 0x69401, size: 0x8, addend: 0x0, symName: __ZNKSt3__117__compressed_pairIP5TokenRNS_9allocatorIS1_EEE5firstB7v160006Ev, symObjAddr: 0x4448, symBinAddr: 0x10002AACC, symSize: 0x24 }
  - { offsetInCU: 0x3F, offset: 0x694DF, size: 0x8, addend: 0x0, symName: _TestOn, symObjAddr: 0x34D28, symBinAddr: 0x1000356D0, symSize: 0x0 }
  - { offsetInCU: 0x5C, offset: 0x694FC, size: 0x8, addend: 0x0, symName: _Program, symObjAddr: 0x34D30, symBinAddr: 0x1000356D8, symSize: 0x0 }
  - { offsetInCU: 0x67EA, offset: 0x6FC8A, size: 0x8, addend: 0x0, symName: __ZNSt3__1eqB7v160006IcNS_11char_traitsIcEENS_9allocatorIcEEEEbRKNS_12basic_stringIT_T0_T1_EEPKS6_, symObjAddr: 0xC70, symBinAddr: 0x10002B664, symSize: 0xAC }
  - { offsetInCU: 0x8EF7, offset: 0x72397, size: 0x8, addend: 0x0, symName: __Z10PromptLoopv, symObjAddr: 0x58, symBinAddr: 0x10002AAF0, symSize: 0xAC8 }
  - { offsetInCU: 0x9064, offset: 0x72504, size: 0x8, addend: 0x0, symName: __ZNSt3__16vectorI13TestStatementNS_9allocatorIS1_EEEixB7v160006Em, symObjAddr: 0xB74, symBinAddr: 0x10002B5B8, symSize: 0x2C }
  - { offsetInCU: 0x9099, offset: 0x72539, size: 0x8, addend: 0x0, symName: __ZN11InstructionC1Ev, symObjAddr: 0xBA0, symBinAddr: 0x10002B5E4, symSize: 0x2C }
  - { offsetInCU: 0x90C3, offset: 0x72563, size: 0x8, addend: 0x0, symName: __ZNSt3__16vectorI11InstructionNS_9allocatorIS1_EEE5clearB7v160006Ev, symObjAddr: 0xBF0, symBinAddr: 0x10002B610, symSize: 0x54 }
  - { offsetInCU: 0x90FB, offset: 0x7259B, size: 0x8, addend: 0x0, symName: _main, symObjAddr: 0xDE4, symBinAddr: 0x10002B710, symSize: 0xB8 }
  - { offsetInCU: 0x9115, offset: 0x725B5, size: 0x8, addend: 0x0, symName: __ZN11InstructionC2Ev, symObjAddr: 0xE9C, symBinAddr: 0x10002B7C8, symSize: 0x30 }
  - { offsetInCU: 0x913F, offset: 0x725DF, size: 0x8, addend: 0x0, symName: __ZNSt3__16vectorI7CommandNS_9allocatorIS1_EEEC1B7v160006Ev, symObjAddr: 0xECC, symBinAddr: 0x10002B7F8, symSize: 0x2C }
  - { offsetInCU: 0x9168, offset: 0x72608, size: 0x8, addend: 0x0, symName: __ZNSt3__16vectorI7CommandNS_9allocatorIS1_EEEC2B7v160006Ev, symObjAddr: 0xEF8, symBinAddr: 0x10002B824, symSize: 0x58 }
  - { offsetInCU: 0x919B, offset: 0x7263B, size: 0x8, addend: 0x0, symName: __ZNSt3__117__compressed_pairIP7CommandNS_9allocatorIS1_EEEC1B7v160006IDnNS_18__default_init_tagEEEOT_OT0_, symObjAddr: 0xF50, symBinAddr: 0x10002B87C, symSize: 0x3C }
  - { offsetInCU: 0x91F2, offset: 0x72692, size: 0x8, addend: 0x0, symName: __ZNSt3__117__compressed_pairIP7CommandNS_9allocatorIS1_EEEC2B7v160006IDnNS_18__default_init_tagEEEOT_OT0_, symObjAddr: 0xFA8, symBinAddr: 0x10002B8B8, symSize: 0x40 }
  - { offsetInCU: 0x9249, offset: 0x726E9, size: 0x8, addend: 0x0, symName: __ZNSt3__122__compressed_pair_elemINS_9allocatorI7CommandEELi1ELb1EEC2B7v160006ENS_18__default_init_tagE, symObjAddr: 0x1004, symBinAddr: 0x10002B8F8, symSize: 0x2C }
  - { offsetInCU: 0x927C, offset: 0x7271C, size: 0x8, addend: 0x0, symName: __ZNSt3__19allocatorI7CommandEC2B7v160006Ev, symObjAddr: 0x1030, symBinAddr: 0x10002B924, symSize: 0x2C }
  - { offsetInCU: 0x92A5, offset: 0x72745, size: 0x8, addend: 0x0, symName: __ZNSt3__116__non_trivial_ifILb1ENS_9allocatorI7CommandEEEC2B7v160006Ev, symObjAddr: 0x105C, symBinAddr: 0x10002B950, symSize: 0x14 }
  - { offsetInCU: 0x930F, offset: 0x727AF, size: 0x8, addend: 0x0, symName: __ZNKSt3__16vectorI11InstructionNS_9allocatorIS1_EEE17__annotate_shrinkB7v160006Em, symObjAddr: 0x4304, symBinAddr: 0x10002B964, symSize: 0xB4 }
...
